
/Users/brycecallender/Desktop/Github/Galactic_Unicorn/cmake-build-debug/galactic.elf:     file format elf32-littlearm

Sections:
Idx Name          Size      VMA       LMA       File off  Algn
  0 .boot2        00000100  10000000  10000000  00001000  2**0
                  CONTENTS, ALLOC, LOAD, READONLY, CODE
  1 .text         0001c220  10000100  10000100  00001100  2**3
                  CONTENTS, ALLOC, LOAD, READONLY, CODE
  2 .rodata       0000be4c  1001c320  1001c320  0001d320  2**3
                  CONTENTS, ALLOC, LOAD, READONLY, DATA
  3 .ARM.extab    000001a0  1002816c  1002816c  0002916c  2**2
                  CONTENTS, ALLOC, LOAD, READONLY, DATA
  4 .ARM.exidx    00000248  1002830c  1002830c  0002930c  2**2
                  CONTENTS, ALLOC, LOAD, READONLY, DATA
  5 .binary_info  00000020  10028554  10028554  00029554  2**2
                  CONTENTS, ALLOC, LOAD, DATA
  6 .ram_vector_table 000000c0  20000000  20000000  0002bcd0  2**2
                  CONTENTS
  7 .data         00001c10  200000c0  10028574  0002a0c0  2**4
                  CONTENTS, ALLOC, LOAD, READONLY, CODE
  8 .uninitialized_data 00000000  20001cd0  20001cd0  0002bd90  2**0
                  CONTENTS
  9 .scratch_x    00000000  20040000  20040000  0002bd90  2**0
                  CONTENTS
 10 .scratch_y    00000000  20041000  20041000  0002bd90  2**0
                  CONTENTS
 11 .bss          00004000  20001cd0  20001cd0  0002bcd0  2**3
                  ALLOC
 12 .heap         00000800  20005cd0  20005cd0  0002bd90  2**2
                  CONTENTS, READONLY
 13 .stack_dummy  00000800  20041000  20041000  0002c5a0  2**5
                  CONTENTS, READONLY
 14 .ARM.attributes 00000028  00000000  00000000  0002cda0  2**0
                  CONTENTS, READONLY
 15 .comment      00000049  00000000  00000000  0002cdc8  2**0
                  CONTENTS, READONLY
 16 .debug_info   000efb9d  00000000  00000000  0002ce11  2**0
                  CONTENTS, READONLY, DEBUGGING, OCTETS
 17 .debug_abbrev 0000e794  00000000  00000000  0011c9ae  2**0
                  CONTENTS, READONLY, DEBUGGING, OCTETS
 18 .debug_loc    00089dd3  00000000  00000000  0012b142  2**0
                  CONTENTS, READONLY, DEBUGGING, OCTETS
 19 .debug_aranges 00001e58  00000000  00000000  001b4f18  2**3
                  CONTENTS, READONLY, DEBUGGING, OCTETS
 20 .debug_ranges 0000b148  00000000  00000000  001b6d70  2**3
                  CONTENTS, READONLY, DEBUGGING, OCTETS
 21 .debug_line   0003d10a  00000000  00000000  001c1eb8  2**0
                  CONTENTS, READONLY, DEBUGGING, OCTETS
 22 .debug_str    0005e6ee  00000000  00000000  001fefc2  2**0
                  CONTENTS, READONLY, DEBUGGING, OCTETS
 23 .debug_frame  00009a90  00000000  00000000  0025d6b0  2**2
                  CONTENTS, READONLY, DEBUGGING, OCTETS
 24 .stab         0000009c  00000000  00000000  00267140  2**2
                  CONTENTS, READONLY, DEBUGGING
 25 .stabstr      0000014f  00000000  00000000  002671dc  2**0
                  CONTENTS, READONLY, DEBUGGING

/Users/brycecallender/Desktop/Github/Galactic_Unicorn/cmake-build-debug/galactic.elf:     file format elf32-littlearm


Disassembly of section .boot2:

10000000 <__boot2_start__>:
10000000:	4b32b500 	.word	0x4b32b500
10000004:	60582021 	.word	0x60582021
10000008:	21026898 	.word	0x21026898
1000000c:	60984388 	.word	0x60984388
10000010:	611860d8 	.word	0x611860d8
10000014:	4b2e6158 	.word	0x4b2e6158
10000018:	60992100 	.word	0x60992100
1000001c:	61592102 	.word	0x61592102
10000020:	22f02101 	.word	0x22f02101
10000024:	492b5099 	.word	0x492b5099
10000028:	21016019 	.word	0x21016019
1000002c:	20356099 	.word	0x20356099
10000030:	f844f000 	.word	0xf844f000
10000034:	42902202 	.word	0x42902202
10000038:	2106d014 	.word	0x2106d014
1000003c:	f0006619 	.word	0xf0006619
10000040:	6e19f834 	.word	0x6e19f834
10000044:	66192101 	.word	0x66192101
10000048:	66182000 	.word	0x66182000
1000004c:	f000661a 	.word	0xf000661a
10000050:	6e19f82c 	.word	0x6e19f82c
10000054:	6e196e19 	.word	0x6e196e19
10000058:	f0002005 	.word	0xf0002005
1000005c:	2101f82f 	.word	0x2101f82f
10000060:	d1f94208 	.word	0xd1f94208
10000064:	60992100 	.word	0x60992100
10000068:	6019491b 	.word	0x6019491b
1000006c:	60592100 	.word	0x60592100
10000070:	481b491a 	.word	0x481b491a
10000074:	21016001 	.word	0x21016001
10000078:	21eb6099 	.word	0x21eb6099
1000007c:	21a06619 	.word	0x21a06619
10000080:	f0006619 	.word	0xf0006619
10000084:	2100f812 	.word	0x2100f812
10000088:	49166099 	.word	0x49166099
1000008c:	60014814 	.word	0x60014814
10000090:	60992101 	.word	0x60992101
10000094:	2800bc01 	.word	0x2800bc01
10000098:	4700d000 	.word	0x4700d000
1000009c:	49134812 	.word	0x49134812
100000a0:	c8036008 	.word	0xc8036008
100000a4:	8808f380 	.word	0x8808f380
100000a8:	b5034708 	.word	0xb5034708
100000ac:	20046a99 	.word	0x20046a99
100000b0:	d0fb4201 	.word	0xd0fb4201
100000b4:	42012001 	.word	0x42012001
100000b8:	bd03d1f8 	.word	0xbd03d1f8
100000bc:	6618b502 	.word	0x6618b502
100000c0:	f7ff6618 	.word	0xf7ff6618
100000c4:	6e18fff2 	.word	0x6e18fff2
100000c8:	bd026e18 	.word	0xbd026e18
100000cc:	40020000 	.word	0x40020000
100000d0:	18000000 	.word	0x18000000
100000d4:	00070000 	.word	0x00070000
100000d8:	005f0300 	.word	0x005f0300
100000dc:	00002221 	.word	0x00002221
100000e0:	180000f4 	.word	0x180000f4
100000e4:	a0002022 	.word	0xa0002022
100000e8:	10000100 	.word	0x10000100
100000ec:	e000ed08 	.word	0xe000ed08
	...
100000fc:	7a4eb274 	.word	0x7a4eb274

Disassembly of section .text:

10000100 <__VECTOR_TABLE>:
10000100:	20042000 	.word	0x20042000
10000104:	100001f7 	.word	0x100001f7
10000108:	100001c3 	.word	0x100001c3
1000010c:	100001c5 	.word	0x100001c5
10000110:	100001c1 	.word	0x100001c1
10000114:	100001c1 	.word	0x100001c1
10000118:	100001c1 	.word	0x100001c1
1000011c:	100001c1 	.word	0x100001c1
10000120:	100001c1 	.word	0x100001c1
10000124:	100001c1 	.word	0x100001c1
10000128:	100001c1 	.word	0x100001c1
1000012c:	100001c7 	.word	0x100001c7
10000130:	100001c1 	.word	0x100001c1
10000134:	100001c1 	.word	0x100001c1
10000138:	100001c9 	.word	0x100001c9
1000013c:	100001cb 	.word	0x100001cb
10000140:	100001cd 	.word	0x100001cd
10000144:	100001cd 	.word	0x100001cd
10000148:	100001cd 	.word	0x100001cd
1000014c:	100001cd 	.word	0x100001cd
10000150:	100001cd 	.word	0x100001cd
10000154:	100001cd 	.word	0x100001cd
10000158:	100001cd 	.word	0x100001cd
1000015c:	100001cd 	.word	0x100001cd
10000160:	100001cd 	.word	0x100001cd
10000164:	100001cd 	.word	0x100001cd
10000168:	100001cd 	.word	0x100001cd
1000016c:	100001cd 	.word	0x100001cd
10000170:	100001cd 	.word	0x100001cd
10000174:	100001cd 	.word	0x100001cd
10000178:	100001cd 	.word	0x100001cd
1000017c:	100001cd 	.word	0x100001cd
10000180:	100001cd 	.word	0x100001cd
10000184:	100001cd 	.word	0x100001cd
10000188:	100001cd 	.word	0x100001cd
1000018c:	100001cd 	.word	0x100001cd
10000190:	100001cd 	.word	0x100001cd
10000194:	100001cd 	.word	0x100001cd
10000198:	100001cd 	.word	0x100001cd
1000019c:	100001cd 	.word	0x100001cd
100001a0:	100001cd 	.word	0x100001cd
100001a4:	100001cd 	.word	0x100001cd
100001a8:	100001cd 	.word	0x100001cd
100001ac:	100001cd 	.word	0x100001cd
100001b0:	100001cd 	.word	0x100001cd
100001b4:	100001cd 	.word	0x100001cd
100001b8:	100001cd 	.word	0x100001cd
100001bc:	100001cd 	.word	0x100001cd

100001c0 <isr_invalid>:
100001c0:	be00      	bkpt	0x0000

100001c2 <isr_nmi>:
100001c2:	be00      	bkpt	0x0000

100001c4 <isr_hardfault>:
100001c4:	be00      	bkpt	0x0000

100001c6 <isr_svcall>:
100001c6:	be00      	bkpt	0x0000

100001c8 <isr_pendsv>:
100001c8:	be00      	bkpt	0x0000

100001ca <isr_systick>:
100001ca:	be00      	bkpt	0x0000

100001cc <__unhandled_user_irq>:
100001cc:	f000 f84b 	bl	10000266 <__get_current_exception>
100001d0:	3810      	subs	r0, #16

100001d2 <unhandled_user_irq_num_in_r0>:
100001d2:	be00      	bkpt	0x0000

100001d4 <binary_info_header>:
100001d4:	7188ebf2 	.word	0x7188ebf2
100001d8:	10028554 	.word	0x10028554
100001dc:	10028574 	.word	0x10028574
100001e0:	10000234 	.word	0x10000234
100001e4:	e71aa390 	.word	0xe71aa390

100001e8 <_entry_point>:
100001e8:	2000      	movs	r0, #0
100001ea:	4921      	ldr	r1, [pc, #132]	; (10000270 <__get_current_exception+0xa>)
100001ec:	6008      	str	r0, [r1, #0]
100001ee:	c806      	ldmia	r0!, {r1, r2}
100001f0:	f381 8808 	msr	MSP, r1
100001f4:	4710      	bx	r2

100001f6 <_reset_handler>:
100001f6:	481f      	ldr	r0, [pc, #124]	; (10000274 <__get_current_exception+0xe>)
100001f8:	6800      	ldr	r0, [r0, #0]
100001fa:	2800      	cmp	r0, #0
100001fc:	d12f      	bne.n	1000025e <hold_non_core0_in_bootrom>
100001fe:	a40d      	add	r4, pc, #52	; (adr r4, 10000234 <data_cpy_table>)
10000200:	cc0e      	ldmia	r4!, {r1, r2, r3}
10000202:	2900      	cmp	r1, #0
10000204:	d002      	beq.n	1000020c <_reset_handler+0x16>
10000206:	f000 f812 	bl	1000022e <data_cpy>
1000020a:	e7f9      	b.n	10000200 <_reset_handler+0xa>
1000020c:	491a      	ldr	r1, [pc, #104]	; (10000278 <__get_current_exception+0x12>)
1000020e:	4a1b      	ldr	r2, [pc, #108]	; (1000027c <__get_current_exception+0x16>)
10000210:	2000      	movs	r0, #0
10000212:	e000      	b.n	10000216 <bss_fill_test>

10000214 <bss_fill_loop>:
10000214:	c101      	stmia	r1!, {r0}

10000216 <bss_fill_test>:
10000216:	4291      	cmp	r1, r2
10000218:	d1fc      	bne.n	10000214 <bss_fill_loop>

1000021a <platform_entry>:
1000021a:	4919      	ldr	r1, [pc, #100]	; (10000280 <__get_current_exception+0x1a>)
1000021c:	4788      	blx	r1
1000021e:	4919      	ldr	r1, [pc, #100]	; (10000284 <__get_current_exception+0x1e>)
10000220:	4788      	blx	r1
10000222:	4919      	ldr	r1, [pc, #100]	; (10000288 <__get_current_exception+0x22>)
10000224:	4788      	blx	r1
10000226:	be00      	bkpt	0x0000
10000228:	e7fd      	b.n	10000226 <platform_entry+0xc>

1000022a <data_cpy_loop>:
1000022a:	c901      	ldmia	r1!, {r0}
1000022c:	c201      	stmia	r2!, {r0}

1000022e <data_cpy>:
1000022e:	429a      	cmp	r2, r3
10000230:	d3fb      	bcc.n	1000022a <data_cpy_loop>
10000232:	4770      	bx	lr

10000234 <data_cpy_table>:
10000234:	10028574 	.word	0x10028574
10000238:	200000c0 	.word	0x200000c0
1000023c:	20001cd0 	.word	0x20001cd0
10000240:	1002a184 	.word	0x1002a184
10000244:	20040000 	.word	0x20040000
10000248:	20040000 	.word	0x20040000
1000024c:	1002a184 	.word	0x1002a184
10000250:	20041000 	.word	0x20041000
10000254:	20041000 	.word	0x20041000
10000258:	00000000 	.word	0x00000000
1000025c:	4770      	bx	lr

1000025e <hold_non_core0_in_bootrom>:
1000025e:	480b      	ldr	r0, [pc, #44]	; (1000028c <__get_current_exception+0x26>)
10000260:	f00a fc9c 	bl	1000ab9c <rom_func_lookup>
10000264:	4700      	bx	r0

10000266 <__get_current_exception>:
10000266:	f3ef 8005 	mrs	r0, IPSR
1000026a:	b2c0      	uxtb	r0, r0
1000026c:	4770      	bx	lr
1000026e:	0000      	.short	0x0000
10000270:	e000ed08 	.word	0xe000ed08
10000274:	d0000000 	.word	0xd0000000
10000278:	20001cd0 	.word	0x20001cd0
1000027c:	20005cd0 	.word	0x20005cd0
10000280:	1000948d 	.word	0x1000948d
10000284:	100005bd 	.word	0x100005bd
10000288:	10009449 	.word	0x10009449
1000028c:	00005657 	.word	0x00005657

10000290 <__bi_50>:
10000290:	50520006 5360b3ab 1001d448              ..RP..`SH...

1000029c <__bi_38>:
1000029c:	50520006 02031c86 1001d458              ..RP....X...

100002a8 <__bi_30>:
100002a8:	50520006 9da22254 1001d464              ..RPT"..d...

100002b4 <__bi_22>:
100002b4:	50520005 68f465de 1002a184              ..RP.e.h....

100002c0 <_init>:
100002c0:	b5f8      	push	{r3, r4, r5, r6, r7, lr}
100002c2:	46c0      	nop			; (mov r8, r8)

100002c4 <__do_global_dtors_aux>:
100002c4:	b510      	push	{r4, lr}
100002c6:	4c06      	ldr	r4, [pc, #24]	; (100002e0 <__do_global_dtors_aux+0x1c>)
100002c8:	7823      	ldrb	r3, [r4, #0]
100002ca:	2b00      	cmp	r3, #0
100002cc:	d107      	bne.n	100002de <__do_global_dtors_aux+0x1a>
100002ce:	4b05      	ldr	r3, [pc, #20]	; (100002e4 <__do_global_dtors_aux+0x20>)
100002d0:	2b00      	cmp	r3, #0
100002d2:	d002      	beq.n	100002da <__do_global_dtors_aux+0x16>
100002d4:	4804      	ldr	r0, [pc, #16]	; (100002e8 <__do_global_dtors_aux+0x24>)
100002d6:	e000      	b.n	100002da <__do_global_dtors_aux+0x16>
100002d8:	bf00      	nop
100002da:	2301      	movs	r3, #1
100002dc:	7023      	strb	r3, [r4, #0]
100002de:	bd10      	pop	{r4, pc}
100002e0:	20001dd8 	.word	0x20001dd8
100002e4:	00000000 	.word	0x00000000
100002e8:	1001c320 	.word	0x1001c320

100002ec <frame_dummy>:
100002ec:	4b04      	ldr	r3, [pc, #16]	; (10000300 <frame_dummy+0x14>)
100002ee:	b510      	push	{r4, lr}
100002f0:	2b00      	cmp	r3, #0
100002f2:	d003      	beq.n	100002fc <frame_dummy+0x10>
100002f4:	4903      	ldr	r1, [pc, #12]	; (10000304 <frame_dummy+0x18>)
100002f6:	4804      	ldr	r0, [pc, #16]	; (10000308 <frame_dummy+0x1c>)
100002f8:	e000      	b.n	100002fc <frame_dummy+0x10>
100002fa:	bf00      	nop
100002fc:	bd10      	pop	{r4, pc}
100002fe:	46c0      	nop			; (mov r8, r8)
10000300:	00000000 	.word	0x00000000
10000304:	20001ddc 	.word	0x20001ddc
10000308:	1001c320 	.word	0x1001c320

1000030c <_ZNSt7__cxx1112basic_stringIcSt11char_traitsIcESaIcEE12_M_constructIPKcEEvT_S8_St20forward_iterator_tag>:
1000030c:	b570      	push	{r4, r5, r6, lr}
1000030e:	b082      	sub	sp, #8
10000310:	0005      	movs	r5, r0
10000312:	1e0e      	subs	r6, r1, #0
10000314:	d00d      	beq.n	10000332 <_ZNSt7__cxx1112basic_stringIcSt11char_traitsIcESaIcEE12_M_constructIPKcEEvT_S8_St20forward_iterator_tag+0x26>
10000316:	1b94      	subs	r4, r2, r6
10000318:	9401      	str	r4, [sp, #4]
1000031a:	2c0f      	cmp	r4, #15
1000031c:	d80e      	bhi.n	1000033c <_ZNSt7__cxx1112basic_stringIcSt11char_traitsIcESaIcEE12_M_constructIPKcEEvT_S8_St20forward_iterator_tag+0x30>
1000031e:	6828      	ldr	r0, [r5, #0]
10000320:	2c01      	cmp	r4, #1
10000322:	d014      	beq.n	1000034e <_ZNSt7__cxx1112basic_stringIcSt11char_traitsIcESaIcEE12_M_constructIPKcEEvT_S8_St20forward_iterator_tag+0x42>
10000324:	2c00      	cmp	r4, #0
10000326:	d014      	beq.n	10000352 <_ZNSt7__cxx1112basic_stringIcSt11char_traitsIcESaIcEE12_M_constructIPKcEEvT_S8_St20forward_iterator_tag+0x46>
10000328:	0022      	movs	r2, r4
1000032a:	0031      	movs	r1, r6
1000032c:	f00c fc68 	bl	1000cc00 <__wrap___aeabi_memcpy>
10000330:	e00f      	b.n	10000352 <_ZNSt7__cxx1112basic_stringIcSt11char_traitsIcESaIcEE12_M_constructIPKcEEvT_S8_St20forward_iterator_tag+0x46>
10000332:	4291      	cmp	r1, r2
10000334:	d0ef      	beq.n	10000316 <_ZNSt7__cxx1112basic_stringIcSt11char_traitsIcESaIcEE12_M_constructIPKcEEvT_S8_St20forward_iterator_tag+0xa>
10000336:	480b      	ldr	r0, [pc, #44]	; (10000364 <_ZNSt7__cxx1112basic_stringIcSt11char_traitsIcESaIcEE12_M_constructIPKcEEvT_S8_St20forward_iterator_tag+0x58>)
10000338:	f012 fe18 	bl	10012f6c <_ZSt19__throw_logic_errorPKc>
1000033c:	2200      	movs	r2, #0
1000033e:	a901      	add	r1, sp, #4
10000340:	0028      	movs	r0, r5
10000342:	f013 f823 	bl	1001338c <_ZNSt7__cxx1112basic_stringIcSt11char_traitsIcESaIcEE9_M_createERjj>
10000346:	6028      	str	r0, [r5, #0]
10000348:	9b01      	ldr	r3, [sp, #4]
1000034a:	60ab      	str	r3, [r5, #8]
1000034c:	e7e7      	b.n	1000031e <_ZNSt7__cxx1112basic_stringIcSt11char_traitsIcESaIcEE12_M_constructIPKcEEvT_S8_St20forward_iterator_tag+0x12>
1000034e:	7833      	ldrb	r3, [r6, #0]
10000350:	7003      	strb	r3, [r0, #0]
10000352:	9a01      	ldr	r2, [sp, #4]
10000354:	606a      	str	r2, [r5, #4]
10000356:	682b      	ldr	r3, [r5, #0]
10000358:	189b      	adds	r3, r3, r2
1000035a:	2200      	movs	r2, #0
1000035c:	701a      	strb	r2, [r3, #0]
1000035e:	b002      	add	sp, #8
10000360:	bd70      	pop	{r4, r5, r6, pc}
10000362:	46c0      	nop			; (mov r8, r8)
10000364:	1001c320 	.word	0x1001c320

10000368 <_Z41__static_initialization_and_destruction_0ii>:
10000368:	b5f0      	push	{r4, r5, r6, r7, lr}
1000036a:	46ce      	mov	lr, r9
1000036c:	4647      	mov	r7, r8
1000036e:	b580      	push	{r7, lr}
10000370:	b099      	sub	sp, #100	; 0x64
10000372:	0004      	movs	r4, r0
10000374:	000e      	movs	r6, r1
10000376:	2801      	cmp	r0, #1
10000378:	d00a      	beq.n	10000390 <_Z41__static_initialization_and_destruction_0ii+0x28>
1000037a:	2c00      	cmp	r4, #0
1000037c:	d103      	bne.n	10000386 <_Z41__static_initialization_and_destruction_0ii+0x1e>
1000037e:	4b6f      	ldr	r3, [pc, #444]	; (1000053c <_Z41__static_initialization_and_destruction_0ii+0x1d4>)
10000380:	429e      	cmp	r6, r3
10000382:	d100      	bne.n	10000386 <_Z41__static_initialization_and_destruction_0ii+0x1e>
10000384:	e0d3      	b.n	1000052e <_Z41__static_initialization_and_destruction_0ii+0x1c6>
10000386:	b019      	add	sp, #100	; 0x64
10000388:	bcc0      	pop	{r6, r7}
1000038a:	46b9      	mov	r9, r7
1000038c:	46b0      	mov	r8, r6
1000038e:	bdf0      	pop	{r4, r5, r6, r7, pc}
10000390:	4b6a      	ldr	r3, [pc, #424]	; (1000053c <_Z41__static_initialization_and_destruction_0ii+0x1d4>)
10000392:	4299      	cmp	r1, r3
10000394:	d1f1      	bne.n	1000037a <_Z41__static_initialization_and_destruction_0ii+0x12>
10000396:	ab03      	add	r3, sp, #12
10000398:	22d9      	movs	r2, #217	; 0xd9
1000039a:	9203      	str	r2, [sp, #12]
1000039c:	3a5d      	subs	r2, #93	; 0x5d
1000039e:	9204      	str	r2, [sp, #16]
100003a0:	3a36      	subs	r2, #54	; 0x36
100003a2:	9205      	str	r2, [sp, #20]
100003a4:	466d      	mov	r5, sp
100003a6:	002a      	movs	r2, r5
100003a8:	cb83      	ldmia	r3!, {r0, r1, r7}
100003aa:	c283      	stmia	r2!, {r0, r1, r7}
100003ac:	4b64      	ldr	r3, [pc, #400]	; (10000540 <_Z41__static_initialization_and_destruction_0ii+0x1d8>)
100003ae:	4a65      	ldr	r2, [pc, #404]	; (10000544 <_Z41__static_initialization_and_destruction_0ii+0x1dc>)
100003b0:	c304      	stmia	r3!, {r2}
100003b2:	002a      	movs	r2, r5
100003b4:	ca83      	ldmia	r2!, {r0, r1, r7}
100003b6:	c383      	stmia	r3!, {r0, r1, r7}
100003b8:	236d      	movs	r3, #109	; 0x6d
100003ba:	9306      	str	r3, [sp, #24]
100003bc:	3351      	adds	r3, #81	; 0x51
100003be:	9307      	str	r3, [sp, #28]
100003c0:	332b      	adds	r3, #43	; 0x2b
100003c2:	9308      	str	r3, [sp, #32]
100003c4:	3bdd      	subs	r3, #221	; 0xdd
100003c6:	4699      	mov	r9, r3
100003c8:	001a      	movs	r2, r3
100003ca:	a906      	add	r1, sp, #24
100003cc:	0028      	movs	r0, r5
100003ce:	f00c fc17 	bl	1000cc00 <__wrap___aeabi_memcpy>
100003d2:	4b5d      	ldr	r3, [pc, #372]	; (10000548 <_Z41__static_initialization_and_destruction_0ii+0x1e0>)
100003d4:	4a5d      	ldr	r2, [pc, #372]	; (1000054c <_Z41__static_initialization_and_destruction_0ii+0x1e4>)
100003d6:	c304      	stmia	r3!, {r2}
100003d8:	002a      	movs	r2, r5
100003da:	ca83      	ldmia	r2!, {r0, r1, r7}
100003dc:	c383      	stmia	r3!, {r0, r1, r7}
100003de:	ab09      	add	r3, sp, #36	; 0x24
100003e0:	227d      	movs	r2, #125	; 0x7d
100003e2:	9209      	str	r2, [sp, #36]	; 0x24
100003e4:	3234      	adds	r2, #52	; 0x34
100003e6:	920a      	str	r2, [sp, #40]	; 0x28
100003e8:	3a14      	subs	r2, #20
100003ea:	920b      	str	r2, [sp, #44]	; 0x2c
100003ec:	002a      	movs	r2, r5
100003ee:	cb83      	ldmia	r3!, {r0, r1, r7}
100003f0:	c283      	stmia	r2!, {r0, r1, r7}
100003f2:	4b57      	ldr	r3, [pc, #348]	; (10000550 <_Z41__static_initialization_and_destruction_0ii+0x1e8>)
100003f4:	4a57      	ldr	r2, [pc, #348]	; (10000554 <_Z41__static_initialization_and_destruction_0ii+0x1ec>)
100003f6:	c304      	stmia	r3!, {r2}
100003f8:	002a      	movs	r2, r5
100003fa:	ca83      	ldmia	r2!, {r0, r1, r7}
100003fc:	c383      	stmia	r3!, {r0, r1, r7}
100003fe:	23a9      	movs	r3, #169	; 0xa9
10000400:	930c      	str	r3, [sp, #48]	; 0x30
10000402:	3b1b      	subs	r3, #27
10000404:	930d      	str	r3, [sp, #52]	; 0x34
10000406:	332f      	adds	r3, #47	; 0x2f
10000408:	930e      	str	r3, [sp, #56]	; 0x38
1000040a:	464a      	mov	r2, r9
1000040c:	a90c      	add	r1, sp, #48	; 0x30
1000040e:	0028      	movs	r0, r5
10000410:	f00c fbf6 	bl	1000cc00 <__wrap___aeabi_memcpy>
10000414:	4b50      	ldr	r3, [pc, #320]	; (10000558 <_Z41__static_initialization_and_destruction_0ii+0x1f0>)
10000416:	4a51      	ldr	r2, [pc, #324]	; (1000055c <_Z41__static_initialization_and_destruction_0ii+0x1f4>)
10000418:	c304      	stmia	r3!, {r2}
1000041a:	002a      	movs	r2, r5
1000041c:	ca83      	ldmia	r2!, {r0, r1, r7}
1000041e:	c383      	stmia	r3!, {r0, r1, r7}
10000420:	ab0f      	add	r3, sp, #60	; 0x3c
10000422:	22a7      	movs	r2, #167	; 0xa7
10000424:	920f      	str	r2, [sp, #60]	; 0x3c
10000426:	321a      	adds	r2, #26
10000428:	9210      	str	r2, [sp, #64]	; 0x40
1000042a:	3a6f      	subs	r2, #111	; 0x6f
1000042c:	9211      	str	r2, [sp, #68]	; 0x44
1000042e:	002a      	movs	r2, r5
10000430:	cb83      	ldmia	r3!, {r0, r1, r7}
10000432:	c283      	stmia	r2!, {r0, r1, r7}
10000434:	4b4a      	ldr	r3, [pc, #296]	; (10000560 <_Z41__static_initialization_and_destruction_0ii+0x1f8>)
10000436:	4a4b      	ldr	r2, [pc, #300]	; (10000564 <_Z41__static_initialization_and_destruction_0ii+0x1fc>)
10000438:	c304      	stmia	r3!, {r2}
1000043a:	002a      	movs	r2, r5
1000043c:	ca83      	ldmia	r2!, {r0, r1, r7}
1000043e:	c383      	stmia	r3!, {r0, r1, r7}
10000440:	2385      	movs	r3, #133	; 0x85
10000442:	9312      	str	r3, [sp, #72]	; 0x48
10000444:	331e      	adds	r3, #30
10000446:	9313      	str	r3, [sp, #76]	; 0x4c
10000448:	3309      	adds	r3, #9
1000044a:	4698      	mov	r8, r3
1000044c:	9314      	str	r3, [sp, #80]	; 0x50
1000044e:	464a      	mov	r2, r9
10000450:	a912      	add	r1, sp, #72	; 0x48
10000452:	0028      	movs	r0, r5
10000454:	f00c fbd4 	bl	1000cc00 <__wrap___aeabi_memcpy>
10000458:	4b43      	ldr	r3, [pc, #268]	; (10000568 <_Z41__static_initialization_and_destruction_0ii+0x200>)
1000045a:	4a44      	ldr	r2, [pc, #272]	; (1000056c <_Z41__static_initialization_and_destruction_0ii+0x204>)
1000045c:	c304      	stmia	r3!, {r2}
1000045e:	002a      	movs	r2, r5
10000460:	ca83      	ldmia	r2!, {r0, r1, r7}
10000462:	c383      	stmia	r3!, {r0, r1, r7}
10000464:	ab15      	add	r3, sp, #84	; 0x54
10000466:	22df      	movs	r2, #223	; 0xdf
10000468:	9215      	str	r2, [sp, #84]	; 0x54
1000046a:	4642      	mov	r2, r8
1000046c:	9216      	str	r2, [sp, #88]	; 0x58
1000046e:	3a60      	subs	r2, #96	; 0x60
10000470:	9217      	str	r2, [sp, #92]	; 0x5c
10000472:	002a      	movs	r2, r5
10000474:	cb83      	ldmia	r3!, {r0, r1, r7}
10000476:	c283      	stmia	r2!, {r0, r1, r7}
10000478:	4b3d      	ldr	r3, [pc, #244]	; (10000570 <_Z41__static_initialization_and_destruction_0ii+0x208>)
1000047a:	4a3e      	ldr	r2, [pc, #248]	; (10000574 <_Z41__static_initialization_and_destruction_0ii+0x20c>)
1000047c:	c304      	stmia	r3!, {r2}
1000047e:	cd07      	ldmia	r5!, {r0, r1, r2}
10000480:	c307      	stmia	r3!, {r0, r1, r2}
10000482:	2300      	movs	r3, #0
10000484:	220b      	movs	r2, #11
10000486:	2135      	movs	r1, #53	; 0x35
10000488:	483b      	ldr	r0, [pc, #236]	; (10000578 <_Z41__static_initialization_and_destruction_0ii+0x210>)
1000048a:	f011 fbfb 	bl	10011c84 <_ZN8pimoroni22PicoGraphics_PenRGB888C1EttPv>
1000048e:	4d3b      	ldr	r5, [pc, #236]	; (1000057c <_Z41__static_initialization_and_destruction_0ii+0x214>)
10000490:	2380      	movs	r3, #128	; 0x80
10000492:	005b      	lsls	r3, r3, #1
10000494:	802b      	strh	r3, [r5, #0]
10000496:	3b81      	subs	r3, #129	; 0x81
10000498:	806b      	strh	r3, [r5, #2]
1000049a:	1d2f      	adds	r7, r5, #4
1000049c:	4a38      	ldr	r2, [pc, #224]	; (10000580 <_Z41__static_initialization_and_destruction_0ii+0x218>)
1000049e:	2100      	movs	r1, #0
100004a0:	0038      	movs	r0, r7
100004a2:	f00c fba7 	bl	1000cbf4 <__wrap_memset>
100004a6:	4b37      	ldr	r3, [pc, #220]	; (10000584 <_Z41__static_initialization_and_destruction_0ii+0x21c>)
100004a8:	50ef      	str	r7, [r5, r3]
100004aa:	4b37      	ldr	r3, [pc, #220]	; (10000588 <_Z41__static_initialization_and_destruction_0ii+0x220>)
100004ac:	18e8      	adds	r0, r5, r3
100004ae:	2210      	movs	r2, #16
100004b0:	2100      	movs	r1, #0
100004b2:	f00c fb9f 	bl	1000cbf4 <__wrap_memset>
100004b6:	4b35      	ldr	r3, [pc, #212]	; (1000058c <_Z41__static_initialization_and_destruction_0ii+0x224>)
100004b8:	2200      	movs	r2, #0
100004ba:	50ea      	str	r2, [r5, r3]
100004bc:	4b34      	ldr	r3, [pc, #208]	; (10000590 <_Z41__static_initialization_and_destruction_0ii+0x228>)
100004be:	4a35      	ldr	r2, [pc, #212]	; (10000594 <_Z41__static_initialization_and_destruction_0ii+0x22c>)
100004c0:	52ea      	strh	r2, [r5, r3]
100004c2:	2107      	movs	r1, #7
100004c4:	4b34      	ldr	r3, [pc, #208]	; (10000598 <_Z41__static_initialization_and_destruction_0ii+0x230>)
100004c6:	2900      	cmp	r1, #0
100004c8:	db23      	blt.n	10000512 <_Z41__static_initialization_and_destruction_0ii+0x1aa>
100004ca:	2200      	movs	r2, #0
100004cc:	701a      	strb	r2, [r3, #0]
100004ce:	20a5      	movs	r0, #165	; 0xa5
100004d0:	0080      	lsls	r0, r0, #2
100004d2:	8058      	strh	r0, [r3, #2]
100004d4:	2001      	movs	r0, #1
100004d6:	4240      	negs	r0, r0
100004d8:	8098      	strh	r0, [r3, #4]
100004da:	2502      	movs	r5, #2
100004dc:	80dd      	strh	r5, [r3, #6]
100004de:	3504      	adds	r5, #4
100004e0:	811d      	strh	r5, [r3, #8]
100004e2:	8158      	strh	r0, [r3, #10]
100004e4:	3002      	adds	r0, #2
100004e6:	8198      	strh	r0, [r3, #12]
100004e8:	482c      	ldr	r0, [pc, #176]	; (1000059c <_Z41__static_initialization_and_destruction_0ii+0x234>)
100004ea:	81d8      	strh	r0, [r3, #14]
100004ec:	821a      	strh	r2, [r3, #16]
100004ee:	615a      	str	r2, [r3, #20]
100004f0:	619a      	str	r2, [r3, #24]
100004f2:	771a      	strb	r2, [r3, #28]
100004f4:	83da      	strh	r2, [r3, #30]
100004f6:	621a      	str	r2, [r3, #32]
100004f8:	625a      	str	r2, [r3, #36]	; 0x24
100004fa:	629a      	str	r2, [r3, #40]	; 0x28
100004fc:	62da      	str	r2, [r3, #44]	; 0x2c
100004fe:	2030      	movs	r0, #48	; 0x30
10000500:	3d02      	subs	r5, #2
10000502:	541d      	strb	r5, [r3, r0]
10000504:	3001      	adds	r0, #1
10000506:	541a      	strb	r2, [r3, r0]
10000508:	3083      	adds	r0, #131	; 0x83
1000050a:	501a      	str	r2, [r3, r0]
1000050c:	33bc      	adds	r3, #188	; 0xbc
1000050e:	3901      	subs	r1, #1
10000510:	e7d9      	b.n	100004c6 <_Z41__static_initialization_and_destruction_0ii+0x15e>
10000512:	4a1a      	ldr	r2, [pc, #104]	; (1000057c <_Z41__static_initialization_and_destruction_0ii+0x214>)
10000514:	4b22      	ldr	r3, [pc, #136]	; (100005a0 <_Z41__static_initialization_and_destruction_0ii+0x238>)
10000516:	2102      	movs	r1, #2
10000518:	54d1      	strb	r1, [r2, r3]
1000051a:	4822      	ldr	r0, [pc, #136]	; (100005a4 <_Z41__static_initialization_and_destruction_0ii+0x23c>)
1000051c:	0003      	movs	r3, r0
1000051e:	3308      	adds	r3, #8
10000520:	6003      	str	r3, [r0, #0]
10000522:	2300      	movs	r3, #0
10000524:	4a20      	ldr	r2, [pc, #128]	; (100005a8 <_Z41__static_initialization_and_destruction_0ii+0x240>)
10000526:	4911      	ldr	r1, [pc, #68]	; (1000056c <_Z41__static_initialization_and_destruction_0ii+0x204>)
10000528:	f7ff fef0 	bl	1000030c <_ZNSt7__cxx1112basic_stringIcSt11char_traitsIcESaIcEE12_M_constructIPKcEEvT_S8_St20forward_iterator_tag>
1000052c:	e725      	b.n	1000037a <_Z41__static_initialization_and_destruction_0ii+0x12>
1000052e:	481d      	ldr	r0, [pc, #116]	; (100005a4 <_Z41__static_initialization_and_destruction_0ii+0x23c>)
10000530:	f012 ff4a 	bl	100133c8 <_ZNSt7__cxx1112basic_stringIcSt11char_traitsIcESaIcEE10_M_disposeEv>
10000534:	4811      	ldr	r0, [pc, #68]	; (1000057c <_Z41__static_initialization_and_destruction_0ii+0x214>)
10000536:	f00f ffd5 	bl	100104e4 <_ZN8pimoroni15GalacticUnicornD1Ev>
1000053a:	e724      	b.n	10000386 <_Z41__static_initialization_and_destruction_0ii+0x1e>
1000053c:	0000ffff 	.word	0x0000ffff
10000540:	200024e4 	.word	0x200024e4
10000544:	1001c34c 	.word	0x1001c34c
10000548:	20002524 	.word	0x20002524
1000054c:	1001c354 	.word	0x1001c354
10000550:	20002504 	.word	0x20002504
10000554:	1001c35c 	.word	0x1001c35c
10000558:	20002564 	.word	0x20002564
1000055c:	1001c364 	.word	0x1001c364
10000560:	20002544 	.word	0x20002544
10000564:	1001c36c 	.word	0x1001c36c
10000568:	200024c4 	.word	0x200024c4
1000056c:	1001c374 	.word	0x1001c374
10000570:	200024a4 	.word	0x200024a4
10000574:	1001c37c 	.word	0x1001c37c
10000578:	20005628 	.word	0x20005628
1000057c:	20002c0c 	.word	0x20002c0c
10000580:	00002418 	.word	0x00002418
10000584:	0000241c 	.word	0x0000241c
10000588:	00002420 	.word	0x00002420
1000058c:	00002430 	.word	0x00002430
10000590:	00002434 	.word	0x00002434
10000594:	00002fff 	.word	0x00002fff
10000598:	20005044 	.word	0x20005044
1000059c:	00007fff 	.word	0x00007fff
100005a0:	00002a18 	.word	0x00002a18
100005a4:	20001df4 	.word	0x20001df4
100005a8:	1001c378 	.word	0x1001c378

100005ac <_GLOBAL__sub_I_graphics>:
100005ac:	b510      	push	{r4, lr}
100005ae:	4902      	ldr	r1, [pc, #8]	; (100005b8 <_GLOBAL__sub_I_graphics+0xc>)
100005b0:	2001      	movs	r0, #1
100005b2:	f7ff fed9 	bl	10000368 <_Z41__static_initialization_and_destruction_0ii>
100005b6:	bd10      	pop	{r4, pc}
100005b8:	0000ffff 	.word	0x0000ffff

100005bc <main>:
100005bc:	b510      	push	{r4, lr}
100005be:	4c20      	ldr	r4, [pc, #128]	; (10000640 <main+0x84>)
100005c0:	44a5      	add	sp, r4
100005c2:	f00c fce1 	bl	1000cf88 <stdio_init_all>
100005c6:	4c1f      	ldr	r4, [pc, #124]	; (10000644 <main+0x88>)
100005c8:	0020      	movs	r0, r4
100005ca:	f00f ffdb 	bl	10010584 <_ZN8pimoroni15GalacticUnicorn4initEv>
100005ce:	4a1e      	ldr	r2, [pc, #120]	; (10000648 <main+0x8c>)
100005d0:	0021      	movs	r1, r4
100005d2:	a801      	add	r0, sp, #4
100005d4:	f006 ff30 	bl	10007438 <_ZN7GenshinC1ERN8pimoroni15GalacticUnicornERNS0_22PicoGraphics_PenRGB888E>
100005d8:	a801      	add	r0, sp, #4
100005da:	f000 f995 	bl	10000908 <_ZN7Genshin13startSequenceEv>
100005de:	2115      	movs	r1, #21
100005e0:	4818      	ldr	r0, [pc, #96]	; (10000644 <main+0x88>)
100005e2:	f010 fd93 	bl	1001110c <_ZN8pimoroni15GalacticUnicorn10is_pressedEh>
100005e6:	2800      	cmp	r0, #0
100005e8:	d120      	bne.n	1000062c <main+0x70>
100005ea:	211a      	movs	r1, #26
100005ec:	4815      	ldr	r0, [pc, #84]	; (10000644 <main+0x88>)
100005ee:	f010 fd8d 	bl	1001110c <_ZN8pimoroni15GalacticUnicorn10is_pressedEh>
100005f2:	2800      	cmp	r0, #0
100005f4:	d11f      	bne.n	10000636 <main+0x7a>
100005f6:	4c14      	ldr	r4, [pc, #80]	; (10000648 <main+0x8c>)
100005f8:	2300      	movs	r3, #0
100005fa:	2200      	movs	r2, #0
100005fc:	2100      	movs	r1, #0
100005fe:	0020      	movs	r0, r4
10000600:	f011 fb00 	bl	10011c04 <_ZN8pimoroni22PicoGraphics_PenRGB8887set_penEhhh>
10000604:	0020      	movs	r0, r4
10000606:	f011 f9e1 	bl	100119cc <_ZN8pimoroni12PicoGraphics5clearEv>
1000060a:	211b      	movs	r1, #27
1000060c:	480d      	ldr	r0, [pc, #52]	; (10000644 <main+0x88>)
1000060e:	f010 fd7d 	bl	1001110c <_ZN8pimoroni15GalacticUnicorn10is_pressedEh>
10000612:	2800      	cmp	r0, #0
10000614:	d1e3      	bne.n	100005de <main+0x22>
10000616:	a801      	add	r0, sp, #4
10000618:	f000 f9d4 	bl	100009c4 <_ZN7Genshin19checkSequenceButtonEv>
1000061c:	490a      	ldr	r1, [pc, #40]	; (10000648 <main+0x8c>)
1000061e:	4809      	ldr	r0, [pc, #36]	; (10000644 <main+0x88>)
10000620:	f010 fd1a 	bl	10011058 <_ZN8pimoroni15GalacticUnicorn6updateEPNS_12PicoGraphicsE>
10000624:	200a      	movs	r0, #10
10000626:	f008 faf5 	bl	10008c14 <sleep_ms>
1000062a:	e7d8      	b.n	100005de <main+0x22>
1000062c:	4907      	ldr	r1, [pc, #28]	; (1000064c <main+0x90>)
1000062e:	4805      	ldr	r0, [pc, #20]	; (10000644 <main+0x88>)
10000630:	f010 fd04 	bl	1001103c <_ZN8pimoroni15GalacticUnicorn17adjust_brightnessEf>
10000634:	e7d9      	b.n	100005ea <main+0x2e>
10000636:	4906      	ldr	r1, [pc, #24]	; (10000650 <main+0x94>)
10000638:	4802      	ldr	r0, [pc, #8]	; (10000644 <main+0x88>)
1000063a:	f010 fcff 	bl	1001103c <_ZN8pimoroni15GalacticUnicorn17adjust_brightnessEf>
1000063e:	e7da      	b.n	100005f6 <main+0x3a>
10000640:	ffffd560 	.word	0xffffd560
10000644:	20002c0c 	.word	0x20002c0c
10000648:	20005628 	.word	0x20005628
1000064c:	3c23d70a 	.word	0x3c23d70a
10000650:	bc23d70a 	.word	0xbc23d70a

10000654 <_ZNSt8functionIFvvEEC1IZN7Genshin13startSequenceEvEUlvE_vvEET_>:
10000654:	2300      	movs	r3, #0
10000656:	6083      	str	r3, [r0, #8]
10000658:	6001      	str	r1, [r0, #0]
1000065a:	4b02      	ldr	r3, [pc, #8]	; (10000664 <_ZNSt8functionIFvvEEC1IZN7Genshin13startSequenceEvEUlvE_vvEET_+0x10>)
1000065c:	60c3      	str	r3, [r0, #12]
1000065e:	4b02      	ldr	r3, [pc, #8]	; (10000668 <_ZNSt8functionIFvvEEC1IZN7Genshin13startSequenceEvEUlvE_vvEET_+0x14>)
10000660:	6083      	str	r3, [r0, #8]
10000662:	4770      	bx	lr
10000664:	100013d1 	.word	0x100013d1
10000668:	10000685 	.word	0x10000685

1000066c <_ZNSt8functionIFvvEEC1IZN7Genshin13startSequenceEvEUlvE1_vvEET_>:
1000066c:	2300      	movs	r3, #0
1000066e:	6083      	str	r3, [r0, #8]
10000670:	6001      	str	r1, [r0, #0]
10000672:	4b02      	ldr	r3, [pc, #8]	; (1000067c <_ZNSt8functionIFvvEEC1IZN7Genshin13startSequenceEvEUlvE1_vvEET_+0x10>)
10000674:	60c3      	str	r3, [r0, #12]
10000676:	4b02      	ldr	r3, [pc, #8]	; (10000680 <_ZNSt8functionIFvvEEC1IZN7Genshin13startSequenceEvEUlvE1_vvEET_+0x14>)
10000678:	6083      	str	r3, [r0, #8]
1000067a:	4770      	bx	lr
1000067c:	100012f1 	.word	0x100012f1
10000680:	100006a5 	.word	0x100006a5

10000684 <_ZNSt17_Function_handlerIFvvEZN7Genshin13startSequenceEvEUlvE_E10_M_managerERSt9_Any_dataRKS4_St18_Manager_operation>:
10000684:	2a01      	cmp	r2, #1
10000686:	d102      	bne.n	1000068e <_ZNSt17_Function_handlerIFvvEZN7Genshin13startSequenceEvEUlvE_E10_M_managerERSt9_Any_dataRKS4_St18_Manager_operation+0xa>
10000688:	6001      	str	r1, [r0, #0]
1000068a:	2000      	movs	r0, #0
1000068c:	4770      	bx	lr
1000068e:	2a02      	cmp	r2, #2
10000690:	d005      	beq.n	1000069e <_ZNSt17_Function_handlerIFvvEZN7Genshin13startSequenceEvEUlvE_E10_M_managerERSt9_Any_dataRKS4_St18_Manager_operation+0x1a>
10000692:	2a03      	cmp	r2, #3
10000694:	d0f9      	beq.n	1000068a <_ZNSt17_Function_handlerIFvvEZN7Genshin13startSequenceEvEUlvE_E10_M_managerERSt9_Any_dataRKS4_St18_Manager_operation+0x6>
10000696:	2a01      	cmp	r2, #1
10000698:	d1f7      	bne.n	1000068a <_ZNSt17_Function_handlerIFvvEZN7Genshin13startSequenceEvEUlvE_E10_M_managerERSt9_Any_dataRKS4_St18_Manager_operation+0x6>
1000069a:	6001      	str	r1, [r0, #0]
1000069c:	e7f5      	b.n	1000068a <_ZNSt17_Function_handlerIFvvEZN7Genshin13startSequenceEvEUlvE_E10_M_managerERSt9_Any_dataRKS4_St18_Manager_operation+0x6>
1000069e:	680b      	ldr	r3, [r1, #0]
100006a0:	6003      	str	r3, [r0, #0]
100006a2:	e7f2      	b.n	1000068a <_ZNSt17_Function_handlerIFvvEZN7Genshin13startSequenceEvEUlvE_E10_M_managerERSt9_Any_dataRKS4_St18_Manager_operation+0x6>

100006a4 <_ZNSt17_Function_handlerIFvvEZN7Genshin13startSequenceEvEUlvE1_E10_M_managerERSt9_Any_dataRKS4_St18_Manager_operation>:
100006a4:	2a01      	cmp	r2, #1
100006a6:	d102      	bne.n	100006ae <_ZNSt17_Function_handlerIFvvEZN7Genshin13startSequenceEvEUlvE1_E10_M_managerERSt9_Any_dataRKS4_St18_Manager_operation+0xa>
100006a8:	6001      	str	r1, [r0, #0]
100006aa:	2000      	movs	r0, #0
100006ac:	4770      	bx	lr
100006ae:	2a02      	cmp	r2, #2
100006b0:	d005      	beq.n	100006be <_ZNSt17_Function_handlerIFvvEZN7Genshin13startSequenceEvEUlvE1_E10_M_managerERSt9_Any_dataRKS4_St18_Manager_operation+0x1a>
100006b2:	2a03      	cmp	r2, #3
100006b4:	d0f9      	beq.n	100006aa <_ZNSt17_Function_handlerIFvvEZN7Genshin13startSequenceEvEUlvE1_E10_M_managerERSt9_Any_dataRKS4_St18_Manager_operation+0x6>
100006b6:	2a01      	cmp	r2, #1
100006b8:	d1f7      	bne.n	100006aa <_ZNSt17_Function_handlerIFvvEZN7Genshin13startSequenceEvEUlvE1_E10_M_managerERSt9_Any_dataRKS4_St18_Manager_operation+0x6>
100006ba:	6001      	str	r1, [r0, #0]
100006bc:	e7f5      	b.n	100006aa <_ZNSt17_Function_handlerIFvvEZN7Genshin13startSequenceEvEUlvE1_E10_M_managerERSt9_Any_dataRKS4_St18_Manager_operation+0x6>
100006be:	680b      	ldr	r3, [r1, #0]
100006c0:	6003      	str	r3, [r0, #0]
100006c2:	e7f2      	b.n	100006aa <_ZNSt17_Function_handlerIFvvEZN7Genshin13startSequenceEvEUlvE1_E10_M_managerERSt9_Any_dataRKS4_St18_Manager_operation+0x6>

100006c4 <_Z41__static_initialization_and_destruction_0ii>:
100006c4:	b5f0      	push	{r4, r5, r6, r7, lr}
100006c6:	46de      	mov	lr, fp
100006c8:	4657      	mov	r7, sl
100006ca:	464e      	mov	r6, r9
100006cc:	4645      	mov	r5, r8
100006ce:	b5e0      	push	{r5, r6, r7, lr}
100006d0:	b099      	sub	sp, #100	; 0x64
100006d2:	2801      	cmp	r0, #1
100006d4:	d006      	beq.n	100006e4 <_Z41__static_initialization_and_destruction_0ii+0x20>
100006d6:	b019      	add	sp, #100	; 0x64
100006d8:	bcf0      	pop	{r4, r5, r6, r7}
100006da:	46bb      	mov	fp, r7
100006dc:	46b2      	mov	sl, r6
100006de:	46a9      	mov	r9, r5
100006e0:	46a0      	mov	r8, r4
100006e2:	bdf0      	pop	{r4, r5, r6, r7, pc}
100006e4:	4b56      	ldr	r3, [pc, #344]	; (10000840 <_Z41__static_initialization_and_destruction_0ii+0x17c>)
100006e6:	4299      	cmp	r1, r3
100006e8:	d1f5      	bne.n	100006d6 <_Z41__static_initialization_and_destruction_0ii+0x12>
100006ea:	ab03      	add	r3, sp, #12
100006ec:	22d9      	movs	r2, #217	; 0xd9
100006ee:	9203      	str	r2, [sp, #12]
100006f0:	3a5d      	subs	r2, #93	; 0x5d
100006f2:	9204      	str	r2, [sp, #16]
100006f4:	3a36      	subs	r2, #54	; 0x36
100006f6:	9205      	str	r2, [sp, #20]
100006f8:	466c      	mov	r4, sp
100006fa:	0022      	movs	r2, r4
100006fc:	cb23      	ldmia	r3!, {r0, r1, r5}
100006fe:	c223      	stmia	r2!, {r0, r1, r5}
10000700:	4b50      	ldr	r3, [pc, #320]	; (10000844 <_Z41__static_initialization_and_destruction_0ii+0x180>)
10000702:	4699      	mov	r9, r3
10000704:	4a50      	ldr	r2, [pc, #320]	; (10000848 <_Z41__static_initialization_and_destruction_0ii+0x184>)
10000706:	c304      	stmia	r3!, {r2}
10000708:	0022      	movs	r2, r4
1000070a:	ca23      	ldmia	r2!, {r0, r1, r5}
1000070c:	c323      	stmia	r3!, {r0, r1, r5}
1000070e:	236d      	movs	r3, #109	; 0x6d
10000710:	9306      	str	r3, [sp, #24]
10000712:	3351      	adds	r3, #81	; 0x51
10000714:	9307      	str	r3, [sp, #28]
10000716:	332b      	adds	r3, #43	; 0x2b
10000718:	9308      	str	r3, [sp, #32]
1000071a:	3bdd      	subs	r3, #221	; 0xdd
1000071c:	469b      	mov	fp, r3
1000071e:	001a      	movs	r2, r3
10000720:	a906      	add	r1, sp, #24
10000722:	0020      	movs	r0, r4
10000724:	f00c fa6c 	bl	1000cc00 <__wrap___aeabi_memcpy>
10000728:	4b48      	ldr	r3, [pc, #288]	; (1000084c <_Z41__static_initialization_and_destruction_0ii+0x188>)
1000072a:	4698      	mov	r8, r3
1000072c:	4a48      	ldr	r2, [pc, #288]	; (10000850 <_Z41__static_initialization_and_destruction_0ii+0x18c>)
1000072e:	c304      	stmia	r3!, {r2}
10000730:	0022      	movs	r2, r4
10000732:	ca23      	ldmia	r2!, {r0, r1, r5}
10000734:	c323      	stmia	r3!, {r0, r1, r5}
10000736:	ab09      	add	r3, sp, #36	; 0x24
10000738:	227d      	movs	r2, #125	; 0x7d
1000073a:	9209      	str	r2, [sp, #36]	; 0x24
1000073c:	3234      	adds	r2, #52	; 0x34
1000073e:	920a      	str	r2, [sp, #40]	; 0x28
10000740:	3a14      	subs	r2, #20
10000742:	920b      	str	r2, [sp, #44]	; 0x2c
10000744:	0022      	movs	r2, r4
10000746:	cb23      	ldmia	r3!, {r0, r1, r5}
10000748:	c223      	stmia	r2!, {r0, r1, r5}
1000074a:	4f42      	ldr	r7, [pc, #264]	; (10000854 <_Z41__static_initialization_and_destruction_0ii+0x190>)
1000074c:	003b      	movs	r3, r7
1000074e:	4a42      	ldr	r2, [pc, #264]	; (10000858 <_Z41__static_initialization_and_destruction_0ii+0x194>)
10000750:	c304      	stmia	r3!, {r2}
10000752:	0022      	movs	r2, r4
10000754:	ca23      	ldmia	r2!, {r0, r1, r5}
10000756:	c323      	stmia	r3!, {r0, r1, r5}
10000758:	23a9      	movs	r3, #169	; 0xa9
1000075a:	930c      	str	r3, [sp, #48]	; 0x30
1000075c:	3b1b      	subs	r3, #27
1000075e:	930d      	str	r3, [sp, #52]	; 0x34
10000760:	332f      	adds	r3, #47	; 0x2f
10000762:	930e      	str	r3, [sp, #56]	; 0x38
10000764:	465a      	mov	r2, fp
10000766:	a90c      	add	r1, sp, #48	; 0x30
10000768:	0020      	movs	r0, r4
1000076a:	f00c fa49 	bl	1000cc00 <__wrap___aeabi_memcpy>
1000076e:	4e3b      	ldr	r6, [pc, #236]	; (1000085c <_Z41__static_initialization_and_destruction_0ii+0x198>)
10000770:	0033      	movs	r3, r6
10000772:	4a3b      	ldr	r2, [pc, #236]	; (10000860 <_Z41__static_initialization_and_destruction_0ii+0x19c>)
10000774:	c304      	stmia	r3!, {r2}
10000776:	0022      	movs	r2, r4
10000778:	ca23      	ldmia	r2!, {r0, r1, r5}
1000077a:	c323      	stmia	r3!, {r0, r1, r5}
1000077c:	ab0f      	add	r3, sp, #60	; 0x3c
1000077e:	22a7      	movs	r2, #167	; 0xa7
10000780:	920f      	str	r2, [sp, #60]	; 0x3c
10000782:	321a      	adds	r2, #26
10000784:	9210      	str	r2, [sp, #64]	; 0x40
10000786:	3a6f      	subs	r2, #111	; 0x6f
10000788:	9211      	str	r2, [sp, #68]	; 0x44
1000078a:	0022      	movs	r2, r4
1000078c:	cb23      	ldmia	r3!, {r0, r1, r5}
1000078e:	c223      	stmia	r2!, {r0, r1, r5}
10000790:	4b34      	ldr	r3, [pc, #208]	; (10000864 <_Z41__static_initialization_and_destruction_0ii+0x1a0>)
10000792:	4a35      	ldr	r2, [pc, #212]	; (10000868 <_Z41__static_initialization_and_destruction_0ii+0x1a4>)
10000794:	c304      	stmia	r3!, {r2}
10000796:	0022      	movs	r2, r4
10000798:	ca23      	ldmia	r2!, {r0, r1, r5}
1000079a:	c323      	stmia	r3!, {r0, r1, r5}
1000079c:	2385      	movs	r3, #133	; 0x85
1000079e:	9312      	str	r3, [sp, #72]	; 0x48
100007a0:	331e      	adds	r3, #30
100007a2:	9313      	str	r3, [sp, #76]	; 0x4c
100007a4:	3309      	adds	r3, #9
100007a6:	469a      	mov	sl, r3
100007a8:	9314      	str	r3, [sp, #80]	; 0x50
100007aa:	465a      	mov	r2, fp
100007ac:	a912      	add	r1, sp, #72	; 0x48
100007ae:	0020      	movs	r0, r4
100007b0:	f00c fa26 	bl	1000cc00 <__wrap___aeabi_memcpy>
100007b4:	4b2d      	ldr	r3, [pc, #180]	; (1000086c <_Z41__static_initialization_and_destruction_0ii+0x1a8>)
100007b6:	469c      	mov	ip, r3
100007b8:	4a2d      	ldr	r2, [pc, #180]	; (10000870 <_Z41__static_initialization_and_destruction_0ii+0x1ac>)
100007ba:	c304      	stmia	r3!, {r2}
100007bc:	0022      	movs	r2, r4
100007be:	ca23      	ldmia	r2!, {r0, r1, r5}
100007c0:	c323      	stmia	r3!, {r0, r1, r5}
100007c2:	ab15      	add	r3, sp, #84	; 0x54
100007c4:	22df      	movs	r2, #223	; 0xdf
100007c6:	9215      	str	r2, [sp, #84]	; 0x54
100007c8:	4652      	mov	r2, sl
100007ca:	9216      	str	r2, [sp, #88]	; 0x58
100007cc:	3a60      	subs	r2, #96	; 0x60
100007ce:	9217      	str	r2, [sp, #92]	; 0x5c
100007d0:	0022      	movs	r2, r4
100007d2:	cb23      	ldmia	r3!, {r0, r1, r5}
100007d4:	c223      	stmia	r2!, {r0, r1, r5}
100007d6:	4b27      	ldr	r3, [pc, #156]	; (10000874 <_Z41__static_initialization_and_destruction_0ii+0x1b0>)
100007d8:	469a      	mov	sl, r3
100007da:	4827      	ldr	r0, [pc, #156]	; (10000878 <_Z41__static_initialization_and_destruction_0ii+0x1b4>)
100007dc:	c301      	stmia	r3!, {r0}
100007de:	cc23      	ldmia	r4!, {r0, r1, r5}
100007e0:	c323      	stmia	r3!, {r0, r1, r5}
100007e2:	4b26      	ldr	r3, [pc, #152]	; (1000087c <_Z41__static_initialization_and_destruction_0ii+0x1b8>)
100007e4:	001c      	movs	r4, r3
100007e6:	4648      	mov	r0, r9
100007e8:	c826      	ldmia	r0!, {r1, r2, r5}
100007ea:	c426      	stmia	r4!, {r1, r2, r5}
100007ec:	6800      	ldr	r0, [r0, #0]
100007ee:	6020      	str	r0, [r4, #0]
100007f0:	3404      	adds	r4, #4
100007f2:	4640      	mov	r0, r8
100007f4:	c826      	ldmia	r0!, {r1, r2, r5}
100007f6:	c426      	stmia	r4!, {r1, r2, r5}
100007f8:	6800      	ldr	r0, [r0, #0]
100007fa:	6020      	str	r0, [r4, #0]
100007fc:	0018      	movs	r0, r3
100007fe:	3020      	adds	r0, #32
10000800:	cf16      	ldmia	r7!, {r1, r2, r4}
10000802:	c016      	stmia	r0!, {r1, r2, r4}
10000804:	683c      	ldr	r4, [r7, #0]
10000806:	6004      	str	r4, [r0, #0]
10000808:	0018      	movs	r0, r3
1000080a:	3030      	adds	r0, #48	; 0x30
1000080c:	ce16      	ldmia	r6!, {r1, r2, r4}
1000080e:	c016      	stmia	r0!, {r1, r2, r4}
10000810:	6834      	ldr	r4, [r6, #0]
10000812:	6004      	str	r4, [r0, #0]
10000814:	0018      	movs	r0, r3
10000816:	3040      	adds	r0, #64	; 0x40
10000818:	4d12      	ldr	r5, [pc, #72]	; (10000864 <_Z41__static_initialization_and_destruction_0ii+0x1a0>)
1000081a:	cd16      	ldmia	r5!, {r1, r2, r4}
1000081c:	c016      	stmia	r0!, {r1, r2, r4}
1000081e:	682c      	ldr	r4, [r5, #0]
10000820:	6004      	str	r4, [r0, #0]
10000822:	0018      	movs	r0, r3
10000824:	3050      	adds	r0, #80	; 0x50
10000826:	4661      	mov	r1, ip
10000828:	c934      	ldmia	r1!, {r2, r4, r5}
1000082a:	c034      	stmia	r0!, {r2, r4, r5}
1000082c:	6809      	ldr	r1, [r1, #0]
1000082e:	6001      	str	r1, [r0, #0]
10000830:	3360      	adds	r3, #96	; 0x60
10000832:	4652      	mov	r2, sl
10000834:	ca13      	ldmia	r2!, {r0, r1, r4}
10000836:	c313      	stmia	r3!, {r0, r1, r4}
10000838:	6812      	ldr	r2, [r2, #0]
1000083a:	601a      	str	r2, [r3, #0]
1000083c:	e74b      	b.n	100006d6 <_Z41__static_initialization_and_destruction_0ii+0x12>
1000083e:	46c0      	nop			; (mov r8, r8)
10000840:	0000ffff 	.word	0x0000ffff
10000844:	200024f4 	.word	0x200024f4
10000848:	1001c34c 	.word	0x1001c34c
1000084c:	20002534 	.word	0x20002534
10000850:	1001c354 	.word	0x1001c354
10000854:	20002514 	.word	0x20002514
10000858:	1001c35c 	.word	0x1001c35c
1000085c:	20002574 	.word	0x20002574
10000860:	1001c364 	.word	0x1001c364
10000864:	20002554 	.word	0x20002554
10000868:	1001c36c 	.word	0x1001c36c
1000086c:	200024d4 	.word	0x200024d4
10000870:	1001c374 	.word	0x1001c374
10000874:	200024b4 	.word	0x200024b4
10000878:	1001c37c 	.word	0x1001c37c
1000087c:	20002434 	.word	0x20002434

10000880 <_ZNSt8functionIFvvEEC1IZN7Genshin13startSequenceEvEUlvE0_vvEET_>:
10000880:	b084      	sub	sp, #16
10000882:	b570      	push	{r4, r5, r6, lr}
10000884:	0005      	movs	r5, r0
10000886:	ac05      	add	r4, sp, #20
10000888:	9105      	str	r1, [sp, #20]
1000088a:	9206      	str	r2, [sp, #24]
1000088c:	9307      	str	r3, [sp, #28]
1000088e:	2300      	movs	r3, #0
10000890:	6083      	str	r3, [r0, #8]
10000892:	2014      	movs	r0, #20
10000894:	f00c f9ba 	bl	1000cc0c <_Znwj>
10000898:	0003      	movs	r3, r0
1000089a:	cc46      	ldmia	r4!, {r1, r2, r6}
1000089c:	c346      	stmia	r3!, {r1, r2, r6}
1000089e:	cc06      	ldmia	r4!, {r1, r2}
100008a0:	c306      	stmia	r3!, {r1, r2}
100008a2:	6028      	str	r0, [r5, #0]
100008a4:	4b04      	ldr	r3, [pc, #16]	; (100008b8 <_ZNSt8functionIFvvEEC1IZN7Genshin13startSequenceEvEUlvE0_vvEET_+0x38>)
100008a6:	60eb      	str	r3, [r5, #12]
100008a8:	4b04      	ldr	r3, [pc, #16]	; (100008bc <_ZNSt8functionIFvvEEC1IZN7Genshin13startSequenceEvEUlvE0_vvEET_+0x3c>)
100008aa:	60ab      	str	r3, [r5, #8]
100008ac:	0028      	movs	r0, r5
100008ae:	bc70      	pop	{r4, r5, r6}
100008b0:	bc08      	pop	{r3}
100008b2:	b004      	add	sp, #16
100008b4:	4718      	bx	r3
100008b6:	46c0      	nop			; (mov r8, r8)
100008b8:	100013c5 	.word	0x100013c5
100008bc:	100008c1 	.word	0x100008c1

100008c0 <_ZNSt17_Function_handlerIFvvEZN7Genshin13startSequenceEvEUlvE0_E10_M_managerERSt9_Any_dataRKS4_St18_Manager_operation>:
100008c0:	b570      	push	{r4, r5, r6, lr}
100008c2:	0004      	movs	r4, r0
100008c4:	2a01      	cmp	r2, #1
100008c6:	d103      	bne.n	100008d0 <_ZNSt17_Function_handlerIFvvEZN7Genshin13startSequenceEvEUlvE0_E10_M_managerERSt9_Any_dataRKS4_St18_Manager_operation+0x10>
100008c8:	680b      	ldr	r3, [r1, #0]
100008ca:	6003      	str	r3, [r0, #0]
100008cc:	2000      	movs	r0, #0
100008ce:	bd70      	pop	{r4, r5, r6, pc}
100008d0:	2a02      	cmp	r2, #2
100008d2:	d006      	beq.n	100008e2 <_ZNSt17_Function_handlerIFvvEZN7Genshin13startSequenceEvEUlvE0_E10_M_managerERSt9_Any_dataRKS4_St18_Manager_operation+0x22>
100008d4:	2a03      	cmp	r2, #3
100008d6:	d00f      	beq.n	100008f8 <_ZNSt17_Function_handlerIFvvEZN7Genshin13startSequenceEvEUlvE0_E10_M_managerERSt9_Any_dataRKS4_St18_Manager_operation+0x38>
100008d8:	2a01      	cmp	r2, #1
100008da:	d1f7      	bne.n	100008cc <_ZNSt17_Function_handlerIFvvEZN7Genshin13startSequenceEvEUlvE0_E10_M_managerERSt9_Any_dataRKS4_St18_Manager_operation+0xc>
100008dc:	680b      	ldr	r3, [r1, #0]
100008de:	6003      	str	r3, [r0, #0]
100008e0:	e7f4      	b.n	100008cc <_ZNSt17_Function_handlerIFvvEZN7Genshin13startSequenceEvEUlvE0_E10_M_managerERSt9_Any_dataRKS4_St18_Manager_operation+0xc>
100008e2:	680d      	ldr	r5, [r1, #0]
100008e4:	2014      	movs	r0, #20
100008e6:	f00c f991 	bl	1000cc0c <_Znwj>
100008ea:	0003      	movs	r3, r0
100008ec:	cd46      	ldmia	r5!, {r1, r2, r6}
100008ee:	c346      	stmia	r3!, {r1, r2, r6}
100008f0:	cd06      	ldmia	r5!, {r1, r2}
100008f2:	c306      	stmia	r3!, {r1, r2}
100008f4:	6020      	str	r0, [r4, #0]
100008f6:	e7e9      	b.n	100008cc <_ZNSt17_Function_handlerIFvvEZN7Genshin13startSequenceEvEUlvE0_E10_M_managerERSt9_Any_dataRKS4_St18_Manager_operation+0xc>
100008f8:	6800      	ldr	r0, [r0, #0]
100008fa:	2800      	cmp	r0, #0
100008fc:	d0e6      	beq.n	100008cc <_ZNSt17_Function_handlerIFvvEZN7Genshin13startSequenceEvEUlvE0_E10_M_managerERSt9_Any_dataRKS4_St18_Manager_operation+0xc>
100008fe:	2114      	movs	r1, #20
10000900:	f00c f990 	bl	1000cc24 <_ZdlPvj>
10000904:	e7e2      	b.n	100008cc <_ZNSt17_Function_handlerIFvvEZN7Genshin13startSequenceEvEUlvE0_E10_M_managerERSt9_Any_dataRKS4_St18_Manager_operation+0xc>
	...

10000908 <_ZN7Genshin13startSequenceEv>:
10000908:	b5f0      	push	{r4, r5, r6, r7, lr}
1000090a:	b095      	sub	sp, #84	; 0x54
1000090c:	0005      	movs	r5, r0
1000090e:	482a      	ldr	r0, [pc, #168]	; (100009b8 <_ZN7Genshin13startSequenceEv+0xb0>)
10000910:	f00c f97c 	bl	1000cc0c <_Znwj>
10000914:	0004      	movs	r4, r0
10000916:	1d29      	adds	r1, r5, #4
10000918:	4b28      	ldr	r3, [pc, #160]	; (100009bc <_ZN7Genshin13startSequenceEv+0xb4>)
1000091a:	18ea      	adds	r2, r5, r3
1000091c:	2300      	movs	r3, #0
1000091e:	f006 fe39 	bl	10007594 <_ZN8SequenceC1ERN8pimoroni15GalacticUnicornERNS0_22PicoGraphics_PenRGB888Eh>
10000922:	602c      	str	r4, [r5, #0]
10000924:	0029      	movs	r1, r5
10000926:	a803      	add	r0, sp, #12
10000928:	f7ff fe94 	bl	10000654 <_ZNSt8functionIFvvEEC1IZN7Genshin13startSequenceEvEUlvE_vvEET_>
1000092c:	a903      	add	r1, sp, #12
1000092e:	0020      	movs	r0, r4
10000930:	f006 ffb8 	bl	100078a4 <_ZN8Sequence11addSequenceERKSt8functionIFvvEE>
10000934:	9b05      	ldr	r3, [sp, #20]
10000936:	2b00      	cmp	r3, #0
10000938:	d003      	beq.n	10000942 <_ZN7Genshin13startSequenceEv+0x3a>
1000093a:	2203      	movs	r2, #3
1000093c:	a903      	add	r1, sp, #12
1000093e:	0008      	movs	r0, r1
10000940:	4798      	blx	r3
10000942:	4c1f      	ldr	r4, [pc, #124]	; (100009c0 <_ZN7Genshin13startSequenceEv+0xb8>)
10000944:	e000      	b.n	10000948 <_ZN7Genshin13startSequenceEv+0x40>
10000946:	3410      	adds	r4, #16
10000948:	4b1d      	ldr	r3, [pc, #116]	; (100009c0 <_ZN7Genshin13startSequenceEv+0xb8>)
1000094a:	3370      	adds	r3, #112	; 0x70
1000094c:	429c      	cmp	r4, r3
1000094e:	d01d      	beq.n	1000098c <_ZN7Genshin13startSequenceEv+0x84>
10000950:	682e      	ldr	r6, [r5, #0]
10000952:	950b      	str	r5, [sp, #44]	; 0x2c
10000954:	ab0c      	add	r3, sp, #48	; 0x30
10000956:	0022      	movs	r2, r4
10000958:	ca83      	ldmia	r2!, {r0, r1, r7}
1000095a:	c383      	stmia	r3!, {r0, r1, r7}
1000095c:	6812      	ldr	r2, [r2, #0]
1000095e:	601a      	str	r2, [r3, #0]
10000960:	ab0e      	add	r3, sp, #56	; 0x38
10000962:	466a      	mov	r2, sp
10000964:	cb03      	ldmia	r3!, {r0, r1}
10000966:	c203      	stmia	r2!, {r0, r1}
10000968:	990b      	ldr	r1, [sp, #44]	; 0x2c
1000096a:	9a0c      	ldr	r2, [sp, #48]	; 0x30
1000096c:	9b0d      	ldr	r3, [sp, #52]	; 0x34
1000096e:	a807      	add	r0, sp, #28
10000970:	f7ff ff86 	bl	10000880 <_ZNSt8functionIFvvEEC1IZN7Genshin13startSequenceEvEUlvE0_vvEET_>
10000974:	a907      	add	r1, sp, #28
10000976:	0030      	movs	r0, r6
10000978:	f006 ff94 	bl	100078a4 <_ZN8Sequence11addSequenceERKSt8functionIFvvEE>
1000097c:	9b09      	ldr	r3, [sp, #36]	; 0x24
1000097e:	2b00      	cmp	r3, #0
10000980:	d0e1      	beq.n	10000946 <_ZN7Genshin13startSequenceEv+0x3e>
10000982:	2203      	movs	r2, #3
10000984:	a907      	add	r1, sp, #28
10000986:	0008      	movs	r0, r1
10000988:	4798      	blx	r3
1000098a:	e7dc      	b.n	10000946 <_ZN7Genshin13startSequenceEv+0x3e>
1000098c:	682c      	ldr	r4, [r5, #0]
1000098e:	0029      	movs	r1, r5
10000990:	a810      	add	r0, sp, #64	; 0x40
10000992:	f7ff fe6b 	bl	1000066c <_ZNSt8functionIFvvEEC1IZN7Genshin13startSequenceEvEUlvE1_vvEET_>
10000996:	a910      	add	r1, sp, #64	; 0x40
10000998:	0020      	movs	r0, r4
1000099a:	f006 ff83 	bl	100078a4 <_ZN8Sequence11addSequenceERKSt8functionIFvvEE>
1000099e:	9b12      	ldr	r3, [sp, #72]	; 0x48
100009a0:	2b00      	cmp	r3, #0
100009a2:	d003      	beq.n	100009ac <_ZN7Genshin13startSequenceEv+0xa4>
100009a4:	2203      	movs	r2, #3
100009a6:	a910      	add	r1, sp, #64	; 0x40
100009a8:	0008      	movs	r0, r1
100009aa:	4798      	blx	r3
100009ac:	6828      	ldr	r0, [r5, #0]
100009ae:	f006 fec1 	bl	10007734 <_ZN8Sequence5beginEv>
100009b2:	b015      	add	sp, #84	; 0x54
100009b4:	bdf0      	pop	{r4, r5, r6, r7, pc}
100009b6:	46c0      	nop			; (mov r8, r8)
100009b8:	00002a6c 	.word	0x00002a6c
100009bc:	00002a20 	.word	0x00002a20
100009c0:	20002434 	.word	0x20002434

100009c4 <_ZN7Genshin19checkSequenceButtonEv>:
100009c4:	b510      	push	{r4, lr}
100009c6:	0004      	movs	r4, r0
100009c8:	6800      	ldr	r0, [r0, #0]
100009ca:	f006 fe97 	bl	100076fc <_ZN8Sequence16checkButtonPressEv>
100009ce:	6820      	ldr	r0, [r4, #0]
100009d0:	f006 fe4a 	bl	10007668 <_ZN8Sequence4drawEv>
100009d4:	bd10      	pop	{r4, pc}

100009d6 <_ZNSt8__detail16_Hashtable_allocISaINS_10_Hash_nodeISt4pairIKNSt7__cxx1112basic_stringIcSt11char_traitsIcESaIcEEESt6vectorISA_I5ColorSaISB_EESaISD_EEELb1EEEEE21_M_deallocate_bucketsEPPNS_15_Hash_node_baseEj>:
100009d6:	b510      	push	{r4, lr}
100009d8:	0008      	movs	r0, r1
100009da:	0091      	lsls	r1, r2, #2
100009dc:	f00c f922 	bl	1000cc24 <_ZdlPvj>
100009e0:	bd10      	pop	{r4, pc}

100009e2 <_ZNSt8__detail16_Hashtable_allocISaINS_10_Hash_nodeISt4pairIKNSt7__cxx1112basic_stringIcSt11char_traitsIcESaIcEEEN8pimoroni5PointEELb1EEEEE21_M_deallocate_bucketsEPPNS_15_Hash_node_baseEj>:
100009e2:	b510      	push	{r4, lr}
100009e4:	0008      	movs	r0, r1
100009e6:	0091      	lsls	r1, r2, #2
100009e8:	f00c f91c 	bl	1000cc24 <_ZdlPvj>
100009ec:	bd10      	pop	{r4, pc}

100009ee <_ZNKSt10_HashtableINSt7__cxx1112basic_stringIcSt11char_traitsIcESaIcEEESt4pairIKS5_N8pimoroni5PointEESaISA_ENSt8__detail10_Select1stESt8equal_toIS5_ESt4hashIS5_ENSC_18_Mod_range_hashingENSC_20_Default_ranged_hashENSC_20_Prime_rehash_policyENSC_17_Hashtable_traitsILb1ELb0ELb1EEEE19_M_find_before_nodeEjRS7_j>:
100009ee:	b5f0      	push	{r4, r5, r6, r7, lr}
100009f0:	46d6      	mov	lr, sl
100009f2:	464f      	mov	r7, r9
100009f4:	4646      	mov	r6, r8
100009f6:	b5c0      	push	{r6, r7, lr}
100009f8:	0007      	movs	r7, r0
100009fa:	4688      	mov	r8, r1
100009fc:	4692      	mov	sl, r2
100009fe:	4699      	mov	r9, r3
10000a00:	008b      	lsls	r3, r1, #2
10000a02:	6802      	ldr	r2, [r0, #0]
10000a04:	58d6      	ldr	r6, [r2, r3]
10000a06:	2e00      	cmp	r6, #0
10000a08:	d026      	beq.n	10000a58 <_ZNKSt10_HashtableINSt7__cxx1112basic_stringIcSt11char_traitsIcESaIcEEESt4pairIKS5_N8pimoroni5PointEESaISA_ENSt8__detail10_Select1stESt8equal_toIS5_ESt4hashIS5_ENSC_18_Mod_range_hashingENSC_20_Default_ranged_hashENSC_20_Prime_rehash_policyENSC_17_Hashtable_traitsILb1ELb0ELb1EEEE19_M_find_before_nodeEjRS7_j+0x6a>
10000a0a:	6834      	ldr	r4, [r6, #0]
10000a0c:	e019      	b.n	10000a42 <_ZNKSt10_HashtableINSt7__cxx1112basic_stringIcSt11char_traitsIcESaIcEEESt4pairIKS5_N8pimoroni5PointEESaISA_ENSt8__detail10_Select1stESt8equal_toIS5_ESt4hashIS5_ENSC_18_Mod_range_hashingENSC_20_Default_ranged_hashENSC_20_Prime_rehash_policyENSC_17_Hashtable_traitsILb1ELb0ELb1EEEE19_M_find_before_nodeEjRS7_j+0x54>
10000a0e:	4653      	mov	r3, sl
10000a10:	6818      	ldr	r0, [r3, #0]
10000a12:	6861      	ldr	r1, [r4, #4]
10000a14:	2a00      	cmp	r2, #0
10000a16:	d005      	beq.n	10000a24 <_ZNKSt10_HashtableINSt7__cxx1112basic_stringIcSt11char_traitsIcESaIcEEESt4pairIKS5_N8pimoroni5PointEESaISA_ENSt8__detail10_Select1stESt8equal_toIS5_ESt4hashIS5_ENSC_18_Mod_range_hashingENSC_20_Default_ranged_hashENSC_20_Prime_rehash_policyENSC_17_Hashtable_traitsILb1ELb0ELb1EEEE19_M_find_before_nodeEjRS7_j+0x36>
10000a18:	f01a fae4 	bl	1001afe4 <memcmp>
10000a1c:	2800      	cmp	r0, #0
10000a1e:	d103      	bne.n	10000a28 <_ZNKSt10_HashtableINSt7__cxx1112basic_stringIcSt11char_traitsIcESaIcEEESt4pairIKS5_N8pimoroni5PointEESaISA_ENSt8__detail10_Select1stESt8equal_toIS5_ESt4hashIS5_ENSC_18_Mod_range_hashingENSC_20_Default_ranged_hashENSC_20_Prime_rehash_policyENSC_17_Hashtable_traitsILb1ELb0ELb1EEEE19_M_find_before_nodeEjRS7_j+0x3a>
10000a20:	2301      	movs	r3, #1
10000a22:	e017      	b.n	10000a54 <_ZNKSt10_HashtableINSt7__cxx1112basic_stringIcSt11char_traitsIcESaIcEEESt4pairIKS5_N8pimoroni5PointEESaISA_ENSt8__detail10_Select1stESt8equal_toIS5_ESt4hashIS5_ENSC_18_Mod_range_hashingENSC_20_Default_ranged_hashENSC_20_Prime_rehash_policyENSC_17_Hashtable_traitsILb1ELb0ELb1EEEE19_M_find_before_nodeEjRS7_j+0x66>
10000a24:	2301      	movs	r3, #1
10000a26:	e015      	b.n	10000a54 <_ZNKSt10_HashtableINSt7__cxx1112basic_stringIcSt11char_traitsIcESaIcEEESt4pairIKS5_N8pimoroni5PointEESaISA_ENSt8__detail10_Select1stESt8equal_toIS5_ESt4hashIS5_ENSC_18_Mod_range_hashingENSC_20_Default_ranged_hashENSC_20_Prime_rehash_policyENSC_17_Hashtable_traitsILb1ELb0ELb1EEEE19_M_find_before_nodeEjRS7_j+0x66>
10000a28:	2300      	movs	r3, #0
10000a2a:	e013      	b.n	10000a54 <_ZNKSt10_HashtableINSt7__cxx1112basic_stringIcSt11char_traitsIcESaIcEEESt4pairIKS5_N8pimoroni5PointEESaISA_ENSt8__detail10_Select1stESt8equal_toIS5_ESt4hashIS5_ENSC_18_Mod_range_hashingENSC_20_Default_ranged_hashENSC_20_Prime_rehash_policyENSC_17_Hashtable_traitsILb1ELb0ELb1EEEE19_M_find_before_nodeEjRS7_j+0x66>
10000a2c:	6825      	ldr	r5, [r4, #0]
10000a2e:	2d00      	cmp	r5, #0
10000a30:	d01a      	beq.n	10000a68 <_ZNKSt10_HashtableINSt7__cxx1112basic_stringIcSt11char_traitsIcESaIcEEESt4pairIKS5_N8pimoroni5PointEESaISA_ENSt8__detail10_Select1stESt8equal_toIS5_ESt4hashIS5_ENSC_18_Mod_range_hashingENSC_20_Default_ranged_hashENSC_20_Prime_rehash_policyENSC_17_Hashtable_traitsILb1ELb0ELb1EEEE19_M_find_before_nodeEjRS7_j+0x7a>
10000a32:	6879      	ldr	r1, [r7, #4]
10000a34:	6a68      	ldr	r0, [r5, #36]	; 0x24
10000a36:	f00a f905 	bl	1000ac44 <__wrap___aeabi_uidiv>
10000a3a:	0026      	movs	r6, r4
10000a3c:	4588      	cmp	r8, r1
10000a3e:	d111      	bne.n	10000a64 <_ZNKSt10_HashtableINSt7__cxx1112basic_stringIcSt11char_traitsIcESaIcEEESt4pairIKS5_N8pimoroni5PointEESaISA_ENSt8__detail10_Select1stESt8equal_toIS5_ESt4hashIS5_ENSC_18_Mod_range_hashingENSC_20_Default_ranged_hashENSC_20_Prime_rehash_policyENSC_17_Hashtable_traitsILb1ELb0ELb1EEEE19_M_find_before_nodeEjRS7_j+0x76>
10000a40:	002c      	movs	r4, r5
10000a42:	6a63      	ldr	r3, [r4, #36]	; 0x24
10000a44:	4599      	cmp	r9, r3
10000a46:	d1f1      	bne.n	10000a2c <_ZNKSt10_HashtableINSt7__cxx1112basic_stringIcSt11char_traitsIcESaIcEEESt4pairIKS5_N8pimoroni5PointEESaISA_ENSt8__detail10_Select1stESt8equal_toIS5_ESt4hashIS5_ENSC_18_Mod_range_hashingENSC_20_Default_ranged_hashENSC_20_Prime_rehash_policyENSC_17_Hashtable_traitsILb1ELb0ELb1EEEE19_M_find_before_nodeEjRS7_j+0x3e>
10000a48:	4653      	mov	r3, sl
10000a4a:	685a      	ldr	r2, [r3, #4]
10000a4c:	68a3      	ldr	r3, [r4, #8]
10000a4e:	429a      	cmp	r2, r3
10000a50:	d0dd      	beq.n	10000a0e <_ZNKSt10_HashtableINSt7__cxx1112basic_stringIcSt11char_traitsIcESaIcEEESt4pairIKS5_N8pimoroni5PointEESaISA_ENSt8__detail10_Select1stESt8equal_toIS5_ESt4hashIS5_ENSC_18_Mod_range_hashingENSC_20_Default_ranged_hashENSC_20_Prime_rehash_policyENSC_17_Hashtable_traitsILb1ELb0ELb1EEEE19_M_find_before_nodeEjRS7_j+0x20>
10000a52:	2300      	movs	r3, #0
10000a54:	2b00      	cmp	r3, #0
10000a56:	d0e9      	beq.n	10000a2c <_ZNKSt10_HashtableINSt7__cxx1112basic_stringIcSt11char_traitsIcESaIcEEESt4pairIKS5_N8pimoroni5PointEESaISA_ENSt8__detail10_Select1stESt8equal_toIS5_ESt4hashIS5_ENSC_18_Mod_range_hashingENSC_20_Default_ranged_hashENSC_20_Prime_rehash_policyENSC_17_Hashtable_traitsILb1ELb0ELb1EEEE19_M_find_before_nodeEjRS7_j+0x3e>
10000a58:	0030      	movs	r0, r6
10000a5a:	bce0      	pop	{r5, r6, r7}
10000a5c:	46ba      	mov	sl, r7
10000a5e:	46b1      	mov	r9, r6
10000a60:	46a8      	mov	r8, r5
10000a62:	bdf0      	pop	{r4, r5, r6, r7, pc}
10000a64:	2600      	movs	r6, #0
10000a66:	e7f7      	b.n	10000a58 <_ZNKSt10_HashtableINSt7__cxx1112basic_stringIcSt11char_traitsIcESaIcEEESt4pairIKS5_N8pimoroni5PointEESaISA_ENSt8__detail10_Select1stESt8equal_toIS5_ESt4hashIS5_ENSC_18_Mod_range_hashingENSC_20_Default_ranged_hashENSC_20_Prime_rehash_policyENSC_17_Hashtable_traitsILb1ELb0ELb1EEEE19_M_find_before_nodeEjRS7_j+0x6a>
10000a68:	002e      	movs	r6, r5
10000a6a:	e7f5      	b.n	10000a58 <_ZNKSt10_HashtableINSt7__cxx1112basic_stringIcSt11char_traitsIcESaIcEEESt4pairIKS5_N8pimoroni5PointEESaISA_ENSt8__detail10_Select1stESt8equal_toIS5_ESt4hashIS5_ENSC_18_Mod_range_hashingENSC_20_Default_ranged_hashENSC_20_Prime_rehash_policyENSC_17_Hashtable_traitsILb1ELb0ELb1EEEE19_M_find_before_nodeEjRS7_j+0x6a>

10000a6c <_ZNSt8__detail16_Hashtable_allocISaINS_10_Hash_nodeISt4pairIKNSt7__cxx1112basic_stringIcSt11char_traitsIcESaIcEEEN8pimoroni5PointEELb1EEEEE16_M_allocate_nodeIJRKSt21piecewise_construct_tSt5tupleIJOS8_EESK_IJEEEEEPSD_DpOT_>:
10000a6c:	b5f0      	push	{r4, r5, r6, r7, lr}
10000a6e:	b083      	sub	sp, #12
10000a70:	0014      	movs	r4, r2
10000a72:	2028      	movs	r0, #40	; 0x28
10000a74:	f00c f8ca 	bl	1000cc0c <_Znwj>
10000a78:	0005      	movs	r5, r0
10000a7a:	0006      	movs	r6, r0
10000a7c:	2300      	movs	r3, #0
10000a7e:	c608      	stmia	r6!, {r3}
10000a80:	6824      	ldr	r4, [r4, #0]
10000a82:	9401      	str	r4, [sp, #4]
10000a84:	300c      	adds	r0, #12
10000a86:	6068      	str	r0, [r5, #4]
10000a88:	6823      	ldr	r3, [r4, #0]
10000a8a:	0027      	movs	r7, r4
10000a8c:	3708      	adds	r7, #8
10000a8e:	42bb      	cmp	r3, r7
10000a90:	d00d      	beq.n	10000aae <_ZNSt8__detail16_Hashtable_allocISaINS_10_Hash_nodeISt4pairIKNSt7__cxx1112basic_stringIcSt11char_traitsIcESaIcEEEN8pimoroni5PointEELb1EEEEE16_M_allocate_nodeIJRKSt21piecewise_construct_tSt5tupleIJOS8_EESK_IJEEEEEPSD_DpOT_+0x42>
10000a92:	606b      	str	r3, [r5, #4]
10000a94:	68a3      	ldr	r3, [r4, #8]
10000a96:	60b3      	str	r3, [r6, #8]
10000a98:	6863      	ldr	r3, [r4, #4]
10000a9a:	6073      	str	r3, [r6, #4]
10000a9c:	6027      	str	r7, [r4, #0]
10000a9e:	2300      	movs	r3, #0
10000aa0:	6063      	str	r3, [r4, #4]
10000aa2:	7223      	strb	r3, [r4, #8]
10000aa4:	61b3      	str	r3, [r6, #24]
10000aa6:	61f3      	str	r3, [r6, #28]
10000aa8:	0028      	movs	r0, r5
10000aaa:	b003      	add	sp, #12
10000aac:	bdf0      	pop	{r4, r5, r6, r7, pc}
10000aae:	2210      	movs	r2, #16
10000ab0:	0039      	movs	r1, r7
10000ab2:	f00c f8a5 	bl	1000cc00 <__wrap___aeabi_memcpy>
10000ab6:	e7ef      	b.n	10000a98 <_ZNSt8__detail16_Hashtable_allocISaINS_10_Hash_nodeISt4pairIKNSt7__cxx1112basic_stringIcSt11char_traitsIcESaIcEEEN8pimoroni5PointEELb1EEEEE16_M_allocate_nodeIJRKSt21piecewise_construct_tSt5tupleIJOS8_EESK_IJEEEEEPSD_DpOT_+0x2c>

10000ab8 <_ZNSt10_HashtableINSt7__cxx1112basic_stringIcSt11char_traitsIcESaIcEEESt4pairIKS5_N8pimoroni5PointEESaISA_ENSt8__detail10_Select1stESt8equal_toIS5_ESt4hashIS5_ENSC_18_Mod_range_hashingENSC_20_Default_ranged_hashENSC_20_Prime_rehash_policyENSC_17_Hashtable_traitsILb1ELb0ELb1EEEE22_M_insert_bucket_beginEjPNSC_10_Hash_nodeISA_Lb1EEE>:
10000ab8:	b5f8      	push	{r3, r4, r5, r6, r7, lr}
10000aba:	0004      	movs	r4, r0
10000abc:	0016      	movs	r6, r2
10000abe:	008d      	lsls	r5, r1, #2
10000ac0:	6803      	ldr	r3, [r0, #0]
10000ac2:	595b      	ldr	r3, [r3, r5]
10000ac4:	2b00      	cmp	r3, #0
10000ac6:	d005      	beq.n	10000ad4 <_ZNSt10_HashtableINSt7__cxx1112basic_stringIcSt11char_traitsIcESaIcEEESt4pairIKS5_N8pimoroni5PointEESaISA_ENSt8__detail10_Select1stESt8equal_toIS5_ESt4hashIS5_ENSC_18_Mod_range_hashingENSC_20_Default_ranged_hashENSC_20_Prime_rehash_policyENSC_17_Hashtable_traitsILb1ELb0ELb1EEEE22_M_insert_bucket_beginEjPNSC_10_Hash_nodeISA_Lb1EEE+0x1c>
10000ac8:	681b      	ldr	r3, [r3, #0]
10000aca:	6013      	str	r3, [r2, #0]
10000acc:	6803      	ldr	r3, [r0, #0]
10000ace:	595b      	ldr	r3, [r3, r5]
10000ad0:	601a      	str	r2, [r3, #0]
10000ad2:	bdf8      	pop	{r3, r4, r5, r6, r7, pc}
10000ad4:	6883      	ldr	r3, [r0, #8]
10000ad6:	6013      	str	r3, [r2, #0]
10000ad8:	6082      	str	r2, [r0, #8]
10000ada:	6813      	ldr	r3, [r2, #0]
10000adc:	2b00      	cmp	r3, #0
10000ade:	d006      	beq.n	10000aee <_ZNSt10_HashtableINSt7__cxx1112basic_stringIcSt11char_traitsIcESaIcEEESt4pairIKS5_N8pimoroni5PointEESaISA_ENSt8__detail10_Select1stESt8equal_toIS5_ESt4hashIS5_ENSC_18_Mod_range_hashingENSC_20_Default_ranged_hashENSC_20_Prime_rehash_policyENSC_17_Hashtable_traitsILb1ELb0ELb1EEEE22_M_insert_bucket_beginEjPNSC_10_Hash_nodeISA_Lb1EEE+0x36>
10000ae0:	6807      	ldr	r7, [r0, #0]
10000ae2:	6a58      	ldr	r0, [r3, #36]	; 0x24
10000ae4:	6861      	ldr	r1, [r4, #4]
10000ae6:	f00a f8ad 	bl	1000ac44 <__wrap___aeabi_uidiv>
10000aea:	0089      	lsls	r1, r1, #2
10000aec:	507e      	str	r6, [r7, r1]
10000aee:	6823      	ldr	r3, [r4, #0]
10000af0:	3408      	adds	r4, #8
10000af2:	515c      	str	r4, [r3, r5]
10000af4:	e7ed      	b.n	10000ad2 <_ZNSt10_HashtableINSt7__cxx1112basic_stringIcSt11char_traitsIcESaIcEEESt4pairIKS5_N8pimoroni5PointEESaISA_ENSt8__detail10_Select1stESt8equal_toIS5_ESt4hashIS5_ENSC_18_Mod_range_hashingENSC_20_Default_ranged_hashENSC_20_Prime_rehash_policyENSC_17_Hashtable_traitsILb1ELb0ELb1EEEE22_M_insert_bucket_beginEjPNSC_10_Hash_nodeISA_Lb1EEE+0x1a>

10000af6 <_ZNKSt10_HashtableINSt7__cxx1112basic_stringIcSt11char_traitsIcESaIcEEESt4pairIKS5_St6vectorIS8_I5ColorSaIS9_EESaISB_EEESaISE_ENSt8__detail10_Select1stESt8equal_toIS5_ESt4hashIS5_ENSG_18_Mod_range_hashingENSG_20_Default_ranged_hashENSG_20_Prime_rehash_policyENSG_17_Hashtable_traitsILb1ELb0ELb1EEEE19_M_find_before_nodeEjRS7_j>:
10000af6:	b5f0      	push	{r4, r5, r6, r7, lr}
10000af8:	46d6      	mov	lr, sl
10000afa:	464f      	mov	r7, r9
10000afc:	4646      	mov	r6, r8
10000afe:	b5c0      	push	{r6, r7, lr}
10000b00:	0007      	movs	r7, r0
10000b02:	4688      	mov	r8, r1
10000b04:	4692      	mov	sl, r2
10000b06:	4699      	mov	r9, r3
10000b08:	008b      	lsls	r3, r1, #2
10000b0a:	6802      	ldr	r2, [r0, #0]
10000b0c:	58d6      	ldr	r6, [r2, r3]
10000b0e:	2e00      	cmp	r6, #0
10000b10:	d026      	beq.n	10000b60 <_ZNKSt10_HashtableINSt7__cxx1112basic_stringIcSt11char_traitsIcESaIcEEESt4pairIKS5_St6vectorIS8_I5ColorSaIS9_EESaISB_EEESaISE_ENSt8__detail10_Select1stESt8equal_toIS5_ESt4hashIS5_ENSG_18_Mod_range_hashingENSG_20_Default_ranged_hashENSG_20_Prime_rehash_policyENSG_17_Hashtable_traitsILb1ELb0ELb1EEEE19_M_find_before_nodeEjRS7_j+0x6a>
10000b12:	6834      	ldr	r4, [r6, #0]
10000b14:	e019      	b.n	10000b4a <_ZNKSt10_HashtableINSt7__cxx1112basic_stringIcSt11char_traitsIcESaIcEEESt4pairIKS5_St6vectorIS8_I5ColorSaIS9_EESaISB_EEESaISE_ENSt8__detail10_Select1stESt8equal_toIS5_ESt4hashIS5_ENSG_18_Mod_range_hashingENSG_20_Default_ranged_hashENSG_20_Prime_rehash_policyENSG_17_Hashtable_traitsILb1ELb0ELb1EEEE19_M_find_before_nodeEjRS7_j+0x54>
10000b16:	4653      	mov	r3, sl
10000b18:	6818      	ldr	r0, [r3, #0]
10000b1a:	6861      	ldr	r1, [r4, #4]
10000b1c:	2a00      	cmp	r2, #0
10000b1e:	d005      	beq.n	10000b2c <_ZNKSt10_HashtableINSt7__cxx1112basic_stringIcSt11char_traitsIcESaIcEEESt4pairIKS5_St6vectorIS8_I5ColorSaIS9_EESaISB_EEESaISE_ENSt8__detail10_Select1stESt8equal_toIS5_ESt4hashIS5_ENSG_18_Mod_range_hashingENSG_20_Default_ranged_hashENSG_20_Prime_rehash_policyENSG_17_Hashtable_traitsILb1ELb0ELb1EEEE19_M_find_before_nodeEjRS7_j+0x36>
10000b20:	f01a fa60 	bl	1001afe4 <memcmp>
10000b24:	2800      	cmp	r0, #0
10000b26:	d103      	bne.n	10000b30 <_ZNKSt10_HashtableINSt7__cxx1112basic_stringIcSt11char_traitsIcESaIcEEESt4pairIKS5_St6vectorIS8_I5ColorSaIS9_EESaISB_EEESaISE_ENSt8__detail10_Select1stESt8equal_toIS5_ESt4hashIS5_ENSG_18_Mod_range_hashingENSG_20_Default_ranged_hashENSG_20_Prime_rehash_policyENSG_17_Hashtable_traitsILb1ELb0ELb1EEEE19_M_find_before_nodeEjRS7_j+0x3a>
10000b28:	2301      	movs	r3, #1
10000b2a:	e017      	b.n	10000b5c <_ZNKSt10_HashtableINSt7__cxx1112basic_stringIcSt11char_traitsIcESaIcEEESt4pairIKS5_St6vectorIS8_I5ColorSaIS9_EESaISB_EEESaISE_ENSt8__detail10_Select1stESt8equal_toIS5_ESt4hashIS5_ENSG_18_Mod_range_hashingENSG_20_Default_ranged_hashENSG_20_Prime_rehash_policyENSG_17_Hashtable_traitsILb1ELb0ELb1EEEE19_M_find_before_nodeEjRS7_j+0x66>
10000b2c:	2301      	movs	r3, #1
10000b2e:	e015      	b.n	10000b5c <_ZNKSt10_HashtableINSt7__cxx1112basic_stringIcSt11char_traitsIcESaIcEEESt4pairIKS5_St6vectorIS8_I5ColorSaIS9_EESaISB_EEESaISE_ENSt8__detail10_Select1stESt8equal_toIS5_ESt4hashIS5_ENSG_18_Mod_range_hashingENSG_20_Default_ranged_hashENSG_20_Prime_rehash_policyENSG_17_Hashtable_traitsILb1ELb0ELb1EEEE19_M_find_before_nodeEjRS7_j+0x66>
10000b30:	2300      	movs	r3, #0
10000b32:	e013      	b.n	10000b5c <_ZNKSt10_HashtableINSt7__cxx1112basic_stringIcSt11char_traitsIcESaIcEEESt4pairIKS5_St6vectorIS8_I5ColorSaIS9_EESaISB_EEESaISE_ENSt8__detail10_Select1stESt8equal_toIS5_ESt4hashIS5_ENSG_18_Mod_range_hashingENSG_20_Default_ranged_hashENSG_20_Prime_rehash_policyENSG_17_Hashtable_traitsILb1ELb0ELb1EEEE19_M_find_before_nodeEjRS7_j+0x66>
10000b34:	6825      	ldr	r5, [r4, #0]
10000b36:	2d00      	cmp	r5, #0
10000b38:	d01a      	beq.n	10000b70 <_ZNKSt10_HashtableINSt7__cxx1112basic_stringIcSt11char_traitsIcESaIcEEESt4pairIKS5_St6vectorIS8_I5ColorSaIS9_EESaISB_EEESaISE_ENSt8__detail10_Select1stESt8equal_toIS5_ESt4hashIS5_ENSG_18_Mod_range_hashingENSG_20_Default_ranged_hashENSG_20_Prime_rehash_policyENSG_17_Hashtable_traitsILb1ELb0ELb1EEEE19_M_find_before_nodeEjRS7_j+0x7a>
10000b3a:	6879      	ldr	r1, [r7, #4]
10000b3c:	6aa8      	ldr	r0, [r5, #40]	; 0x28
10000b3e:	f00a f881 	bl	1000ac44 <__wrap___aeabi_uidiv>
10000b42:	0026      	movs	r6, r4
10000b44:	4588      	cmp	r8, r1
10000b46:	d111      	bne.n	10000b6c <_ZNKSt10_HashtableINSt7__cxx1112basic_stringIcSt11char_traitsIcESaIcEEESt4pairIKS5_St6vectorIS8_I5ColorSaIS9_EESaISB_EEESaISE_ENSt8__detail10_Select1stESt8equal_toIS5_ESt4hashIS5_ENSG_18_Mod_range_hashingENSG_20_Default_ranged_hashENSG_20_Prime_rehash_policyENSG_17_Hashtable_traitsILb1ELb0ELb1EEEE19_M_find_before_nodeEjRS7_j+0x76>
10000b48:	002c      	movs	r4, r5
10000b4a:	6aa3      	ldr	r3, [r4, #40]	; 0x28
10000b4c:	4599      	cmp	r9, r3
10000b4e:	d1f1      	bne.n	10000b34 <_ZNKSt10_HashtableINSt7__cxx1112basic_stringIcSt11char_traitsIcESaIcEEESt4pairIKS5_St6vectorIS8_I5ColorSaIS9_EESaISB_EEESaISE_ENSt8__detail10_Select1stESt8equal_toIS5_ESt4hashIS5_ENSG_18_Mod_range_hashingENSG_20_Default_ranged_hashENSG_20_Prime_rehash_policyENSG_17_Hashtable_traitsILb1ELb0ELb1EEEE19_M_find_before_nodeEjRS7_j+0x3e>
10000b50:	4653      	mov	r3, sl
10000b52:	685a      	ldr	r2, [r3, #4]
10000b54:	68a3      	ldr	r3, [r4, #8]
10000b56:	429a      	cmp	r2, r3
10000b58:	d0dd      	beq.n	10000b16 <_ZNKSt10_HashtableINSt7__cxx1112basic_stringIcSt11char_traitsIcESaIcEEESt4pairIKS5_St6vectorIS8_I5ColorSaIS9_EESaISB_EEESaISE_ENSt8__detail10_Select1stESt8equal_toIS5_ESt4hashIS5_ENSG_18_Mod_range_hashingENSG_20_Default_ranged_hashENSG_20_Prime_rehash_policyENSG_17_Hashtable_traitsILb1ELb0ELb1EEEE19_M_find_before_nodeEjRS7_j+0x20>
10000b5a:	2300      	movs	r3, #0
10000b5c:	2b00      	cmp	r3, #0
10000b5e:	d0e9      	beq.n	10000b34 <_ZNKSt10_HashtableINSt7__cxx1112basic_stringIcSt11char_traitsIcESaIcEEESt4pairIKS5_St6vectorIS8_I5ColorSaIS9_EESaISB_EEESaISE_ENSt8__detail10_Select1stESt8equal_toIS5_ESt4hashIS5_ENSG_18_Mod_range_hashingENSG_20_Default_ranged_hashENSG_20_Prime_rehash_policyENSG_17_Hashtable_traitsILb1ELb0ELb1EEEE19_M_find_before_nodeEjRS7_j+0x3e>
10000b60:	0030      	movs	r0, r6
10000b62:	bce0      	pop	{r5, r6, r7}
10000b64:	46ba      	mov	sl, r7
10000b66:	46b1      	mov	r9, r6
10000b68:	46a8      	mov	r8, r5
10000b6a:	bdf0      	pop	{r4, r5, r6, r7, pc}
10000b6c:	2600      	movs	r6, #0
10000b6e:	e7f7      	b.n	10000b60 <_ZNKSt10_HashtableINSt7__cxx1112basic_stringIcSt11char_traitsIcESaIcEEESt4pairIKS5_St6vectorIS8_I5ColorSaIS9_EESaISB_EEESaISE_ENSt8__detail10_Select1stESt8equal_toIS5_ESt4hashIS5_ENSG_18_Mod_range_hashingENSG_20_Default_ranged_hashENSG_20_Prime_rehash_policyENSG_17_Hashtable_traitsILb1ELb0ELb1EEEE19_M_find_before_nodeEjRS7_j+0x6a>
10000b70:	002e      	movs	r6, r5
10000b72:	e7f5      	b.n	10000b60 <_ZNKSt10_HashtableINSt7__cxx1112basic_stringIcSt11char_traitsIcESaIcEEESt4pairIKS5_St6vectorIS8_I5ColorSaIS9_EESaISB_EEESaISE_ENSt8__detail10_Select1stESt8equal_toIS5_ESt4hashIS5_ENSG_18_Mod_range_hashingENSG_20_Default_ranged_hashENSG_20_Prime_rehash_policyENSG_17_Hashtable_traitsILb1ELb0ELb1EEEE19_M_find_before_nodeEjRS7_j+0x6a>

10000b74 <_ZNSt8__detail16_Hashtable_allocISaINS_10_Hash_nodeISt4pairIKNSt7__cxx1112basic_stringIcSt11char_traitsIcESaIcEEESt6vectorISA_I5ColorSaISB_EESaISD_EEELb1EEEEE16_M_allocate_nodeIJRKSt21piecewise_construct_tSt5tupleIJOS8_EESO_IJEEEEEPSH_DpOT_>:
10000b74:	b5f0      	push	{r4, r5, r6, r7, lr}
10000b76:	b083      	sub	sp, #12
10000b78:	0015      	movs	r5, r2
10000b7a:	202c      	movs	r0, #44	; 0x2c
10000b7c:	f00c f846 	bl	1000cc0c <_Znwj>
10000b80:	0006      	movs	r6, r0
10000b82:	0004      	movs	r4, r0
10000b84:	2300      	movs	r3, #0
10000b86:	c408      	stmia	r4!, {r3}
10000b88:	682d      	ldr	r5, [r5, #0]
10000b8a:	9501      	str	r5, [sp, #4]
10000b8c:	300c      	adds	r0, #12
10000b8e:	6070      	str	r0, [r6, #4]
10000b90:	682b      	ldr	r3, [r5, #0]
10000b92:	002f      	movs	r7, r5
10000b94:	3708      	adds	r7, #8
10000b96:	42bb      	cmp	r3, r7
10000b98:	d014      	beq.n	10000bc4 <_ZNSt8__detail16_Hashtable_allocISaINS_10_Hash_nodeISt4pairIKNSt7__cxx1112basic_stringIcSt11char_traitsIcESaIcEEESt6vectorISA_I5ColorSaISB_EESaISD_EEELb1EEEEE16_M_allocate_nodeIJRKSt21piecewise_construct_tSt5tupleIJOS8_EESO_IJEEEEEPSH_DpOT_+0x50>
10000b9a:	6073      	str	r3, [r6, #4]
10000b9c:	68ab      	ldr	r3, [r5, #8]
10000b9e:	60a3      	str	r3, [r4, #8]
10000ba0:	686b      	ldr	r3, [r5, #4]
10000ba2:	6063      	str	r3, [r4, #4]
10000ba4:	602f      	str	r7, [r5, #0]
10000ba6:	2700      	movs	r7, #0
10000ba8:	606f      	str	r7, [r5, #4]
10000baa:	722f      	strb	r7, [r5, #8]
10000bac:	0020      	movs	r0, r4
10000bae:	3018      	adds	r0, #24
10000bb0:	220c      	movs	r2, #12
10000bb2:	2100      	movs	r1, #0
10000bb4:	f00c f81e 	bl	1000cbf4 <__wrap_memset>
10000bb8:	61a7      	str	r7, [r4, #24]
10000bba:	61e7      	str	r7, [r4, #28]
10000bbc:	6227      	str	r7, [r4, #32]
10000bbe:	0030      	movs	r0, r6
10000bc0:	b003      	add	sp, #12
10000bc2:	bdf0      	pop	{r4, r5, r6, r7, pc}
10000bc4:	2210      	movs	r2, #16
10000bc6:	0039      	movs	r1, r7
10000bc8:	f00c f81a 	bl	1000cc00 <__wrap___aeabi_memcpy>
10000bcc:	e7e8      	b.n	10000ba0 <_ZNSt8__detail16_Hashtable_allocISaINS_10_Hash_nodeISt4pairIKNSt7__cxx1112basic_stringIcSt11char_traitsIcESaIcEEESt6vectorISA_I5ColorSaISB_EESaISD_EEELb1EEEEE16_M_allocate_nodeIJRKSt21piecewise_construct_tSt5tupleIJOS8_EESO_IJEEEEEPSH_DpOT_+0x2c>

10000bce <_ZNSt10_HashtableINSt7__cxx1112basic_stringIcSt11char_traitsIcESaIcEEESt4pairIKS5_St6vectorIS8_I5ColorSaIS9_EESaISB_EEESaISE_ENSt8__detail10_Select1stESt8equal_toIS5_ESt4hashIS5_ENSG_18_Mod_range_hashingENSG_20_Default_ranged_hashENSG_20_Prime_rehash_policyENSG_17_Hashtable_traitsILb1ELb0ELb1EEEE22_M_insert_bucket_beginEjPNSG_10_Hash_nodeISE_Lb1EEE>:
10000bce:	b5f8      	push	{r3, r4, r5, r6, r7, lr}
10000bd0:	0004      	movs	r4, r0
10000bd2:	0016      	movs	r6, r2
10000bd4:	008d      	lsls	r5, r1, #2
10000bd6:	6803      	ldr	r3, [r0, #0]
10000bd8:	595b      	ldr	r3, [r3, r5]
10000bda:	2b00      	cmp	r3, #0
10000bdc:	d005      	beq.n	10000bea <_ZNSt10_HashtableINSt7__cxx1112basic_stringIcSt11char_traitsIcESaIcEEESt4pairIKS5_St6vectorIS8_I5ColorSaIS9_EESaISB_EEESaISE_ENSt8__detail10_Select1stESt8equal_toIS5_ESt4hashIS5_ENSG_18_Mod_range_hashingENSG_20_Default_ranged_hashENSG_20_Prime_rehash_policyENSG_17_Hashtable_traitsILb1ELb0ELb1EEEE22_M_insert_bucket_beginEjPNSG_10_Hash_nodeISE_Lb1EEE+0x1c>
10000bde:	681b      	ldr	r3, [r3, #0]
10000be0:	6013      	str	r3, [r2, #0]
10000be2:	6803      	ldr	r3, [r0, #0]
10000be4:	595b      	ldr	r3, [r3, r5]
10000be6:	601a      	str	r2, [r3, #0]
10000be8:	bdf8      	pop	{r3, r4, r5, r6, r7, pc}
10000bea:	6883      	ldr	r3, [r0, #8]
10000bec:	6013      	str	r3, [r2, #0]
10000bee:	6082      	str	r2, [r0, #8]
10000bf0:	6813      	ldr	r3, [r2, #0]
10000bf2:	2b00      	cmp	r3, #0
10000bf4:	d006      	beq.n	10000c04 <_ZNSt10_HashtableINSt7__cxx1112basic_stringIcSt11char_traitsIcESaIcEEESt4pairIKS5_St6vectorIS8_I5ColorSaIS9_EESaISB_EEESaISE_ENSt8__detail10_Select1stESt8equal_toIS5_ESt4hashIS5_ENSG_18_Mod_range_hashingENSG_20_Default_ranged_hashENSG_20_Prime_rehash_policyENSG_17_Hashtable_traitsILb1ELb0ELb1EEEE22_M_insert_bucket_beginEjPNSG_10_Hash_nodeISE_Lb1EEE+0x36>
10000bf6:	6807      	ldr	r7, [r0, #0]
10000bf8:	6a98      	ldr	r0, [r3, #40]	; 0x28
10000bfa:	6861      	ldr	r1, [r4, #4]
10000bfc:	f00a f822 	bl	1000ac44 <__wrap___aeabi_uidiv>
10000c00:	0089      	lsls	r1, r1, #2
10000c02:	507e      	str	r6, [r7, r1]
10000c04:	6823      	ldr	r3, [r4, #0]
10000c06:	3408      	adds	r4, #8
10000c08:	515c      	str	r4, [r3, r5]
10000c0a:	e7ed      	b.n	10000be8 <_ZNSt10_HashtableINSt7__cxx1112basic_stringIcSt11char_traitsIcESaIcEEESt4pairIKS5_St6vectorIS8_I5ColorSaIS9_EESaISB_EEESaISE_ENSt8__detail10_Select1stESt8equal_toIS5_ESt4hashIS5_ENSG_18_Mod_range_hashingENSG_20_Default_ranged_hashENSG_20_Prime_rehash_policyENSG_17_Hashtable_traitsILb1ELb0ELb1EEEE22_M_insert_bucket_beginEjPNSG_10_Hash_nodeISE_Lb1EEE+0x1a>

10000c0c <_ZNSt7__cxx1112basic_stringIcSt11char_traitsIcESaIcEE12_M_constructIPcEEvT_S7_St20forward_iterator_tag>:
10000c0c:	b570      	push	{r4, r5, r6, lr}
10000c0e:	b082      	sub	sp, #8
10000c10:	0005      	movs	r5, r0
10000c12:	1e0e      	subs	r6, r1, #0
10000c14:	d00d      	beq.n	10000c32 <_ZNSt7__cxx1112basic_stringIcSt11char_traitsIcESaIcEE12_M_constructIPcEEvT_S7_St20forward_iterator_tag+0x26>
10000c16:	1b94      	subs	r4, r2, r6
10000c18:	9401      	str	r4, [sp, #4]
10000c1a:	2c0f      	cmp	r4, #15
10000c1c:	d80e      	bhi.n	10000c3c <_ZNSt7__cxx1112basic_stringIcSt11char_traitsIcESaIcEE12_M_constructIPcEEvT_S7_St20forward_iterator_tag+0x30>
10000c1e:	6828      	ldr	r0, [r5, #0]
10000c20:	2c01      	cmp	r4, #1
10000c22:	d014      	beq.n	10000c4e <_ZNSt7__cxx1112basic_stringIcSt11char_traitsIcESaIcEE12_M_constructIPcEEvT_S7_St20forward_iterator_tag+0x42>
10000c24:	2c00      	cmp	r4, #0
10000c26:	d014      	beq.n	10000c52 <_ZNSt7__cxx1112basic_stringIcSt11char_traitsIcESaIcEE12_M_constructIPcEEvT_S7_St20forward_iterator_tag+0x46>
10000c28:	0022      	movs	r2, r4
10000c2a:	0031      	movs	r1, r6
10000c2c:	f00b ffe8 	bl	1000cc00 <__wrap___aeabi_memcpy>
10000c30:	e00f      	b.n	10000c52 <_ZNSt7__cxx1112basic_stringIcSt11char_traitsIcESaIcEE12_M_constructIPcEEvT_S7_St20forward_iterator_tag+0x46>
10000c32:	4291      	cmp	r1, r2
10000c34:	d0ef      	beq.n	10000c16 <_ZNSt7__cxx1112basic_stringIcSt11char_traitsIcESaIcEE12_M_constructIPcEEvT_S7_St20forward_iterator_tag+0xa>
10000c36:	480b      	ldr	r0, [pc, #44]	; (10000c64 <_ZNSt7__cxx1112basic_stringIcSt11char_traitsIcESaIcEE12_M_constructIPcEEvT_S7_St20forward_iterator_tag+0x58>)
10000c38:	f012 f998 	bl	10012f6c <_ZSt19__throw_logic_errorPKc>
10000c3c:	2200      	movs	r2, #0
10000c3e:	a901      	add	r1, sp, #4
10000c40:	0028      	movs	r0, r5
10000c42:	f012 fba3 	bl	1001338c <_ZNSt7__cxx1112basic_stringIcSt11char_traitsIcESaIcEE9_M_createERjj>
10000c46:	6028      	str	r0, [r5, #0]
10000c48:	9b01      	ldr	r3, [sp, #4]
10000c4a:	60ab      	str	r3, [r5, #8]
10000c4c:	e7e7      	b.n	10000c1e <_ZNSt7__cxx1112basic_stringIcSt11char_traitsIcESaIcEE12_M_constructIPcEEvT_S7_St20forward_iterator_tag+0x12>
10000c4e:	7833      	ldrb	r3, [r6, #0]
10000c50:	7003      	strb	r3, [r0, #0]
10000c52:	9a01      	ldr	r2, [sp, #4]
10000c54:	606a      	str	r2, [r5, #4]
10000c56:	682b      	ldr	r3, [r5, #0]
10000c58:	189b      	adds	r3, r3, r2
10000c5a:	2200      	movs	r2, #0
10000c5c:	701a      	strb	r2, [r3, #0]
10000c5e:	b002      	add	sp, #8
10000c60:	bd70      	pop	{r4, r5, r6, pc}
10000c62:	46c0      	nop			; (mov r8, r8)
10000c64:	1001c320 	.word	0x1001c320

10000c68 <_ZNSt8__detail16_Hashtable_allocISaINS_10_Hash_nodeISt4pairIKNSt7__cxx1112basic_stringIcSt11char_traitsIcESaIcEEESt6vectorISA_I5ColorSaISB_EESaISD_EEELb1EEEEE16_M_allocate_nodeIJRKSt21piecewise_construct_tSt5tupleIJRS9_EESO_IJEEEEEPSH_DpOT_>:
10000c68:	b5f0      	push	{r4, r5, r6, r7, lr}
10000c6a:	b083      	sub	sp, #12
10000c6c:	0017      	movs	r7, r2
10000c6e:	202c      	movs	r0, #44	; 0x2c
10000c70:	f00b ffcc 	bl	1000cc0c <_Znwj>
10000c74:	0004      	movs	r4, r0
10000c76:	2600      	movs	r6, #0
10000c78:	0005      	movs	r5, r0
10000c7a:	c540      	stmia	r5!, {r6}
10000c7c:	683b      	ldr	r3, [r7, #0]
10000c7e:	9301      	str	r3, [sp, #4]
10000c80:	0002      	movs	r2, r0
10000c82:	320c      	adds	r2, #12
10000c84:	6042      	str	r2, [r0, #4]
10000c86:	6819      	ldr	r1, [r3, #0]
10000c88:	685a      	ldr	r2, [r3, #4]
10000c8a:	188a      	adds	r2, r1, r2
10000c8c:	2300      	movs	r3, #0
10000c8e:	0028      	movs	r0, r5
10000c90:	f7ff ffbc 	bl	10000c0c <_ZNSt7__cxx1112basic_stringIcSt11char_traitsIcESaIcEE12_M_constructIPcEEvT_S7_St20forward_iterator_tag>
10000c94:	0020      	movs	r0, r4
10000c96:	301c      	adds	r0, #28
10000c98:	220c      	movs	r2, #12
10000c9a:	2100      	movs	r1, #0
10000c9c:	f00b ffaa 	bl	1000cbf4 <__wrap_memset>
10000ca0:	61ae      	str	r6, [r5, #24]
10000ca2:	61ee      	str	r6, [r5, #28]
10000ca4:	622e      	str	r6, [r5, #32]
10000ca6:	0020      	movs	r0, r4
10000ca8:	b003      	add	sp, #12
10000caa:	bdf0      	pop	{r4, r5, r6, r7, pc}

10000cac <_ZNSt8__detail16_Hashtable_allocISaINS_10_Hash_nodeISt4pairIKNSt7__cxx1112basic_stringIcSt11char_traitsIcESaIcEEEN8pimoroni5PointEELb1EEEEE19_M_allocate_bucketsEj>:
10000cac:	b570      	push	{r4, r5, r6, lr}
10000cae:	2380      	movs	r3, #128	; 0x80
10000cb0:	059b      	lsls	r3, r3, #22
10000cb2:	4299      	cmp	r1, r3
10000cb4:	d20a      	bcs.n	10000ccc <_ZNSt8__detail16_Hashtable_allocISaINS_10_Hash_nodeISt4pairIKNSt7__cxx1112basic_stringIcSt11char_traitsIcESaIcEEEN8pimoroni5PointEELb1EEEEE19_M_allocate_bucketsEj+0x20>
10000cb6:	008c      	lsls	r4, r1, #2
10000cb8:	0020      	movs	r0, r4
10000cba:	f00b ffa7 	bl	1000cc0c <_Znwj>
10000cbe:	0005      	movs	r5, r0
10000cc0:	0022      	movs	r2, r4
10000cc2:	2100      	movs	r1, #0
10000cc4:	f00b ff96 	bl	1000cbf4 <__wrap_memset>
10000cc8:	0028      	movs	r0, r5
10000cca:	bd70      	pop	{r4, r5, r6, pc}
10000ccc:	f012 f93e 	bl	10012f4c <_ZSt17__throw_bad_allocv>

10000cd0 <_ZNSt10_HashtableINSt7__cxx1112basic_stringIcSt11char_traitsIcESaIcEEESt4pairIKS5_N8pimoroni5PointEESaISA_ENSt8__detail10_Select1stESt8equal_toIS5_ESt4hashIS5_ENSC_18_Mod_range_hashingENSC_20_Default_ranged_hashENSC_20_Prime_rehash_policyENSC_17_Hashtable_traitsILb1ELb0ELb1EEEE13_M_rehash_auxEjSt17integral_constantIbLb1EE>:
10000cd0:	b5f8      	push	{r3, r4, r5, r6, r7, lr}
10000cd2:	46ce      	mov	lr, r9
10000cd4:	4647      	mov	r7, r8
10000cd6:	b580      	push	{r7, lr}
10000cd8:	0005      	movs	r5, r0
10000cda:	000f      	movs	r7, r1
10000cdc:	2901      	cmp	r1, #1
10000cde:	d007      	beq.n	10000cf0 <_ZNSt10_HashtableINSt7__cxx1112basic_stringIcSt11char_traitsIcESaIcEEESt4pairIKS5_N8pimoroni5PointEESaISA_ENSt8__detail10_Select1stESt8equal_toIS5_ESt4hashIS5_ENSC_18_Mod_range_hashingENSC_20_Default_ranged_hashENSC_20_Prime_rehash_policyENSC_17_Hashtable_traitsILb1ELb0ELb1EEEE13_M_rehash_auxEjSt17integral_constantIbLb1EE+0x20>
10000ce0:	f7ff ffe4 	bl	10000cac <_ZNSt8__detail16_Hashtable_allocISaINS_10_Hash_nodeISt4pairIKNSt7__cxx1112basic_stringIcSt11char_traitsIcESaIcEEEN8pimoroni5PointEELb1EEEEE19_M_allocate_bucketsEj>
10000ce4:	4680      	mov	r8, r0
10000ce6:	68ac      	ldr	r4, [r5, #8]
10000ce8:	2300      	movs	r3, #0
10000cea:	60ab      	str	r3, [r5, #8]
10000cec:	4699      	mov	r9, r3
10000cee:	e00c      	b.n	10000d0a <_ZNSt10_HashtableINSt7__cxx1112basic_stringIcSt11char_traitsIcESaIcEEESt4pairIKS5_N8pimoroni5PointEESaISA_ENSt8__detail10_Select1stESt8equal_toIS5_ESt4hashIS5_ENSC_18_Mod_range_hashingENSC_20_Default_ranged_hashENSC_20_Prime_rehash_policyENSC_17_Hashtable_traitsILb1ELb0ELb1EEEE13_M_rehash_auxEjSt17integral_constantIbLb1EE+0x3a>
10000cf0:	2300      	movs	r3, #0
10000cf2:	6183      	str	r3, [r0, #24]
10000cf4:	3318      	adds	r3, #24
10000cf6:	4698      	mov	r8, r3
10000cf8:	4480      	add	r8, r0
10000cfa:	e7f4      	b.n	10000ce6 <_ZNSt10_HashtableINSt7__cxx1112basic_stringIcSt11char_traitsIcESaIcEEESt4pairIKS5_N8pimoroni5PointEESaISA_ENSt8__detail10_Select1stESt8equal_toIS5_ESt4hashIS5_ENSC_18_Mod_range_hashingENSC_20_Default_ranged_hashENSC_20_Prime_rehash_policyENSC_17_Hashtable_traitsILb1ELb0ELb1EEEE13_M_rehash_auxEjSt17integral_constantIbLb1EE+0x16>
10000cfc:	4689      	mov	r9, r1
10000cfe:	e003      	b.n	10000d08 <_ZNSt10_HashtableINSt7__cxx1112basic_stringIcSt11char_traitsIcESaIcEEESt4pairIKS5_N8pimoroni5PointEESaISA_ENSt8__detail10_Select1stESt8equal_toIS5_ESt4hashIS5_ENSC_18_Mod_range_hashingENSC_20_Default_ranged_hashENSC_20_Prime_rehash_policyENSC_17_Hashtable_traitsILb1ELb0ELb1EEEE13_M_rehash_auxEjSt17integral_constantIbLb1EE+0x38>
10000d00:	6812      	ldr	r2, [r2, #0]
10000d02:	6022      	str	r2, [r4, #0]
10000d04:	681b      	ldr	r3, [r3, #0]
10000d06:	601c      	str	r4, [r3, #0]
10000d08:	0034      	movs	r4, r6
10000d0a:	2c00      	cmp	r4, #0
10000d0c:	d018      	beq.n	10000d40 <_ZNSt10_HashtableINSt7__cxx1112basic_stringIcSt11char_traitsIcESaIcEEESt4pairIKS5_N8pimoroni5PointEESaISA_ENSt8__detail10_Select1stESt8equal_toIS5_ESt4hashIS5_ENSC_18_Mod_range_hashingENSC_20_Default_ranged_hashENSC_20_Prime_rehash_policyENSC_17_Hashtable_traitsILb1ELb0ELb1EEEE13_M_rehash_auxEjSt17integral_constantIbLb1EE+0x70>
10000d0e:	6826      	ldr	r6, [r4, #0]
10000d10:	0039      	movs	r1, r7
10000d12:	6a60      	ldr	r0, [r4, #36]	; 0x24
10000d14:	f009 ff96 	bl	1000ac44 <__wrap___aeabi_uidiv>
10000d18:	008b      	lsls	r3, r1, #2
10000d1a:	4443      	add	r3, r8
10000d1c:	681a      	ldr	r2, [r3, #0]
10000d1e:	2a00      	cmp	r2, #0
10000d20:	d1ee      	bne.n	10000d00 <_ZNSt10_HashtableINSt7__cxx1112basic_stringIcSt11char_traitsIcESaIcEEESt4pairIKS5_N8pimoroni5PointEESaISA_ENSt8__detail10_Select1stESt8equal_toIS5_ESt4hashIS5_ENSC_18_Mod_range_hashingENSC_20_Default_ranged_hashENSC_20_Prime_rehash_policyENSC_17_Hashtable_traitsILb1ELb0ELb1EEEE13_M_rehash_auxEjSt17integral_constantIbLb1EE+0x30>
10000d22:	68aa      	ldr	r2, [r5, #8]
10000d24:	6022      	str	r2, [r4, #0]
10000d26:	60ac      	str	r4, [r5, #8]
10000d28:	002a      	movs	r2, r5
10000d2a:	3208      	adds	r2, #8
10000d2c:	601a      	str	r2, [r3, #0]
10000d2e:	6823      	ldr	r3, [r4, #0]
10000d30:	2b00      	cmp	r3, #0
10000d32:	d0e3      	beq.n	10000cfc <_ZNSt10_HashtableINSt7__cxx1112basic_stringIcSt11char_traitsIcESaIcEEESt4pairIKS5_N8pimoroni5PointEESaISA_ENSt8__detail10_Select1stESt8equal_toIS5_ESt4hashIS5_ENSC_18_Mod_range_hashingENSC_20_Default_ranged_hashENSC_20_Prime_rehash_policyENSC_17_Hashtable_traitsILb1ELb0ELb1EEEE13_M_rehash_auxEjSt17integral_constantIbLb1EE+0x2c>
10000d34:	464b      	mov	r3, r9
10000d36:	009b      	lsls	r3, r3, #2
10000d38:	4642      	mov	r2, r8
10000d3a:	50d4      	str	r4, [r2, r3]
10000d3c:	4689      	mov	r9, r1
10000d3e:	e7e3      	b.n	10000d08 <_ZNSt10_HashtableINSt7__cxx1112basic_stringIcSt11char_traitsIcESaIcEEESt4pairIKS5_N8pimoroni5PointEESaISA_ENSt8__detail10_Select1stESt8equal_toIS5_ESt4hashIS5_ENSC_18_Mod_range_hashingENSC_20_Default_ranged_hashENSC_20_Prime_rehash_policyENSC_17_Hashtable_traitsILb1ELb0ELb1EEEE13_M_rehash_auxEjSt17integral_constantIbLb1EE+0x38>
10000d40:	6829      	ldr	r1, [r5, #0]
10000d42:	686a      	ldr	r2, [r5, #4]
10000d44:	002b      	movs	r3, r5
10000d46:	3318      	adds	r3, #24
10000d48:	4299      	cmp	r1, r3
10000d4a:	d002      	beq.n	10000d52 <_ZNSt10_HashtableINSt7__cxx1112basic_stringIcSt11char_traitsIcESaIcEEESt4pairIKS5_N8pimoroni5PointEESaISA_ENSt8__detail10_Select1stESt8equal_toIS5_ESt4hashIS5_ENSC_18_Mod_range_hashingENSC_20_Default_ranged_hashENSC_20_Prime_rehash_policyENSC_17_Hashtable_traitsILb1ELb0ELb1EEEE13_M_rehash_auxEjSt17integral_constantIbLb1EE+0x82>
10000d4c:	0028      	movs	r0, r5
10000d4e:	f7ff fe48 	bl	100009e2 <_ZNSt8__detail16_Hashtable_allocISaINS_10_Hash_nodeISt4pairIKNSt7__cxx1112basic_stringIcSt11char_traitsIcESaIcEEEN8pimoroni5PointEELb1EEEEE21_M_deallocate_bucketsEPPNS_15_Hash_node_baseEj>
10000d52:	606f      	str	r7, [r5, #4]
10000d54:	4643      	mov	r3, r8
10000d56:	602b      	str	r3, [r5, #0]
10000d58:	bcc0      	pop	{r6, r7}
10000d5a:	46b9      	mov	r9, r7
10000d5c:	46b0      	mov	r8, r6
10000d5e:	bdf8      	pop	{r3, r4, r5, r6, r7, pc}

10000d60 <_ZNSt10_HashtableINSt7__cxx1112basic_stringIcSt11char_traitsIcESaIcEEESt4pairIKS5_N8pimoroni5PointEESaISA_ENSt8__detail10_Select1stESt8equal_toIS5_ESt4hashIS5_ENSC_18_Mod_range_hashingENSC_20_Default_ranged_hashENSC_20_Prime_rehash_policyENSC_17_Hashtable_traitsILb1ELb0ELb1EEEE9_M_rehashEjRKj>:
10000d60:	b510      	push	{r4, lr}
10000d62:	2200      	movs	r2, #0
10000d64:	f7ff ffb4 	bl	10000cd0 <_ZNSt10_HashtableINSt7__cxx1112basic_stringIcSt11char_traitsIcESaIcEEESt4pairIKS5_N8pimoroni5PointEESaISA_ENSt8__detail10_Select1stESt8equal_toIS5_ESt4hashIS5_ENSC_18_Mod_range_hashingENSC_20_Default_ranged_hashENSC_20_Prime_rehash_policyENSC_17_Hashtable_traitsILb1ELb0ELb1EEEE13_M_rehash_auxEjSt17integral_constantIbLb1EE>
10000d68:	bd10      	pop	{r4, pc}

10000d6a <_ZNSt10_HashtableINSt7__cxx1112basic_stringIcSt11char_traitsIcESaIcEEESt4pairIKS5_N8pimoroni5PointEESaISA_ENSt8__detail10_Select1stESt8equal_toIS5_ESt4hashIS5_ENSC_18_Mod_range_hashingENSC_20_Default_ranged_hashENSC_20_Prime_rehash_policyENSC_17_Hashtable_traitsILb1ELb0ELb1EEEE21_M_insert_unique_nodeERS7_jjPNSC_10_Hash_nodeISA_Lb1EEEj>:
10000d6a:	b5f0      	push	{r4, r5, r6, r7, lr}
10000d6c:	46c6      	mov	lr, r8
10000d6e:	b500      	push	{lr}
10000d70:	b086      	sub	sp, #24
10000d72:	0004      	movs	r4, r0
10000d74:	4690      	mov	r8, r2
10000d76:	001e      	movs	r6, r3
10000d78:	9f0c      	ldr	r7, [sp, #48]	; 0x30
10000d7a:	6943      	ldr	r3, [r0, #20]
10000d7c:	9305      	str	r3, [sp, #20]
10000d7e:	ad03      	add	r5, sp, #12
10000d80:	0001      	movs	r1, r0
10000d82:	3110      	adds	r1, #16
10000d84:	9b0d      	ldr	r3, [sp, #52]	; 0x34
10000d86:	9300      	str	r3, [sp, #0]
10000d88:	68c3      	ldr	r3, [r0, #12]
10000d8a:	6842      	ldr	r2, [r0, #4]
10000d8c:	0028      	movs	r0, r5
10000d8e:	f012 f9d5 	bl	1001313c <_ZNKSt8__detail20_Prime_rehash_policy14_M_need_rehashEjjj>
10000d92:	782b      	ldrb	r3, [r5, #0]
10000d94:	2b00      	cmp	r3, #0
10000d96:	d10d      	bne.n	10000db4 <_ZNSt10_HashtableINSt7__cxx1112basic_stringIcSt11char_traitsIcESaIcEEESt4pairIKS5_N8pimoroni5PointEESaISA_ENSt8__detail10_Select1stESt8equal_toIS5_ESt4hashIS5_ENSC_18_Mod_range_hashingENSC_20_Default_ranged_hashENSC_20_Prime_rehash_policyENSC_17_Hashtable_traitsILb1ELb0ELb1EEEE21_M_insert_unique_nodeERS7_jjPNSC_10_Hash_nodeISA_Lb1EEEj+0x4a>
10000d98:	627e      	str	r6, [r7, #36]	; 0x24
10000d9a:	003a      	movs	r2, r7
10000d9c:	4641      	mov	r1, r8
10000d9e:	0020      	movs	r0, r4
10000da0:	f7ff fe8a 	bl	10000ab8 <_ZNSt10_HashtableINSt7__cxx1112basic_stringIcSt11char_traitsIcESaIcEEESt4pairIKS5_N8pimoroni5PointEESaISA_ENSt8__detail10_Select1stESt8equal_toIS5_ESt4hashIS5_ENSC_18_Mod_range_hashingENSC_20_Default_ranged_hashENSC_20_Prime_rehash_policyENSC_17_Hashtable_traitsILb1ELb0ELb1EEEE22_M_insert_bucket_beginEjPNSC_10_Hash_nodeISA_Lb1EEE>
10000da4:	68e3      	ldr	r3, [r4, #12]
10000da6:	3301      	adds	r3, #1
10000da8:	60e3      	str	r3, [r4, #12]
10000daa:	0038      	movs	r0, r7
10000dac:	b006      	add	sp, #24
10000dae:	bc80      	pop	{r7}
10000db0:	46b8      	mov	r8, r7
10000db2:	bdf0      	pop	{r4, r5, r6, r7, pc}
10000db4:	aa05      	add	r2, sp, #20
10000db6:	9904      	ldr	r1, [sp, #16]
10000db8:	0020      	movs	r0, r4
10000dba:	f7ff ffd1 	bl	10000d60 <_ZNSt10_HashtableINSt7__cxx1112basic_stringIcSt11char_traitsIcESaIcEEESt4pairIKS5_N8pimoroni5PointEESaISA_ENSt8__detail10_Select1stESt8equal_toIS5_ESt4hashIS5_ENSC_18_Mod_range_hashingENSC_20_Default_ranged_hashENSC_20_Prime_rehash_policyENSC_17_Hashtable_traitsILb1ELb0ELb1EEEE9_M_rehashEjRKj>
10000dbe:	6861      	ldr	r1, [r4, #4]
10000dc0:	0030      	movs	r0, r6
10000dc2:	f009 ff3f 	bl	1000ac44 <__wrap___aeabi_uidiv>
10000dc6:	4688      	mov	r8, r1
10000dc8:	e7e6      	b.n	10000d98 <_ZNSt10_HashtableINSt7__cxx1112basic_stringIcSt11char_traitsIcESaIcEEESt4pairIKS5_N8pimoroni5PointEESaISA_ENSt8__detail10_Select1stESt8equal_toIS5_ESt4hashIS5_ENSC_18_Mod_range_hashingENSC_20_Default_ranged_hashENSC_20_Prime_rehash_policyENSC_17_Hashtable_traitsILb1ELb0ELb1EEEE21_M_insert_unique_nodeERS7_jjPNSC_10_Hash_nodeISA_Lb1EEEj+0x2e>
	...

10000dcc <_ZNSt8__detail9_Map_baseINSt7__cxx1112basic_stringIcSt11char_traitsIcESaIcEEESt4pairIKS6_N8pimoroni5PointEESaISB_ENS_10_Select1stESt8equal_toIS6_ESt4hashIS6_ENS_18_Mod_range_hashingENS_20_Default_ranged_hashENS_20_Prime_rehash_policyENS_17_Hashtable_traitsILb1ELb0ELb1EEELb1EEixEOS6_>:
10000dcc:	b5f0      	push	{r4, r5, r6, r7, lr}
10000dce:	b087      	sub	sp, #28
10000dd0:	0005      	movs	r5, r0
10000dd2:	000c      	movs	r4, r1
10000dd4:	4a16      	ldr	r2, [pc, #88]	; (10000e30 <_ZNSt8__detail9_Map_baseINSt7__cxx1112basic_stringIcSt11char_traitsIcESaIcEEESt4pairIKS6_N8pimoroni5PointEESaISB_ENS_10_Select1stESt8equal_toIS6_ESt4hashIS6_ENS_18_Mod_range_hashingENS_20_Default_ranged_hashENS_20_Prime_rehash_policyENS_17_Hashtable_traitsILb1ELb0ELb1EEELb1EEixEOS6_+0x64>)
10000dd6:	6849      	ldr	r1, [r1, #4]
10000dd8:	6820      	ldr	r0, [r4, #0]
10000dda:	f011 fe37 	bl	10012a4c <_ZSt11_Hash_bytesPKvjj>
10000dde:	0006      	movs	r6, r0
10000de0:	6869      	ldr	r1, [r5, #4]
10000de2:	f009 ff2f 	bl	1000ac44 <__wrap___aeabi_uidiv>
10000de6:	000f      	movs	r7, r1
10000de8:	0033      	movs	r3, r6
10000dea:	0022      	movs	r2, r4
10000dec:	0028      	movs	r0, r5
10000dee:	f7ff fdfe 	bl	100009ee <_ZNKSt10_HashtableINSt7__cxx1112basic_stringIcSt11char_traitsIcESaIcEEESt4pairIKS5_N8pimoroni5PointEESaISA_ENSt8__detail10_Select1stESt8equal_toIS5_ESt4hashIS5_ENSC_18_Mod_range_hashingENSC_20_Default_ranged_hashENSC_20_Prime_rehash_policyENSC_17_Hashtable_traitsILb1ELb0ELb1EEEE19_M_find_before_nodeEjRS7_j>
10000df2:	2800      	cmp	r0, #0
10000df4:	d005      	beq.n	10000e02 <_ZNSt8__detail9_Map_baseINSt7__cxx1112basic_stringIcSt11char_traitsIcESaIcEEESt4pairIKS6_N8pimoroni5PointEESaISB_ENS_10_Select1stESt8equal_toIS6_ESt4hashIS6_ENS_18_Mod_range_hashingENS_20_Default_ranged_hashENS_20_Prime_rehash_policyENS_17_Hashtable_traitsILb1ELb0ELb1EEELb1EEixEOS6_+0x36>
10000df6:	6800      	ldr	r0, [r0, #0]
10000df8:	2800      	cmp	r0, #0
10000dfa:	d002      	beq.n	10000e02 <_ZNSt8__detail9_Map_baseINSt7__cxx1112basic_stringIcSt11char_traitsIcESaIcEEESt4pairIKS6_N8pimoroni5PointEESaISB_ENS_10_Select1stESt8equal_toIS6_ESt4hashIS6_ENS_18_Mod_range_hashingENS_20_Default_ranged_hashENS_20_Prime_rehash_policyENS_17_Hashtable_traitsILb1ELb0ELb1EEELb1EEixEOS6_+0x36>
10000dfc:	301c      	adds	r0, #28
10000dfe:	b007      	add	sp, #28
10000e00:	bdf0      	pop	{r4, r5, r6, r7, pc}
10000e02:	9404      	str	r4, [sp, #16]
10000e04:	9502      	str	r5, [sp, #8]
10000e06:	ab05      	add	r3, sp, #20
10000e08:	aa04      	add	r2, sp, #16
10000e0a:	490a      	ldr	r1, [pc, #40]	; (10000e34 <_ZNSt8__detail9_Map_baseINSt7__cxx1112basic_stringIcSt11char_traitsIcESaIcEEESt4pairIKS6_N8pimoroni5PointEESaISB_ENS_10_Select1stESt8equal_toIS6_ESt4hashIS6_ENS_18_Mod_range_hashingENS_20_Default_ranged_hashENS_20_Prime_rehash_policyENS_17_Hashtable_traitsILb1ELb0ELb1EEELb1EEixEOS6_+0x68>)
10000e0c:	0028      	movs	r0, r5
10000e0e:	f7ff fe2d 	bl	10000a6c <_ZNSt8__detail16_Hashtable_allocISaINS_10_Hash_nodeISt4pairIKNSt7__cxx1112basic_stringIcSt11char_traitsIcESaIcEEEN8pimoroni5PointEELb1EEEEE16_M_allocate_nodeIJRKSt21piecewise_construct_tSt5tupleIJOS8_EESK_IJEEEEEPSD_DpOT_>
10000e12:	9003      	str	r0, [sp, #12]
10000e14:	2301      	movs	r3, #1
10000e16:	9301      	str	r3, [sp, #4]
10000e18:	9000      	str	r0, [sp, #0]
10000e1a:	0033      	movs	r3, r6
10000e1c:	003a      	movs	r2, r7
10000e1e:	0021      	movs	r1, r4
10000e20:	0028      	movs	r0, r5
10000e22:	f7ff ffa2 	bl	10000d6a <_ZNSt10_HashtableINSt7__cxx1112basic_stringIcSt11char_traitsIcESaIcEEESt4pairIKS5_N8pimoroni5PointEESaISA_ENSt8__detail10_Select1stESt8equal_toIS5_ESt4hashIS5_ENSC_18_Mod_range_hashingENSC_20_Default_ranged_hashENSC_20_Prime_rehash_policyENSC_17_Hashtable_traitsILb1ELb0ELb1EEEE21_M_insert_unique_nodeERS7_jjPNSC_10_Hash_nodeISA_Lb1EEEj>
10000e26:	2300      	movs	r3, #0
10000e28:	9303      	str	r3, [sp, #12]
10000e2a:	301c      	adds	r0, #28
10000e2c:	e7e7      	b.n	10000dfe <_ZNSt8__detail9_Map_baseINSt7__cxx1112basic_stringIcSt11char_traitsIcESaIcEEESt4pairIKS6_N8pimoroni5PointEESaISB_ENS_10_Select1stESt8equal_toIS6_ESt4hashIS6_ENS_18_Mod_range_hashingENS_20_Default_ranged_hashENS_20_Prime_rehash_policyENS_17_Hashtable_traitsILb1ELb0ELb1EEELb1EEixEOS6_+0x32>
10000e2e:	46c0      	nop			; (mov r8, r8)
10000e30:	c70f6907 	.word	0xc70f6907
10000e34:	1001c3c8 	.word	0x1001c3c8

10000e38 <_ZNSt8__detail16_Hashtable_allocISaINS_10_Hash_nodeISt4pairIKNSt7__cxx1112basic_stringIcSt11char_traitsIcESaIcEEESt6vectorISA_I5ColorSaISB_EESaISD_EEELb1EEEEE19_M_allocate_bucketsEj>:
10000e38:	b570      	push	{r4, r5, r6, lr}
10000e3a:	2380      	movs	r3, #128	; 0x80
10000e3c:	059b      	lsls	r3, r3, #22
10000e3e:	4299      	cmp	r1, r3
10000e40:	d20a      	bcs.n	10000e58 <_ZNSt8__detail16_Hashtable_allocISaINS_10_Hash_nodeISt4pairIKNSt7__cxx1112basic_stringIcSt11char_traitsIcESaIcEEESt6vectorISA_I5ColorSaISB_EESaISD_EEELb1EEEEE19_M_allocate_bucketsEj+0x20>
10000e42:	008c      	lsls	r4, r1, #2
10000e44:	0020      	movs	r0, r4
10000e46:	f00b fee1 	bl	1000cc0c <_Znwj>
10000e4a:	0005      	movs	r5, r0
10000e4c:	0022      	movs	r2, r4
10000e4e:	2100      	movs	r1, #0
10000e50:	f00b fed0 	bl	1000cbf4 <__wrap_memset>
10000e54:	0028      	movs	r0, r5
10000e56:	bd70      	pop	{r4, r5, r6, pc}
10000e58:	f012 f878 	bl	10012f4c <_ZSt17__throw_bad_allocv>

10000e5c <_ZNSt10_HashtableINSt7__cxx1112basic_stringIcSt11char_traitsIcESaIcEEESt4pairIKS5_St6vectorIS8_I5ColorSaIS9_EESaISB_EEESaISE_ENSt8__detail10_Select1stESt8equal_toIS5_ESt4hashIS5_ENSG_18_Mod_range_hashingENSG_20_Default_ranged_hashENSG_20_Prime_rehash_policyENSG_17_Hashtable_traitsILb1ELb0ELb1EEEE13_M_rehash_auxEjSt17integral_constantIbLb1EE>:
10000e5c:	b5f8      	push	{r3, r4, r5, r6, r7, lr}
10000e5e:	46ce      	mov	lr, r9
10000e60:	4647      	mov	r7, r8
10000e62:	b580      	push	{r7, lr}
10000e64:	0005      	movs	r5, r0
10000e66:	000f      	movs	r7, r1
10000e68:	2901      	cmp	r1, #1
10000e6a:	d007      	beq.n	10000e7c <_ZNSt10_HashtableINSt7__cxx1112basic_stringIcSt11char_traitsIcESaIcEEESt4pairIKS5_St6vectorIS8_I5ColorSaIS9_EESaISB_EEESaISE_ENSt8__detail10_Select1stESt8equal_toIS5_ESt4hashIS5_ENSG_18_Mod_range_hashingENSG_20_Default_ranged_hashENSG_20_Prime_rehash_policyENSG_17_Hashtable_traitsILb1ELb0ELb1EEEE13_M_rehash_auxEjSt17integral_constantIbLb1EE+0x20>
10000e6c:	f7ff ffe4 	bl	10000e38 <_ZNSt8__detail16_Hashtable_allocISaINS_10_Hash_nodeISt4pairIKNSt7__cxx1112basic_stringIcSt11char_traitsIcESaIcEEESt6vectorISA_I5ColorSaISB_EESaISD_EEELb1EEEEE19_M_allocate_bucketsEj>
10000e70:	4680      	mov	r8, r0
10000e72:	68ac      	ldr	r4, [r5, #8]
10000e74:	2300      	movs	r3, #0
10000e76:	60ab      	str	r3, [r5, #8]
10000e78:	4699      	mov	r9, r3
10000e7a:	e00c      	b.n	10000e96 <_ZNSt10_HashtableINSt7__cxx1112basic_stringIcSt11char_traitsIcESaIcEEESt4pairIKS5_St6vectorIS8_I5ColorSaIS9_EESaISB_EEESaISE_ENSt8__detail10_Select1stESt8equal_toIS5_ESt4hashIS5_ENSG_18_Mod_range_hashingENSG_20_Default_ranged_hashENSG_20_Prime_rehash_policyENSG_17_Hashtable_traitsILb1ELb0ELb1EEEE13_M_rehash_auxEjSt17integral_constantIbLb1EE+0x3a>
10000e7c:	2300      	movs	r3, #0
10000e7e:	6183      	str	r3, [r0, #24]
10000e80:	3318      	adds	r3, #24
10000e82:	4698      	mov	r8, r3
10000e84:	4480      	add	r8, r0
10000e86:	e7f4      	b.n	10000e72 <_ZNSt10_HashtableINSt7__cxx1112basic_stringIcSt11char_traitsIcESaIcEEESt4pairIKS5_St6vectorIS8_I5ColorSaIS9_EESaISB_EEESaISE_ENSt8__detail10_Select1stESt8equal_toIS5_ESt4hashIS5_ENSG_18_Mod_range_hashingENSG_20_Default_ranged_hashENSG_20_Prime_rehash_policyENSG_17_Hashtable_traitsILb1ELb0ELb1EEEE13_M_rehash_auxEjSt17integral_constantIbLb1EE+0x16>
10000e88:	4689      	mov	r9, r1
10000e8a:	e003      	b.n	10000e94 <_ZNSt10_HashtableINSt7__cxx1112basic_stringIcSt11char_traitsIcESaIcEEESt4pairIKS5_St6vectorIS8_I5ColorSaIS9_EESaISB_EEESaISE_ENSt8__detail10_Select1stESt8equal_toIS5_ESt4hashIS5_ENSG_18_Mod_range_hashingENSG_20_Default_ranged_hashENSG_20_Prime_rehash_policyENSG_17_Hashtable_traitsILb1ELb0ELb1EEEE13_M_rehash_auxEjSt17integral_constantIbLb1EE+0x38>
10000e8c:	6812      	ldr	r2, [r2, #0]
10000e8e:	6022      	str	r2, [r4, #0]
10000e90:	681b      	ldr	r3, [r3, #0]
10000e92:	601c      	str	r4, [r3, #0]
10000e94:	0034      	movs	r4, r6
10000e96:	2c00      	cmp	r4, #0
10000e98:	d018      	beq.n	10000ecc <_ZNSt10_HashtableINSt7__cxx1112basic_stringIcSt11char_traitsIcESaIcEEESt4pairIKS5_St6vectorIS8_I5ColorSaIS9_EESaISB_EEESaISE_ENSt8__detail10_Select1stESt8equal_toIS5_ESt4hashIS5_ENSG_18_Mod_range_hashingENSG_20_Default_ranged_hashENSG_20_Prime_rehash_policyENSG_17_Hashtable_traitsILb1ELb0ELb1EEEE13_M_rehash_auxEjSt17integral_constantIbLb1EE+0x70>
10000e9a:	6826      	ldr	r6, [r4, #0]
10000e9c:	0039      	movs	r1, r7
10000e9e:	6aa0      	ldr	r0, [r4, #40]	; 0x28
10000ea0:	f009 fed0 	bl	1000ac44 <__wrap___aeabi_uidiv>
10000ea4:	008b      	lsls	r3, r1, #2
10000ea6:	4443      	add	r3, r8
10000ea8:	681a      	ldr	r2, [r3, #0]
10000eaa:	2a00      	cmp	r2, #0
10000eac:	d1ee      	bne.n	10000e8c <_ZNSt10_HashtableINSt7__cxx1112basic_stringIcSt11char_traitsIcESaIcEEESt4pairIKS5_St6vectorIS8_I5ColorSaIS9_EESaISB_EEESaISE_ENSt8__detail10_Select1stESt8equal_toIS5_ESt4hashIS5_ENSG_18_Mod_range_hashingENSG_20_Default_ranged_hashENSG_20_Prime_rehash_policyENSG_17_Hashtable_traitsILb1ELb0ELb1EEEE13_M_rehash_auxEjSt17integral_constantIbLb1EE+0x30>
10000eae:	68aa      	ldr	r2, [r5, #8]
10000eb0:	6022      	str	r2, [r4, #0]
10000eb2:	60ac      	str	r4, [r5, #8]
10000eb4:	002a      	movs	r2, r5
10000eb6:	3208      	adds	r2, #8
10000eb8:	601a      	str	r2, [r3, #0]
10000eba:	6823      	ldr	r3, [r4, #0]
10000ebc:	2b00      	cmp	r3, #0
10000ebe:	d0e3      	beq.n	10000e88 <_ZNSt10_HashtableINSt7__cxx1112basic_stringIcSt11char_traitsIcESaIcEEESt4pairIKS5_St6vectorIS8_I5ColorSaIS9_EESaISB_EEESaISE_ENSt8__detail10_Select1stESt8equal_toIS5_ESt4hashIS5_ENSG_18_Mod_range_hashingENSG_20_Default_ranged_hashENSG_20_Prime_rehash_policyENSG_17_Hashtable_traitsILb1ELb0ELb1EEEE13_M_rehash_auxEjSt17integral_constantIbLb1EE+0x2c>
10000ec0:	464b      	mov	r3, r9
10000ec2:	009b      	lsls	r3, r3, #2
10000ec4:	4642      	mov	r2, r8
10000ec6:	50d4      	str	r4, [r2, r3]
10000ec8:	4689      	mov	r9, r1
10000eca:	e7e3      	b.n	10000e94 <_ZNSt10_HashtableINSt7__cxx1112basic_stringIcSt11char_traitsIcESaIcEEESt4pairIKS5_St6vectorIS8_I5ColorSaIS9_EESaISB_EEESaISE_ENSt8__detail10_Select1stESt8equal_toIS5_ESt4hashIS5_ENSG_18_Mod_range_hashingENSG_20_Default_ranged_hashENSG_20_Prime_rehash_policyENSG_17_Hashtable_traitsILb1ELb0ELb1EEEE13_M_rehash_auxEjSt17integral_constantIbLb1EE+0x38>
10000ecc:	6829      	ldr	r1, [r5, #0]
10000ece:	686a      	ldr	r2, [r5, #4]
10000ed0:	002b      	movs	r3, r5
10000ed2:	3318      	adds	r3, #24
10000ed4:	4299      	cmp	r1, r3
10000ed6:	d002      	beq.n	10000ede <_ZNSt10_HashtableINSt7__cxx1112basic_stringIcSt11char_traitsIcESaIcEEESt4pairIKS5_St6vectorIS8_I5ColorSaIS9_EESaISB_EEESaISE_ENSt8__detail10_Select1stESt8equal_toIS5_ESt4hashIS5_ENSG_18_Mod_range_hashingENSG_20_Default_ranged_hashENSG_20_Prime_rehash_policyENSG_17_Hashtable_traitsILb1ELb0ELb1EEEE13_M_rehash_auxEjSt17integral_constantIbLb1EE+0x82>
10000ed8:	0028      	movs	r0, r5
10000eda:	f7ff fd7c 	bl	100009d6 <_ZNSt8__detail16_Hashtable_allocISaINS_10_Hash_nodeISt4pairIKNSt7__cxx1112basic_stringIcSt11char_traitsIcESaIcEEESt6vectorISA_I5ColorSaISB_EESaISD_EEELb1EEEEE21_M_deallocate_bucketsEPPNS_15_Hash_node_baseEj>
10000ede:	606f      	str	r7, [r5, #4]
10000ee0:	4643      	mov	r3, r8
10000ee2:	602b      	str	r3, [r5, #0]
10000ee4:	bcc0      	pop	{r6, r7}
10000ee6:	46b9      	mov	r9, r7
10000ee8:	46b0      	mov	r8, r6
10000eea:	bdf8      	pop	{r3, r4, r5, r6, r7, pc}

10000eec <_ZNSt10_HashtableINSt7__cxx1112basic_stringIcSt11char_traitsIcESaIcEEESt4pairIKS5_St6vectorIS8_I5ColorSaIS9_EESaISB_EEESaISE_ENSt8__detail10_Select1stESt8equal_toIS5_ESt4hashIS5_ENSG_18_Mod_range_hashingENSG_20_Default_ranged_hashENSG_20_Prime_rehash_policyENSG_17_Hashtable_traitsILb1ELb0ELb1EEEE9_M_rehashEjRKj>:
10000eec:	b510      	push	{r4, lr}
10000eee:	2200      	movs	r2, #0
10000ef0:	f7ff ffb4 	bl	10000e5c <_ZNSt10_HashtableINSt7__cxx1112basic_stringIcSt11char_traitsIcESaIcEEESt4pairIKS5_St6vectorIS8_I5ColorSaIS9_EESaISB_EEESaISE_ENSt8__detail10_Select1stESt8equal_toIS5_ESt4hashIS5_ENSG_18_Mod_range_hashingENSG_20_Default_ranged_hashENSG_20_Prime_rehash_policyENSG_17_Hashtable_traitsILb1ELb0ELb1EEEE13_M_rehash_auxEjSt17integral_constantIbLb1EE>
10000ef4:	bd10      	pop	{r4, pc}

10000ef6 <_ZNSt10_HashtableINSt7__cxx1112basic_stringIcSt11char_traitsIcESaIcEEESt4pairIKS5_St6vectorIS8_I5ColorSaIS9_EESaISB_EEESaISE_ENSt8__detail10_Select1stESt8equal_toIS5_ESt4hashIS5_ENSG_18_Mod_range_hashingENSG_20_Default_ranged_hashENSG_20_Prime_rehash_policyENSG_17_Hashtable_traitsILb1ELb0ELb1EEEE21_M_insert_unique_nodeERS7_jjPNSG_10_Hash_nodeISE_Lb1EEEj>:
10000ef6:	b5f0      	push	{r4, r5, r6, r7, lr}
10000ef8:	46c6      	mov	lr, r8
10000efa:	b500      	push	{lr}
10000efc:	b086      	sub	sp, #24
10000efe:	0004      	movs	r4, r0
10000f00:	4690      	mov	r8, r2
10000f02:	001e      	movs	r6, r3
10000f04:	9f0c      	ldr	r7, [sp, #48]	; 0x30
10000f06:	6943      	ldr	r3, [r0, #20]
10000f08:	9305      	str	r3, [sp, #20]
10000f0a:	ad03      	add	r5, sp, #12
10000f0c:	0001      	movs	r1, r0
10000f0e:	3110      	adds	r1, #16
10000f10:	9b0d      	ldr	r3, [sp, #52]	; 0x34
10000f12:	9300      	str	r3, [sp, #0]
10000f14:	68c3      	ldr	r3, [r0, #12]
10000f16:	6842      	ldr	r2, [r0, #4]
10000f18:	0028      	movs	r0, r5
10000f1a:	f012 f90f 	bl	1001313c <_ZNKSt8__detail20_Prime_rehash_policy14_M_need_rehashEjjj>
10000f1e:	782b      	ldrb	r3, [r5, #0]
10000f20:	2b00      	cmp	r3, #0
10000f22:	d10d      	bne.n	10000f40 <_ZNSt10_HashtableINSt7__cxx1112basic_stringIcSt11char_traitsIcESaIcEEESt4pairIKS5_St6vectorIS8_I5ColorSaIS9_EESaISB_EEESaISE_ENSt8__detail10_Select1stESt8equal_toIS5_ESt4hashIS5_ENSG_18_Mod_range_hashingENSG_20_Default_ranged_hashENSG_20_Prime_rehash_policyENSG_17_Hashtable_traitsILb1ELb0ELb1EEEE21_M_insert_unique_nodeERS7_jjPNSG_10_Hash_nodeISE_Lb1EEEj+0x4a>
10000f24:	62be      	str	r6, [r7, #40]	; 0x28
10000f26:	003a      	movs	r2, r7
10000f28:	4641      	mov	r1, r8
10000f2a:	0020      	movs	r0, r4
10000f2c:	f7ff fe4f 	bl	10000bce <_ZNSt10_HashtableINSt7__cxx1112basic_stringIcSt11char_traitsIcESaIcEEESt4pairIKS5_St6vectorIS8_I5ColorSaIS9_EESaISB_EEESaISE_ENSt8__detail10_Select1stESt8equal_toIS5_ESt4hashIS5_ENSG_18_Mod_range_hashingENSG_20_Default_ranged_hashENSG_20_Prime_rehash_policyENSG_17_Hashtable_traitsILb1ELb0ELb1EEEE22_M_insert_bucket_beginEjPNSG_10_Hash_nodeISE_Lb1EEE>
10000f30:	68e3      	ldr	r3, [r4, #12]
10000f32:	3301      	adds	r3, #1
10000f34:	60e3      	str	r3, [r4, #12]
10000f36:	0038      	movs	r0, r7
10000f38:	b006      	add	sp, #24
10000f3a:	bc80      	pop	{r7}
10000f3c:	46b8      	mov	r8, r7
10000f3e:	bdf0      	pop	{r4, r5, r6, r7, pc}
10000f40:	aa05      	add	r2, sp, #20
10000f42:	9904      	ldr	r1, [sp, #16]
10000f44:	0020      	movs	r0, r4
10000f46:	f7ff ffd1 	bl	10000eec <_ZNSt10_HashtableINSt7__cxx1112basic_stringIcSt11char_traitsIcESaIcEEESt4pairIKS5_St6vectorIS8_I5ColorSaIS9_EESaISB_EEESaISE_ENSt8__detail10_Select1stESt8equal_toIS5_ESt4hashIS5_ENSG_18_Mod_range_hashingENSG_20_Default_ranged_hashENSG_20_Prime_rehash_policyENSG_17_Hashtable_traitsILb1ELb0ELb1EEEE9_M_rehashEjRKj>
10000f4a:	6861      	ldr	r1, [r4, #4]
10000f4c:	0030      	movs	r0, r6
10000f4e:	f009 fe79 	bl	1000ac44 <__wrap___aeabi_uidiv>
10000f52:	4688      	mov	r8, r1
10000f54:	e7e6      	b.n	10000f24 <_ZNSt10_HashtableINSt7__cxx1112basic_stringIcSt11char_traitsIcESaIcEEESt4pairIKS5_St6vectorIS8_I5ColorSaIS9_EESaISB_EEESaISE_ENSt8__detail10_Select1stESt8equal_toIS5_ESt4hashIS5_ENSG_18_Mod_range_hashingENSG_20_Default_ranged_hashENSG_20_Prime_rehash_policyENSG_17_Hashtable_traitsILb1ELb0ELb1EEEE21_M_insert_unique_nodeERS7_jjPNSG_10_Hash_nodeISE_Lb1EEEj+0x2e>
	...

10000f58 <_ZNSt8__detail9_Map_baseINSt7__cxx1112basic_stringIcSt11char_traitsIcESaIcEEESt4pairIKS6_St6vectorIS9_I5ColorSaISA_EESaISC_EEESaISF_ENS_10_Select1stESt8equal_toIS6_ESt4hashIS6_ENS_18_Mod_range_hashingENS_20_Default_ranged_hashENS_20_Prime_rehash_policyENS_17_Hashtable_traitsILb1ELb0ELb1EEELb1EEixEOS6_>:
10000f58:	b5f0      	push	{r4, r5, r6, r7, lr}
10000f5a:	b087      	sub	sp, #28
10000f5c:	0005      	movs	r5, r0
10000f5e:	000c      	movs	r4, r1
10000f60:	4a16      	ldr	r2, [pc, #88]	; (10000fbc <_ZNSt8__detail9_Map_baseINSt7__cxx1112basic_stringIcSt11char_traitsIcESaIcEEESt4pairIKS6_St6vectorIS9_I5ColorSaISA_EESaISC_EEESaISF_ENS_10_Select1stESt8equal_toIS6_ESt4hashIS6_ENS_18_Mod_range_hashingENS_20_Default_ranged_hashENS_20_Prime_rehash_policyENS_17_Hashtable_traitsILb1ELb0ELb1EEELb1EEixEOS6_+0x64>)
10000f62:	6849      	ldr	r1, [r1, #4]
10000f64:	6820      	ldr	r0, [r4, #0]
10000f66:	f011 fd71 	bl	10012a4c <_ZSt11_Hash_bytesPKvjj>
10000f6a:	0006      	movs	r6, r0
10000f6c:	6869      	ldr	r1, [r5, #4]
10000f6e:	f009 fe69 	bl	1000ac44 <__wrap___aeabi_uidiv>
10000f72:	000f      	movs	r7, r1
10000f74:	0033      	movs	r3, r6
10000f76:	0022      	movs	r2, r4
10000f78:	0028      	movs	r0, r5
10000f7a:	f7ff fdbc 	bl	10000af6 <_ZNKSt10_HashtableINSt7__cxx1112basic_stringIcSt11char_traitsIcESaIcEEESt4pairIKS5_St6vectorIS8_I5ColorSaIS9_EESaISB_EEESaISE_ENSt8__detail10_Select1stESt8equal_toIS5_ESt4hashIS5_ENSG_18_Mod_range_hashingENSG_20_Default_ranged_hashENSG_20_Prime_rehash_policyENSG_17_Hashtable_traitsILb1ELb0ELb1EEEE19_M_find_before_nodeEjRS7_j>
10000f7e:	2800      	cmp	r0, #0
10000f80:	d005      	beq.n	10000f8e <_ZNSt8__detail9_Map_baseINSt7__cxx1112basic_stringIcSt11char_traitsIcESaIcEEESt4pairIKS6_St6vectorIS9_I5ColorSaISA_EESaISC_EEESaISF_ENS_10_Select1stESt8equal_toIS6_ESt4hashIS6_ENS_18_Mod_range_hashingENS_20_Default_ranged_hashENS_20_Prime_rehash_policyENS_17_Hashtable_traitsILb1ELb0ELb1EEELb1EEixEOS6_+0x36>
10000f82:	6800      	ldr	r0, [r0, #0]
10000f84:	2800      	cmp	r0, #0
10000f86:	d002      	beq.n	10000f8e <_ZNSt8__detail9_Map_baseINSt7__cxx1112basic_stringIcSt11char_traitsIcESaIcEEESt4pairIKS6_St6vectorIS9_I5ColorSaISA_EESaISC_EEESaISF_ENS_10_Select1stESt8equal_toIS6_ESt4hashIS6_ENS_18_Mod_range_hashingENS_20_Default_ranged_hashENS_20_Prime_rehash_policyENS_17_Hashtable_traitsILb1ELb0ELb1EEELb1EEixEOS6_+0x36>
10000f88:	301c      	adds	r0, #28
10000f8a:	b007      	add	sp, #28
10000f8c:	bdf0      	pop	{r4, r5, r6, r7, pc}
10000f8e:	9404      	str	r4, [sp, #16]
10000f90:	9502      	str	r5, [sp, #8]
10000f92:	ab05      	add	r3, sp, #20
10000f94:	aa04      	add	r2, sp, #16
10000f96:	490a      	ldr	r1, [pc, #40]	; (10000fc0 <_ZNSt8__detail9_Map_baseINSt7__cxx1112basic_stringIcSt11char_traitsIcESaIcEEESt4pairIKS6_St6vectorIS9_I5ColorSaISA_EESaISC_EEESaISF_ENS_10_Select1stESt8equal_toIS6_ESt4hashIS6_ENS_18_Mod_range_hashingENS_20_Default_ranged_hashENS_20_Prime_rehash_policyENS_17_Hashtable_traitsILb1ELb0ELb1EEELb1EEixEOS6_+0x68>)
10000f98:	0028      	movs	r0, r5
10000f9a:	f7ff fdeb 	bl	10000b74 <_ZNSt8__detail16_Hashtable_allocISaINS_10_Hash_nodeISt4pairIKNSt7__cxx1112basic_stringIcSt11char_traitsIcESaIcEEESt6vectorISA_I5ColorSaISB_EESaISD_EEELb1EEEEE16_M_allocate_nodeIJRKSt21piecewise_construct_tSt5tupleIJOS8_EESO_IJEEEEEPSH_DpOT_>
10000f9e:	9003      	str	r0, [sp, #12]
10000fa0:	2301      	movs	r3, #1
10000fa2:	9301      	str	r3, [sp, #4]
10000fa4:	9000      	str	r0, [sp, #0]
10000fa6:	0033      	movs	r3, r6
10000fa8:	003a      	movs	r2, r7
10000faa:	0021      	movs	r1, r4
10000fac:	0028      	movs	r0, r5
10000fae:	f7ff ffa2 	bl	10000ef6 <_ZNSt10_HashtableINSt7__cxx1112basic_stringIcSt11char_traitsIcESaIcEEESt4pairIKS5_St6vectorIS8_I5ColorSaIS9_EESaISB_EEESaISE_ENSt8__detail10_Select1stESt8equal_toIS5_ESt4hashIS5_ENSG_18_Mod_range_hashingENSG_20_Default_ranged_hashENSG_20_Prime_rehash_policyENSG_17_Hashtable_traitsILb1ELb0ELb1EEEE21_M_insert_unique_nodeERS7_jjPNSG_10_Hash_nodeISE_Lb1EEEj>
10000fb2:	2300      	movs	r3, #0
10000fb4:	9303      	str	r3, [sp, #12]
10000fb6:	301c      	adds	r0, #28
10000fb8:	e7e7      	b.n	10000f8a <_ZNSt8__detail9_Map_baseINSt7__cxx1112basic_stringIcSt11char_traitsIcESaIcEEESt4pairIKS6_St6vectorIS9_I5ColorSaISA_EESaISC_EEESaISF_ENS_10_Select1stESt8equal_toIS6_ESt4hashIS6_ENS_18_Mod_range_hashingENS_20_Default_ranged_hashENS_20_Prime_rehash_policyENS_17_Hashtable_traitsILb1ELb0ELb1EEELb1EEixEOS6_+0x32>
10000fba:	46c0      	nop			; (mov r8, r8)
10000fbc:	c70f6907 	.word	0xc70f6907
10000fc0:	1001c3c8 	.word	0x1001c3c8

10000fc4 <_ZNSt8__detail9_Map_baseINSt7__cxx1112basic_stringIcSt11char_traitsIcESaIcEEESt4pairIKS6_St6vectorIS9_I5ColorSaISA_EESaISC_EEESaISF_ENS_10_Select1stESt8equal_toIS6_ESt4hashIS6_ENS_18_Mod_range_hashingENS_20_Default_ranged_hashENS_20_Prime_rehash_policyENS_17_Hashtable_traitsILb1ELb0ELb1EEELb1EEixERS8_>:
10000fc4:	b5f0      	push	{r4, r5, r6, r7, lr}
10000fc6:	b087      	sub	sp, #28
10000fc8:	0005      	movs	r5, r0
10000fca:	000c      	movs	r4, r1
10000fcc:	4a16      	ldr	r2, [pc, #88]	; (10001028 <_ZNSt8__detail9_Map_baseINSt7__cxx1112basic_stringIcSt11char_traitsIcESaIcEEESt4pairIKS6_St6vectorIS9_I5ColorSaISA_EESaISC_EEESaISF_ENS_10_Select1stESt8equal_toIS6_ESt4hashIS6_ENS_18_Mod_range_hashingENS_20_Default_ranged_hashENS_20_Prime_rehash_policyENS_17_Hashtable_traitsILb1ELb0ELb1EEELb1EEixERS8_+0x64>)
10000fce:	6849      	ldr	r1, [r1, #4]
10000fd0:	6820      	ldr	r0, [r4, #0]
10000fd2:	f011 fd3b 	bl	10012a4c <_ZSt11_Hash_bytesPKvjj>
10000fd6:	0006      	movs	r6, r0
10000fd8:	6869      	ldr	r1, [r5, #4]
10000fda:	f009 fe33 	bl	1000ac44 <__wrap___aeabi_uidiv>
10000fde:	000f      	movs	r7, r1
10000fe0:	0033      	movs	r3, r6
10000fe2:	0022      	movs	r2, r4
10000fe4:	0028      	movs	r0, r5
10000fe6:	f7ff fd86 	bl	10000af6 <_ZNKSt10_HashtableINSt7__cxx1112basic_stringIcSt11char_traitsIcESaIcEEESt4pairIKS5_St6vectorIS8_I5ColorSaIS9_EESaISB_EEESaISE_ENSt8__detail10_Select1stESt8equal_toIS5_ESt4hashIS5_ENSG_18_Mod_range_hashingENSG_20_Default_ranged_hashENSG_20_Prime_rehash_policyENSG_17_Hashtable_traitsILb1ELb0ELb1EEEE19_M_find_before_nodeEjRS7_j>
10000fea:	2800      	cmp	r0, #0
10000fec:	d005      	beq.n	10000ffa <_ZNSt8__detail9_Map_baseINSt7__cxx1112basic_stringIcSt11char_traitsIcESaIcEEESt4pairIKS6_St6vectorIS9_I5ColorSaISA_EESaISC_EEESaISF_ENS_10_Select1stESt8equal_toIS6_ESt4hashIS6_ENS_18_Mod_range_hashingENS_20_Default_ranged_hashENS_20_Prime_rehash_policyENS_17_Hashtable_traitsILb1ELb0ELb1EEELb1EEixERS8_+0x36>
10000fee:	6800      	ldr	r0, [r0, #0]
10000ff0:	2800      	cmp	r0, #0
10000ff2:	d002      	beq.n	10000ffa <_ZNSt8__detail9_Map_baseINSt7__cxx1112basic_stringIcSt11char_traitsIcESaIcEEESt4pairIKS6_St6vectorIS9_I5ColorSaISA_EESaISC_EEESaISF_ENS_10_Select1stESt8equal_toIS6_ESt4hashIS6_ENS_18_Mod_range_hashingENS_20_Default_ranged_hashENS_20_Prime_rehash_policyENS_17_Hashtable_traitsILb1ELb0ELb1EEELb1EEixERS8_+0x36>
10000ff4:	301c      	adds	r0, #28
10000ff6:	b007      	add	sp, #28
10000ff8:	bdf0      	pop	{r4, r5, r6, r7, pc}
10000ffa:	9404      	str	r4, [sp, #16]
10000ffc:	9502      	str	r5, [sp, #8]
10000ffe:	ab05      	add	r3, sp, #20
10001000:	aa04      	add	r2, sp, #16
10001002:	490a      	ldr	r1, [pc, #40]	; (1000102c <_ZNSt8__detail9_Map_baseINSt7__cxx1112basic_stringIcSt11char_traitsIcESaIcEEESt4pairIKS6_St6vectorIS9_I5ColorSaISA_EESaISC_EEESaISF_ENS_10_Select1stESt8equal_toIS6_ESt4hashIS6_ENS_18_Mod_range_hashingENS_20_Default_ranged_hashENS_20_Prime_rehash_policyENS_17_Hashtable_traitsILb1ELb0ELb1EEELb1EEixERS8_+0x68>)
10001004:	0028      	movs	r0, r5
10001006:	f7ff fe2f 	bl	10000c68 <_ZNSt8__detail16_Hashtable_allocISaINS_10_Hash_nodeISt4pairIKNSt7__cxx1112basic_stringIcSt11char_traitsIcESaIcEEESt6vectorISA_I5ColorSaISB_EESaISD_EEELb1EEEEE16_M_allocate_nodeIJRKSt21piecewise_construct_tSt5tupleIJRS9_EESO_IJEEEEEPSH_DpOT_>
1000100a:	9003      	str	r0, [sp, #12]
1000100c:	2301      	movs	r3, #1
1000100e:	9301      	str	r3, [sp, #4]
10001010:	9000      	str	r0, [sp, #0]
10001012:	0033      	movs	r3, r6
10001014:	003a      	movs	r2, r7
10001016:	0021      	movs	r1, r4
10001018:	0028      	movs	r0, r5
1000101a:	f7ff ff6c 	bl	10000ef6 <_ZNSt10_HashtableINSt7__cxx1112basic_stringIcSt11char_traitsIcESaIcEEESt4pairIKS5_St6vectorIS8_I5ColorSaIS9_EESaISB_EEESaISE_ENSt8__detail10_Select1stESt8equal_toIS5_ESt4hashIS5_ENSG_18_Mod_range_hashingENSG_20_Default_ranged_hashENSG_20_Prime_rehash_policyENSG_17_Hashtable_traitsILb1ELb0ELb1EEEE21_M_insert_unique_nodeERS7_jjPNSG_10_Hash_nodeISE_Lb1EEEj>
1000101e:	2300      	movs	r3, #0
10001020:	9303      	str	r3, [sp, #12]
10001022:	301c      	adds	r0, #28
10001024:	e7e7      	b.n	10000ff6 <_ZNSt8__detail9_Map_baseINSt7__cxx1112basic_stringIcSt11char_traitsIcESaIcEEESt4pairIKS6_St6vectorIS9_I5ColorSaISA_EESaISC_EEESaISF_ENS_10_Select1stESt8equal_toIS6_ESt4hashIS6_ENS_18_Mod_range_hashingENS_20_Default_ranged_hashENS_20_Prime_rehash_policyENS_17_Hashtable_traitsILb1ELb0ELb1EEELb1EEixERS8_+0x32>
10001026:	46c0      	nop			; (mov r8, r8)
10001028:	c70f6907 	.word	0xc70f6907
1000102c:	1001c3c8 	.word	0x1001c3c8

10001030 <_ZN7Genshin8drawIconERKNSt7__cxx1112basic_stringIcSt11char_traitsIcESaIcEEEN8pimoroni5PointE>:
10001030:	b5f0      	push	{r4, r5, r6, r7, lr}
10001032:	46d6      	mov	lr, sl
10001034:	464f      	mov	r7, r9
10001036:	4646      	mov	r6, r8
10001038:	b5c0      	push	{r6, r7, lr}
1000103a:	b08e      	sub	sp, #56	; 0x38
1000103c:	4682      	mov	sl, r0
1000103e:	9200      	str	r2, [sp, #0]
10001040:	9301      	str	r3, [sp, #4]
10001042:	4b6e      	ldr	r3, [pc, #440]	; (100011fc <_ZN7Genshin8drawIconERKNSt7__cxx1112basic_stringIcSt11char_traitsIcESaIcEEEN8pimoroni5PointE+0x1cc>)
10001044:	0018      	movs	r0, r3
10001046:	4450      	add	r0, sl
10001048:	f7ff ffbc 	bl	10000fc4 <_ZNSt8__detail9_Map_baseINSt7__cxx1112basic_stringIcSt11char_traitsIcESaIcEEESt4pairIKS6_St6vectorIS9_I5ColorSaISA_EESaISC_EEESaISF_ENS_10_Select1stESt8equal_toIS6_ESt4hashIS6_ENS_18_Mod_range_hashingENS_20_Default_ranged_hashENS_20_Prime_rehash_policyENS_17_Hashtable_traitsILb1ELb0ELb1EEELb1EEixERS8_>
1000104c:	0006      	movs	r6, r0
1000104e:	6843      	ldr	r3, [r0, #4]
10001050:	6802      	ldr	r2, [r0, #0]
10001052:	1a9a      	subs	r2, r3, r2
10001054:	1092      	asrs	r2, r2, #2
10001056:	0093      	lsls	r3, r2, #2
10001058:	189b      	adds	r3, r3, r2
1000105a:	0119      	lsls	r1, r3, #4
1000105c:	185b      	adds	r3, r3, r1
1000105e:	021c      	lsls	r4, r3, #8
10001060:	191b      	adds	r3, r3, r4
10001062:	041c      	lsls	r4, r3, #16
10001064:	191c      	adds	r4, r3, r4
10001066:	0064      	lsls	r4, r4, #1
10001068:	18a4      	adds	r4, r4, r2
1000106a:	2300      	movs	r3, #0
1000106c:	9307      	str	r3, [sp, #28]
1000106e:	9308      	str	r3, [sp, #32]
10001070:	9309      	str	r3, [sp, #36]	; 0x24
10001072:	2c00      	cmp	r4, #0
10001074:	d015      	beq.n	100010a2 <_ZN7Genshin8drawIconERKNSt7__cxx1112basic_stringIcSt11char_traitsIcESaIcEEEN8pimoroni5PointE+0x72>
10001076:	4b62      	ldr	r3, [pc, #392]	; (10001200 <_ZN7Genshin8drawIconERKNSt7__cxx1112basic_stringIcSt11char_traitsIcESaIcEEEN8pimoroni5PointE+0x1d0>)
10001078:	429c      	cmp	r4, r3
1000107a:	d810      	bhi.n	1000109e <_ZN7Genshin8drawIconERKNSt7__cxx1112basic_stringIcSt11char_traitsIcESaIcEEEN8pimoroni5PointE+0x6e>
1000107c:	0060      	lsls	r0, r4, #1
1000107e:	1900      	adds	r0, r0, r4
10001080:	0080      	lsls	r0, r0, #2
10001082:	f00b fdc3 	bl	1000cc0c <_Znwj>
10001086:	0005      	movs	r5, r0
10001088:	9507      	str	r5, [sp, #28]
1000108a:	9508      	str	r5, [sp, #32]
1000108c:	0063      	lsls	r3, r4, #1
1000108e:	191c      	adds	r4, r3, r4
10001090:	00a4      	lsls	r4, r4, #2
10001092:	192c      	adds	r4, r5, r4
10001094:	9409      	str	r4, [sp, #36]	; 0x24
10001096:	6833      	ldr	r3, [r6, #0]
10001098:	6872      	ldr	r2, [r6, #4]
1000109a:	4690      	mov	r8, r2
1000109c:	e00f      	b.n	100010be <_ZN7Genshin8drawIconERKNSt7__cxx1112basic_stringIcSt11char_traitsIcESaIcEEEN8pimoroni5PointE+0x8e>
1000109e:	f011 ff55 	bl	10012f4c <_ZSt17__throw_bad_allocv>
100010a2:	2500      	movs	r5, #0
100010a4:	e7f0      	b.n	10001088 <_ZN7Genshin8drawIconERKNSt7__cxx1112basic_stringIcSt11char_traitsIcESaIcEEEN8pimoroni5PointE+0x58>
100010a6:	f011 ff51 	bl	10012f4c <_ZSt17__throw_bad_allocv>
100010aa:	2000      	movs	r0, #0
100010ac:	e027      	b.n	100010fe <_ZN7Genshin8drawIconERKNSt7__cxx1112basic_stringIcSt11char_traitsIcESaIcEEEN8pimoroni5PointE+0xce>
100010ae:	cb92      	ldmia	r3!, {r1, r4, r7}
100010b0:	c292      	stmia	r2!, {r1, r4, r7}
100010b2:	4283      	cmp	r3, r0
100010b4:	d1fb      	bne.n	100010ae <_ZN7Genshin8drawIconERKNSt7__cxx1112basic_stringIcSt11char_traitsIcESaIcEEEN8pimoroni5PointE+0x7e>
100010b6:	606a      	str	r2, [r5, #4]
100010b8:	0033      	movs	r3, r6
100010ba:	330c      	adds	r3, #12
100010bc:	350c      	adds	r5, #12
100010be:	001e      	movs	r6, r3
100010c0:	4543      	cmp	r3, r8
100010c2:	d029      	beq.n	10001118 <_ZN7Genshin8drawIconERKNSt7__cxx1112basic_stringIcSt11char_traitsIcESaIcEEEN8pimoroni5PointE+0xe8>
100010c4:	46a9      	mov	r9, r5
100010c6:	685c      	ldr	r4, [r3, #4]
100010c8:	681a      	ldr	r2, [r3, #0]
100010ca:	1aa2      	subs	r2, r4, r2
100010cc:	1092      	asrs	r2, r2, #2
100010ce:	0093      	lsls	r3, r2, #2
100010d0:	189b      	adds	r3, r3, r2
100010d2:	011c      	lsls	r4, r3, #4
100010d4:	191b      	adds	r3, r3, r4
100010d6:	021c      	lsls	r4, r3, #8
100010d8:	191b      	adds	r3, r3, r4
100010da:	041c      	lsls	r4, r3, #16
100010dc:	191c      	adds	r4, r3, r4
100010de:	0064      	lsls	r4, r4, #1
100010e0:	18a4      	adds	r4, r4, r2
100010e2:	2300      	movs	r3, #0
100010e4:	602b      	str	r3, [r5, #0]
100010e6:	606b      	str	r3, [r5, #4]
100010e8:	60ab      	str	r3, [r5, #8]
100010ea:	2c00      	cmp	r4, #0
100010ec:	d0dd      	beq.n	100010aa <_ZN7Genshin8drawIconERKNSt7__cxx1112basic_stringIcSt11char_traitsIcESaIcEEEN8pimoroni5PointE+0x7a>
100010ee:	4b44      	ldr	r3, [pc, #272]	; (10001200 <_ZN7Genshin8drawIconERKNSt7__cxx1112basic_stringIcSt11char_traitsIcESaIcEEEN8pimoroni5PointE+0x1d0>)
100010f0:	429c      	cmp	r4, r3
100010f2:	d8d8      	bhi.n	100010a6 <_ZN7Genshin8drawIconERKNSt7__cxx1112basic_stringIcSt11char_traitsIcESaIcEEEN8pimoroni5PointE+0x76>
100010f4:	0060      	lsls	r0, r4, #1
100010f6:	1900      	adds	r0, r0, r4
100010f8:	0080      	lsls	r0, r0, #2
100010fa:	f00b fd87 	bl	1000cc0c <_Znwj>
100010fe:	464b      	mov	r3, r9
10001100:	6018      	str	r0, [r3, #0]
10001102:	6058      	str	r0, [r3, #4]
10001104:	0063      	lsls	r3, r4, #1
10001106:	191c      	adds	r4, r3, r4
10001108:	00a4      	lsls	r4, r4, #2
1000110a:	1900      	adds	r0, r0, r4
1000110c:	464b      	mov	r3, r9
1000110e:	6098      	str	r0, [r3, #8]
10001110:	682a      	ldr	r2, [r5, #0]
10001112:	6833      	ldr	r3, [r6, #0]
10001114:	6870      	ldr	r0, [r6, #4]
10001116:	e7cc      	b.n	100010b2 <_ZN7Genshin8drawIconERKNSt7__cxx1112basic_stringIcSt11char_traitsIcESaIcEEEN8pimoroni5PointE+0x82>
10001118:	9508      	str	r5, [sp, #32]
1000111a:	2500      	movs	r5, #0
1000111c:	e000      	b.n	10001120 <_ZN7Genshin8drawIconERKNSt7__cxx1112basic_stringIcSt11char_traitsIcESaIcEEEN8pimoroni5PointE+0xf0>
1000111e:	3501      	adds	r5, #1
10001120:	9b08      	ldr	r3, [sp, #32]
10001122:	9a07      	ldr	r2, [sp, #28]
10001124:	1a9a      	subs	r2, r3, r2
10001126:	1092      	asrs	r2, r2, #2
10001128:	0093      	lsls	r3, r2, #2
1000112a:	189b      	adds	r3, r3, r2
1000112c:	0119      	lsls	r1, r3, #4
1000112e:	185b      	adds	r3, r3, r1
10001130:	0219      	lsls	r1, r3, #8
10001132:	185b      	adds	r3, r3, r1
10001134:	0419      	lsls	r1, r3, #16
10001136:	185b      	adds	r3, r3, r1
10001138:	005b      	lsls	r3, r3, #1
1000113a:	189b      	adds	r3, r3, r2
1000113c:	46a9      	mov	r9, r5
1000113e:	429d      	cmp	r5, r3
10001140:	d240      	bcs.n	100011c4 <_ZN7Genshin8drawIconERKNSt7__cxx1112basic_stringIcSt11char_traitsIcESaIcEEEN8pimoroni5PointE+0x194>
10001142:	2400      	movs	r4, #0
10001144:	464b      	mov	r3, r9
10001146:	005b      	lsls	r3, r3, #1
10001148:	444b      	add	r3, r9
1000114a:	009b      	lsls	r3, r3, #2
1000114c:	9a07      	ldr	r2, [sp, #28]
1000114e:	4694      	mov	ip, r2
10001150:	4463      	add	r3, ip
10001152:	6859      	ldr	r1, [r3, #4]
10001154:	681a      	ldr	r2, [r3, #0]
10001156:	1a89      	subs	r1, r1, r2
10001158:	1089      	asrs	r1, r1, #2
1000115a:	008b      	lsls	r3, r1, #2
1000115c:	185b      	adds	r3, r3, r1
1000115e:	0118      	lsls	r0, r3, #4
10001160:	181b      	adds	r3, r3, r0
10001162:	0218      	lsls	r0, r3, #8
10001164:	181b      	adds	r3, r3, r0
10001166:	0418      	lsls	r0, r3, #16
10001168:	181b      	adds	r3, r3, r0
1000116a:	005b      	lsls	r3, r3, #1
1000116c:	185b      	adds	r3, r3, r1
1000116e:	429c      	cmp	r4, r3
10001170:	d2d5      	bcs.n	1000111e <_ZN7Genshin8drawIconERKNSt7__cxx1112basic_stringIcSt11char_traitsIcESaIcEEEN8pimoroni5PointE+0xee>
10001172:	0063      	lsls	r3, r4, #1
10001174:	191b      	adds	r3, r3, r4
10001176:	009b      	lsls	r3, r3, #2
10001178:	18d3      	adds	r3, r2, r3
1000117a:	aa04      	add	r2, sp, #16
1000117c:	0011      	movs	r1, r2
1000117e:	cbc1      	ldmia	r3!, {r0, r6, r7}
10001180:	c1c1      	stmia	r1!, {r0, r6, r7}
10001182:	7a13      	ldrb	r3, [r2, #8]
10001184:	7912      	ldrb	r2, [r2, #4]
10001186:	9904      	ldr	r1, [sp, #16]
10001188:	b2c9      	uxtb	r1, r1
1000118a:	481e      	ldr	r0, [pc, #120]	; (10001204 <_ZN7Genshin8drawIconERKNSt7__cxx1112basic_stringIcSt11char_traitsIcESaIcEEEN8pimoroni5PointE+0x1d4>)
1000118c:	4680      	mov	r8, r0
1000118e:	44d0      	add	r8, sl
10001190:	4640      	mov	r0, r8
10001192:	f010 fd37 	bl	10011c04 <_ZN8pimoroni22PicoGraphics_PenRGB8887set_penEhhh>
10001196:	950c      	str	r5, [sp, #48]	; 0x30
10001198:	940d      	str	r4, [sp, #52]	; 0x34
1000119a:	a902      	add	r1, sp, #8
1000119c:	466b      	mov	r3, sp
1000119e:	000a      	movs	r2, r1
100011a0:	cb41      	ldmia	r3!, {r0, r6}
100011a2:	c241      	stmia	r2!, {r0, r6}
100011a4:	9b02      	ldr	r3, [sp, #8]
100011a6:	195b      	adds	r3, r3, r5
100011a8:	9302      	str	r3, [sp, #8]
100011aa:	684b      	ldr	r3, [r1, #4]
100011ac:	191b      	adds	r3, r3, r4
100011ae:	604b      	str	r3, [r1, #4]
100011b0:	2208      	movs	r2, #8
100011b2:	a80a      	add	r0, sp, #40	; 0x28
100011b4:	f00b fd24 	bl	1000cc00 <__wrap___aeabi_memcpy>
100011b8:	a90a      	add	r1, sp, #40	; 0x28
100011ba:	4640      	mov	r0, r8
100011bc:	f010 fba2 	bl	10011904 <_ZN8pimoroni12PicoGraphics5pixelERKNS_5PointE>
100011c0:	3401      	adds	r4, #1
100011c2:	e7bf      	b.n	10001144 <_ZN7Genshin8drawIconERKNSt7__cxx1112basic_stringIcSt11char_traitsIcESaIcEEEN8pimoroni5PointE+0x114>
100011c4:	9c07      	ldr	r4, [sp, #28]
100011c6:	9d08      	ldr	r5, [sp, #32]
100011c8:	e000      	b.n	100011cc <_ZN7Genshin8drawIconERKNSt7__cxx1112basic_stringIcSt11char_traitsIcESaIcEEEN8pimoroni5PointE+0x19c>
100011ca:	340c      	adds	r4, #12
100011cc:	42a5      	cmp	r5, r4
100011ce:	d007      	beq.n	100011e0 <_ZN7Genshin8drawIconERKNSt7__cxx1112basic_stringIcSt11char_traitsIcESaIcEEEN8pimoroni5PointE+0x1b0>
100011d0:	6820      	ldr	r0, [r4, #0]
100011d2:	68a3      	ldr	r3, [r4, #8]
100011d4:	1a19      	subs	r1, r3, r0
100011d6:	2800      	cmp	r0, #0
100011d8:	d0f7      	beq.n	100011ca <_ZN7Genshin8drawIconERKNSt7__cxx1112basic_stringIcSt11char_traitsIcESaIcEEEN8pimoroni5PointE+0x19a>
100011da:	f00b fd23 	bl	1000cc24 <_ZdlPvj>
100011de:	e7f4      	b.n	100011ca <_ZN7Genshin8drawIconERKNSt7__cxx1112basic_stringIcSt11char_traitsIcESaIcEEEN8pimoroni5PointE+0x19a>
100011e0:	9807      	ldr	r0, [sp, #28]
100011e2:	9b09      	ldr	r3, [sp, #36]	; 0x24
100011e4:	1a19      	subs	r1, r3, r0
100011e6:	2800      	cmp	r0, #0
100011e8:	d001      	beq.n	100011ee <_ZN7Genshin8drawIconERKNSt7__cxx1112basic_stringIcSt11char_traitsIcESaIcEEEN8pimoroni5PointE+0x1be>
100011ea:	f00b fd1b 	bl	1000cc24 <_ZdlPvj>
100011ee:	b00e      	add	sp, #56	; 0x38
100011f0:	bce0      	pop	{r5, r6, r7}
100011f2:	46ba      	mov	sl, r7
100011f4:	46b1      	mov	r9, r6
100011f6:	46a8      	mov	r8, r5
100011f8:	bdf0      	pop	{r4, r5, r6, r7, pc}
100011fa:	46c0      	nop			; (mov r8, r8)
100011fc:	00002a60 	.word	0x00002a60
10001200:	0aaaaaaa 	.word	0x0aaaaaaa
10001204:	00002a20 	.word	0x00002a20

10001208 <_ZN7Genshin9drawIconsEv>:
10001208:	b5f0      	push	{r4, r5, r6, r7, lr}
1000120a:	b08f      	sub	sp, #60	; 0x3c
1000120c:	0007      	movs	r7, r0
1000120e:	4d36      	ldr	r5, [pc, #216]	; (100012e8 <_ZN7Genshin9drawIconsEv+0xe0>)
10001210:	e021      	b.n	10001256 <_ZN7Genshin9drawIconsEv+0x4e>
10001212:	2201      	movs	r2, #1
10001214:	e02c      	b.n	10001270 <_ZN7Genshin9drawIconsEv+0x68>
10001216:	682e      	ldr	r6, [r5, #0]
10001218:	ab0a      	add	r3, sp, #40	; 0x28
1000121a:	9308      	str	r3, [sp, #32]
1000121c:	2e00      	cmp	r6, #0
1000121e:	d054      	beq.n	100012ca <_ZN7Genshin9drawIconsEv+0xc2>
10001220:	0030      	movs	r0, r6
10001222:	f01a f9f7 	bl	1001b614 <strlen>
10001226:	1832      	adds	r2, r6, r0
10001228:	2300      	movs	r3, #0
1000122a:	0031      	movs	r1, r6
1000122c:	a808      	add	r0, sp, #32
1000122e:	f7ff f86d 	bl	1000030c <_ZNSt7__cxx1112basic_stringIcSt11char_traitsIcESaIcEE12_M_constructIPKcEEvT_S8_St20forward_iterator_tag>
10001232:	6822      	ldr	r2, [r4, #0]
10001234:	6863      	ldr	r3, [r4, #4]
10001236:	a908      	add	r1, sp, #32
10001238:	0038      	movs	r0, r7
1000123a:	f7ff fef9 	bl	10001030 <_ZN7Genshin8drawIconERKNSt7__cxx1112basic_stringIcSt11char_traitsIcESaIcEEEN8pimoroni5PointE>
1000123e:	9808      	ldr	r0, [sp, #32]
10001240:	ab0a      	add	r3, sp, #40	; 0x28
10001242:	4298      	cmp	r0, r3
10001244:	d003      	beq.n	1000124e <_ZN7Genshin9drawIconsEv+0x46>
10001246:	9b0a      	ldr	r3, [sp, #40]	; 0x28
10001248:	1c59      	adds	r1, r3, #1
1000124a:	f00b fceb 	bl	1000cc24 <_ZdlPvj>
1000124e:	2005      	movs	r0, #5
10001250:	f007 fce0 	bl	10008c14 <sleep_ms>
10001254:	3510      	adds	r5, #16
10001256:	4b24      	ldr	r3, [pc, #144]	; (100012e8 <_ZN7Genshin9drawIconsEv+0xe0>)
10001258:	3370      	adds	r3, #112	; 0x70
1000125a:	429d      	cmp	r5, r3
1000125c:	d037      	beq.n	100012ce <_ZN7Genshin9drawIconsEv+0xc6>
1000125e:	682c      	ldr	r4, [r5, #0]
10001260:	ab02      	add	r3, sp, #8
10001262:	9300      	str	r3, [sp, #0]
10001264:	2c00      	cmp	r4, #0
10001266:	d0d4      	beq.n	10001212 <_ZN7Genshin9drawIconsEv+0xa>
10001268:	0020      	movs	r0, r4
1000126a:	f01a f9d3 	bl	1001b614 <strlen>
1000126e:	1822      	adds	r2, r4, r0
10001270:	2300      	movs	r3, #0
10001272:	0021      	movs	r1, r4
10001274:	4668      	mov	r0, sp
10001276:	f7ff f849 	bl	1000030c <_ZNSt7__cxx1112basic_stringIcSt11char_traitsIcESaIcEE12_M_constructIPKcEEvT_S8_St20forward_iterator_tag>
1000127a:	4669      	mov	r1, sp
1000127c:	23aa      	movs	r3, #170	; 0xaa
1000127e:	019b      	lsls	r3, r3, #6
10001280:	18f8      	adds	r0, r7, r3
10001282:	f7ff fda3 	bl	10000dcc <_ZNSt8__detail9_Map_baseINSt7__cxx1112basic_stringIcSt11char_traitsIcESaIcEEESt4pairIKS6_N8pimoroni5PointEESaISB_ENS_10_Select1stESt8equal_toIS6_ESt4hashIS6_ENS_18_Mod_range_hashingENS_20_Default_ranged_hashENS_20_Prime_rehash_policyENS_17_Hashtable_traitsILb1ELb0ELb1EEELb1EEixEOS6_>
10001286:	0004      	movs	r4, r0
10001288:	9800      	ldr	r0, [sp, #0]
1000128a:	ab02      	add	r3, sp, #8
1000128c:	4298      	cmp	r0, r3
1000128e:	d003      	beq.n	10001298 <_ZN7Genshin9drawIconsEv+0x90>
10001290:	9b02      	ldr	r3, [sp, #8]
10001292:	1c59      	adds	r1, r3, #1
10001294:	f00b fcc6 	bl	1000cc24 <_ZdlPvj>
10001298:	6820      	ldr	r0, [r4, #0]
1000129a:	f00b f97d 	bl	1000c598 <__wrap___aeabi_i2f>
1000129e:	21fe      	movs	r1, #254	; 0xfe
100012a0:	0589      	lsls	r1, r1, #22
100012a2:	f00b f910 	bl	1000c4c6 <__wrap___aeabi_fsub>
100012a6:	f00b f999 	bl	1000c5dc <__wrap___aeabi_f2iz>
100012aa:	6020      	str	r0, [r4, #0]
100012ac:	300a      	adds	r0, #10
100012ae:	dab2      	bge.n	10001216 <_ZN7Genshin9drawIconsEv+0xe>
100012b0:	4a0e      	ldr	r2, [pc, #56]	; (100012ec <_ZN7Genshin9drawIconsEv+0xe4>)
100012b2:	ab06      	add	r3, sp, #24
100012b4:	58b9      	ldr	r1, [r7, r2]
100012b6:	9106      	str	r1, [sp, #24]
100012b8:	2100      	movs	r1, #0
100012ba:	9107      	str	r1, [sp, #28]
100012bc:	0021      	movs	r1, r4
100012be:	cb41      	ldmia	r3!, {r0, r6}
100012c0:	c141      	stmia	r1!, {r0, r6}
100012c2:	58bb      	ldr	r3, [r7, r2]
100012c4:	330c      	adds	r3, #12
100012c6:	50bb      	str	r3, [r7, r2]
100012c8:	e7a5      	b.n	10001216 <_ZN7Genshin9drawIconsEv+0xe>
100012ca:	2201      	movs	r2, #1
100012cc:	e7ac      	b.n	10001228 <_ZN7Genshin9drawIconsEv+0x20>
100012ce:	4c07      	ldr	r4, [pc, #28]	; (100012ec <_ZN7Genshin9drawIconsEv+0xe4>)
100012d0:	5938      	ldr	r0, [r7, r4]
100012d2:	f00b f961 	bl	1000c598 <__wrap___aeabi_i2f>
100012d6:	21fe      	movs	r1, #254	; 0xfe
100012d8:	0589      	lsls	r1, r1, #22
100012da:	f00b f8f4 	bl	1000c4c6 <__wrap___aeabi_fsub>
100012de:	f00b f97d 	bl	1000c5dc <__wrap___aeabi_f2iz>
100012e2:	5138      	str	r0, [r7, r4]
100012e4:	b00f      	add	sp, #60	; 0x3c
100012e6:	bdf0      	pop	{r4, r5, r6, r7, pc}
100012e8:	20002434 	.word	0x20002434
100012ec:	00002a7c 	.word	0x00002a7c

100012f0 <_ZNSt17_Function_handlerIFvvEZN7Genshin13startSequenceEvEUlvE1_E9_M_invokeERKSt9_Any_data>:
100012f0:	b510      	push	{r4, lr}
100012f2:	6800      	ldr	r0, [r0, #0]
100012f4:	f7ff ff88 	bl	10001208 <_ZN7Genshin9drawIconsEv>
100012f8:	bd10      	pop	{r4, pc}
	...

100012fc <_ZN7Genshin11drawElementERK7Element>:
100012fc:	b570      	push	{r4, r5, r6, lr}
100012fe:	b096      	sub	sp, #88	; 0x58
10001300:	0005      	movs	r5, r0
10001302:	000e      	movs	r6, r1
10001304:	2300      	movs	r3, #0
10001306:	9306      	str	r3, [sp, #24]
10001308:	9307      	str	r3, [sp, #28]
1000130a:	680c      	ldr	r4, [r1, #0]
1000130c:	ab0a      	add	r3, sp, #40	; 0x28
1000130e:	9308      	str	r3, [sp, #32]
10001310:	2c00      	cmp	r4, #0
10001312:	d050      	beq.n	100013b6 <_ZN7Genshin11drawElementERK7Element+0xba>
10001314:	0020      	movs	r0, r4
10001316:	f01a f97d 	bl	1001b614 <strlen>
1000131a:	1822      	adds	r2, r4, r0
1000131c:	2300      	movs	r3, #0
1000131e:	0021      	movs	r1, r4
10001320:	a808      	add	r0, sp, #32
10001322:	f7fe fff3 	bl	1000030c <_ZNSt7__cxx1112basic_stringIcSt11char_traitsIcESaIcEE12_M_constructIPKcEEvT_S8_St20forward_iterator_tag>
10001326:	9a06      	ldr	r2, [sp, #24]
10001328:	9b07      	ldr	r3, [sp, #28]
1000132a:	a908      	add	r1, sp, #32
1000132c:	0028      	movs	r0, r5
1000132e:	f7ff fe7f 	bl	10001030 <_ZN7Genshin8drawIconERKNSt7__cxx1112basic_stringIcSt11char_traitsIcESaIcEEEN8pimoroni5PointE>
10001332:	9808      	ldr	r0, [sp, #32]
10001334:	ab0a      	add	r3, sp, #40	; 0x28
10001336:	4298      	cmp	r0, r3
10001338:	d003      	beq.n	10001342 <_ZN7Genshin11drawElementERK7Element+0x46>
1000133a:	9b0a      	ldr	r3, [sp, #40]	; 0x28
1000133c:	1c59      	adds	r1, r3, #1
1000133e:	f00b fc71 	bl	1000cc24 <_ZdlPvj>
10001342:	230c      	movs	r3, #12
10001344:	930e      	str	r3, [sp, #56]	; 0x38
10001346:	3b0a      	subs	r3, #10
10001348:	930f      	str	r3, [sp, #60]	; 0x3c
1000134a:	9b06      	ldr	r3, [sp, #24]
1000134c:	330c      	adds	r3, #12
1000134e:	9306      	str	r3, [sp, #24]
10001350:	9b07      	ldr	r3, [sp, #28]
10001352:	9305      	str	r3, [sp, #20]
10001354:	3302      	adds	r3, #2
10001356:	9307      	str	r3, [sp, #28]
10001358:	7b33      	ldrb	r3, [r6, #12]
1000135a:	7a32      	ldrb	r2, [r6, #8]
1000135c:	7931      	ldrb	r1, [r6, #4]
1000135e:	4818      	ldr	r0, [pc, #96]	; (100013c0 <_ZN7Genshin11drawElementERK7Element+0xc4>)
10001360:	4684      	mov	ip, r0
10001362:	4465      	add	r5, ip
10001364:	0028      	movs	r0, r5
10001366:	f010 fc4d 	bl	10011c04 <_ZN8pimoroni22PicoGraphics_PenRGB8887set_penEhhh>
1000136a:	6834      	ldr	r4, [r6, #0]
1000136c:	ab12      	add	r3, sp, #72	; 0x48
1000136e:	9310      	str	r3, [sp, #64]	; 0x40
10001370:	2c00      	cmp	r4, #0
10001372:	d022      	beq.n	100013ba <_ZN7Genshin11drawElementERK7Element+0xbe>
10001374:	0020      	movs	r0, r4
10001376:	f01a f94d 	bl	1001b614 <strlen>
1000137a:	1822      	adds	r2, r4, r0
1000137c:	2300      	movs	r3, #0
1000137e:	0021      	movs	r1, r4
10001380:	a810      	add	r0, sp, #64	; 0x40
10001382:	f7fe ffc3 	bl	1000030c <_ZNSt7__cxx1112basic_stringIcSt11char_traitsIcESaIcEE12_M_constructIPKcEEvT_S8_St20forward_iterator_tag>
10001386:	2301      	movs	r3, #1
10001388:	2201      	movs	r2, #1
1000138a:	9202      	str	r2, [sp, #8]
1000138c:	2200      	movs	r2, #0
1000138e:	9201      	str	r2, [sp, #4]
10001390:	22fe      	movs	r2, #254	; 0xfe
10001392:	0592      	lsls	r2, r2, #22
10001394:	9200      	str	r2, [sp, #0]
10001396:	425b      	negs	r3, r3
10001398:	aa06      	add	r2, sp, #24
1000139a:	a910      	add	r1, sp, #64	; 0x40
1000139c:	0028      	movs	r0, r5
1000139e:	f010 fbcb 	bl	10011b38 <_ZN8pimoroni12PicoGraphics4textERKNSt7__cxx1112basic_stringIcSt11char_traitsIcESaIcEEERKNS_5PointElffh>
100013a2:	9810      	ldr	r0, [sp, #64]	; 0x40
100013a4:	ab12      	add	r3, sp, #72	; 0x48
100013a6:	4298      	cmp	r0, r3
100013a8:	d003      	beq.n	100013b2 <_ZN7Genshin11drawElementERK7Element+0xb6>
100013aa:	9b12      	ldr	r3, [sp, #72]	; 0x48
100013ac:	1c59      	adds	r1, r3, #1
100013ae:	f00b fc39 	bl	1000cc24 <_ZdlPvj>
100013b2:	b016      	add	sp, #88	; 0x58
100013b4:	bd70      	pop	{r4, r5, r6, pc}
100013b6:	2201      	movs	r2, #1
100013b8:	e7b0      	b.n	1000131c <_ZN7Genshin11drawElementERK7Element+0x20>
100013ba:	2201      	movs	r2, #1
100013bc:	e7de      	b.n	1000137c <_ZN7Genshin11drawElementERK7Element+0x80>
100013be:	46c0      	nop			; (mov r8, r8)
100013c0:	00002a20 	.word	0x00002a20

100013c4 <_ZNSt17_Function_handlerIFvvEZN7Genshin13startSequenceEvEUlvE0_E9_M_invokeERKSt9_Any_data>:
100013c4:	b510      	push	{r4, lr}
100013c6:	6801      	ldr	r1, [r0, #0]
100013c8:	c901      	ldmia	r1!, {r0}
100013ca:	f7ff ff97 	bl	100012fc <_ZN7Genshin11drawElementERK7Element>
100013ce:	bd10      	pop	{r4, pc}

100013d0 <_ZNSt17_Function_handlerIFvvEZN7Genshin13startSequenceEvEUlvE_E9_M_invokeERKSt9_Any_data>:
100013d0:	b570      	push	{r4, r5, r6, lr}
100013d2:	b094      	sub	sp, #80	; 0x50
100013d4:	0004      	movs	r4, r0
100013d6:	6806      	ldr	r6, [r0, #0]
100013d8:	ad10      	add	r5, sp, #64	; 0x40
100013da:	950e      	str	r5, [sp, #56]	; 0x38
100013dc:	4a21      	ldr	r2, [pc, #132]	; (10001464 <_ZNSt17_Function_handlerIFvvEZN7Genshin13startSequenceEvEUlvE_E9_M_invokeERKSt9_Any_data+0x94>)
100013de:	0011      	movs	r1, r2
100013e0:	3908      	subs	r1, #8
100013e2:	2300      	movs	r3, #0
100013e4:	a80e      	add	r0, sp, #56	; 0x38
100013e6:	f7fe ff91 	bl	1000030c <_ZNSt7__cxx1112basic_stringIcSt11char_traitsIcESaIcEE12_M_constructIPKcEEvT_S8_St20forward_iterator_tag>
100013ea:	2300      	movs	r3, #0
100013ec:	930c      	str	r3, [sp, #48]	; 0x30
100013ee:	930d      	str	r3, [sp, #52]	; 0x34
100013f0:	2200      	movs	r2, #0
100013f2:	a90e      	add	r1, sp, #56	; 0x38
100013f4:	0030      	movs	r0, r6
100013f6:	f7ff fe1b 	bl	10001030 <_ZN7Genshin8drawIconERKNSt7__cxx1112basic_stringIcSt11char_traitsIcESaIcEEEN8pimoroni5PointE>
100013fa:	980e      	ldr	r0, [sp, #56]	; 0x38
100013fc:	42a8      	cmp	r0, r5
100013fe:	d003      	beq.n	10001408 <_ZNSt17_Function_handlerIFvvEZN7Genshin13startSequenceEvEUlvE_E9_M_invokeERKSt9_Any_data+0x38>
10001400:	9b10      	ldr	r3, [sp, #64]	; 0x40
10001402:	1c59      	adds	r1, r3, #1
10001404:	f00b fc0e 	bl	1000cc24 <_ZdlPvj>
10001408:	6820      	ldr	r0, [r4, #0]
1000140a:	4b17      	ldr	r3, [pc, #92]	; (10001468 <_ZNSt17_Function_handlerIFvvEZN7Genshin13startSequenceEvEUlvE_E9_M_invokeERKSt9_Any_data+0x98>)
1000140c:	469c      	mov	ip, r3
1000140e:	4460      	add	r0, ip
10001410:	23ff      	movs	r3, #255	; 0xff
10001412:	22ff      	movs	r2, #255	; 0xff
10001414:	21ff      	movs	r1, #255	; 0xff
10001416:	f010 fbf5 	bl	10011c04 <_ZN8pimoroni22PicoGraphics_PenRGB8887set_penEhhh>
1000141a:	6824      	ldr	r4, [r4, #0]
1000141c:	ad08      	add	r5, sp, #32
1000141e:	9506      	str	r5, [sp, #24]
10001420:	4a12      	ldr	r2, [pc, #72]	; (1000146c <_ZNSt17_Function_handlerIFvvEZN7Genshin13startSequenceEvEUlvE_E9_M_invokeERKSt9_Any_data+0x9c>)
10001422:	1fd1      	subs	r1, r2, #7
10001424:	2300      	movs	r3, #0
10001426:	a806      	add	r0, sp, #24
10001428:	f7fe ff70 	bl	1000030c <_ZNSt7__cxx1112basic_stringIcSt11char_traitsIcESaIcEE12_M_constructIPKcEEvT_S8_St20forward_iterator_tag>
1000142c:	230c      	movs	r3, #12
1000142e:	9304      	str	r3, [sp, #16]
10001430:	3b0a      	subs	r3, #10
10001432:	9305      	str	r3, [sp, #20]
10001434:	3b01      	subs	r3, #1
10001436:	4a0c      	ldr	r2, [pc, #48]	; (10001468 <_ZNSt17_Function_handlerIFvvEZN7Genshin13startSequenceEvEUlvE_E9_M_invokeERKSt9_Any_data+0x98>)
10001438:	18a0      	adds	r0, r4, r2
1000143a:	2201      	movs	r2, #1
1000143c:	9202      	str	r2, [sp, #8]
1000143e:	2200      	movs	r2, #0
10001440:	9201      	str	r2, [sp, #4]
10001442:	22fe      	movs	r2, #254	; 0xfe
10001444:	0592      	lsls	r2, r2, #22
10001446:	9200      	str	r2, [sp, #0]
10001448:	425b      	negs	r3, r3
1000144a:	aa04      	add	r2, sp, #16
1000144c:	a906      	add	r1, sp, #24
1000144e:	f010 fb73 	bl	10011b38 <_ZN8pimoroni12PicoGraphics4textERKNSt7__cxx1112basic_stringIcSt11char_traitsIcESaIcEEERKNS_5PointElffh>
10001452:	9806      	ldr	r0, [sp, #24]
10001454:	42a8      	cmp	r0, r5
10001456:	d003      	beq.n	10001460 <_ZNSt17_Function_handlerIFvvEZN7Genshin13startSequenceEvEUlvE_E9_M_invokeERKSt9_Any_data+0x90>
10001458:	9b08      	ldr	r3, [sp, #32]
1000145a:	1c59      	adds	r1, r3, #1
1000145c:	f00b fbe2 	bl	1000cc24 <_ZdlPvj>
10001460:	b014      	add	sp, #80	; 0x50
10001462:	bd70      	pop	{r4, r5, r6, pc}
10001464:	1001c388 	.word	0x1001c388
10001468:	00002a20 	.word	0x00002a20
1000146c:	1001c393 	.word	0x1001c393

10001470 <_ZSt12__niter_baseIPK5ColorSt6vectorIS0_SaIS0_EEET_N9__gnu_cxx17__normal_iteratorIS6_T0_EE>:
10001470:	4770      	bx	lr

10001472 <_ZSt12__niter_baseIP5ColorSt6vectorIS0_SaIS0_EEET_N9__gnu_cxx17__normal_iteratorIS5_T0_EE>:
10001472:	4770      	bx	lr

10001474 <_ZNSt6vectorI5ColorSaIS0_EEaSERKS2_>:
10001474:	b5f8      	push	{r3, r4, r5, r6, r7, lr}
10001476:	46ce      	mov	lr, r9
10001478:	4647      	mov	r7, r8
1000147a:	b580      	push	{r7, lr}
1000147c:	0005      	movs	r5, r0
1000147e:	000f      	movs	r7, r1
10001480:	4281      	cmp	r1, r0
10001482:	d031      	beq.n	100014e8 <_ZNSt6vectorI5ColorSaIS0_EEaSERKS2_+0x74>
10001484:	684b      	ldr	r3, [r1, #4]
10001486:	4698      	mov	r8, r3
10001488:	680c      	ldr	r4, [r1, #0]
1000148a:	1b1e      	subs	r6, r3, r4
1000148c:	10b0      	asrs	r0, r6, #2
1000148e:	0083      	lsls	r3, r0, #2
10001490:	181b      	adds	r3, r3, r0
10001492:	011a      	lsls	r2, r3, #4
10001494:	189b      	adds	r3, r3, r2
10001496:	021a      	lsls	r2, r3, #8
10001498:	189b      	adds	r3, r3, r2
1000149a:	041a      	lsls	r2, r3, #16
1000149c:	189b      	adds	r3, r3, r2
1000149e:	005b      	lsls	r3, r3, #1
100014a0:	181b      	adds	r3, r3, r0
100014a2:	682a      	ldr	r2, [r5, #0]
100014a4:	4691      	mov	r9, r2
100014a6:	68aa      	ldr	r2, [r5, #8]
100014a8:	4649      	mov	r1, r9
100014aa:	1a52      	subs	r2, r2, r1
100014ac:	42b2      	cmp	r2, r6
100014ae:	d320      	bcc.n	100014f2 <_ZNSt6vectorI5ColorSaIS0_EEaSERKS2_+0x7e>
100014b0:	686b      	ldr	r3, [r5, #4]
100014b2:	1a5a      	subs	r2, r3, r1
100014b4:	42b2      	cmp	r2, r6
100014b6:	d340      	bcc.n	1000153a <_ZNSt6vectorI5ColorSaIS0_EEaSERKS2_+0xc6>
100014b8:	0020      	movs	r0, r4
100014ba:	f7ff ffd9 	bl	10001470 <_ZSt12__niter_baseIPK5ColorSt6vectorIS0_SaIS0_EEET_N9__gnu_cxx17__normal_iteratorIS6_T0_EE>
100014be:	0004      	movs	r4, r0
100014c0:	4640      	mov	r0, r8
100014c2:	f7ff ffd5 	bl	10001470 <_ZSt12__niter_baseIPK5ColorSt6vectorIS0_SaIS0_EEET_N9__gnu_cxx17__normal_iteratorIS6_T0_EE>
100014c6:	0007      	movs	r7, r0
100014c8:	4648      	mov	r0, r9
100014ca:	f7ff ffd2 	bl	10001472 <_ZSt12__niter_baseIP5ColorSt6vectorIS0_SaIS0_EEET_N9__gnu_cxx17__normal_iteratorIS5_T0_EE>
100014ce:	1b3a      	subs	r2, r7, r4
100014d0:	42bc      	cmp	r4, r7
100014d2:	d002      	beq.n	100014da <_ZNSt6vectorI5ColorSaIS0_EEaSERKS2_+0x66>
100014d4:	0021      	movs	r1, r4
100014d6:	f019 fda9 	bl	1001b02c <memmove>
100014da:	4648      	mov	r0, r9
100014dc:	f7ff ffc9 	bl	10001472 <_ZSt12__niter_baseIP5ColorSt6vectorIS0_SaIS0_EEET_N9__gnu_cxx17__normal_iteratorIS5_T0_EE>
100014e0:	682b      	ldr	r3, [r5, #0]
100014e2:	469c      	mov	ip, r3
100014e4:	4466      	add	r6, ip
100014e6:	606e      	str	r6, [r5, #4]
100014e8:	0028      	movs	r0, r5
100014ea:	bcc0      	pop	{r6, r7}
100014ec:	46b9      	mov	r9, r7
100014ee:	46b0      	mov	r8, r6
100014f0:	bdf8      	pop	{r3, r4, r5, r6, r7, pc}
100014f2:	2b00      	cmp	r3, #0
100014f4:	d00e      	beq.n	10001514 <_ZNSt6vectorI5ColorSaIS0_EEaSERKS2_+0xa0>
100014f6:	4a1b      	ldr	r2, [pc, #108]	; (10001564 <_ZNSt6vectorI5ColorSaIS0_EEaSERKS2_+0xf0>)
100014f8:	4293      	cmp	r3, r2
100014fa:	d809      	bhi.n	10001510 <_ZNSt6vectorI5ColorSaIS0_EEaSERKS2_+0x9c>
100014fc:	0058      	lsls	r0, r3, #1
100014fe:	18c0      	adds	r0, r0, r3
10001500:	0080      	lsls	r0, r0, #2
10001502:	f00b fb83 	bl	1000cc0c <_Znwj>
10001506:	4681      	mov	r9, r0
10001508:	0021      	movs	r1, r4
1000150a:	4640      	mov	r0, r8
1000150c:	464b      	mov	r3, r9
1000150e:	e006      	b.n	1000151e <_ZNSt6vectorI5ColorSaIS0_EEaSERKS2_+0xaa>
10001510:	f011 fd1c 	bl	10012f4c <_ZSt17__throw_bad_allocv>
10001514:	2300      	movs	r3, #0
10001516:	4699      	mov	r9, r3
10001518:	e7f6      	b.n	10001508 <_ZNSt6vectorI5ColorSaIS0_EEaSERKS2_+0x94>
1000151a:	c994      	ldmia	r1!, {r2, r4, r7}
1000151c:	c394      	stmia	r3!, {r2, r4, r7}
1000151e:	4281      	cmp	r1, r0
10001520:	d1fb      	bne.n	1000151a <_ZNSt6vectorI5ColorSaIS0_EEaSERKS2_+0xa6>
10001522:	6828      	ldr	r0, [r5, #0]
10001524:	68ab      	ldr	r3, [r5, #8]
10001526:	1a19      	subs	r1, r3, r0
10001528:	2800      	cmp	r0, #0
1000152a:	d001      	beq.n	10001530 <_ZNSt6vectorI5ColorSaIS0_EEaSERKS2_+0xbc>
1000152c:	f00b fb7a 	bl	1000cc24 <_ZdlPvj>
10001530:	464b      	mov	r3, r9
10001532:	602b      	str	r3, [r5, #0]
10001534:	199f      	adds	r7, r3, r6
10001536:	60af      	str	r7, [r5, #8]
10001538:	e7d2      	b.n	100014e0 <_ZNSt6vectorI5ColorSaIS0_EEaSERKS2_+0x6c>
1000153a:	18a3      	adds	r3, r4, r2
1000153c:	42a3      	cmp	r3, r4
1000153e:	d003      	beq.n	10001548 <_ZNSt6vectorI5ColorSaIS0_EEaSERKS2_+0xd4>
10001540:	0021      	movs	r1, r4
10001542:	4648      	mov	r0, r9
10001544:	f019 fd72 	bl	1001b02c <memmove>
10001548:	686a      	ldr	r2, [r5, #4]
1000154a:	682b      	ldr	r3, [r5, #0]
1000154c:	1ad3      	subs	r3, r2, r3
1000154e:	6839      	ldr	r1, [r7, #0]
10001550:	468c      	mov	ip, r1
10001552:	4463      	add	r3, ip
10001554:	6878      	ldr	r0, [r7, #4]
10001556:	e001      	b.n	1000155c <_ZNSt6vectorI5ColorSaIS0_EEaSERKS2_+0xe8>
10001558:	cb92      	ldmia	r3!, {r1, r4, r7}
1000155a:	c292      	stmia	r2!, {r1, r4, r7}
1000155c:	4298      	cmp	r0, r3
1000155e:	d1fb      	bne.n	10001558 <_ZNSt6vectorI5ColorSaIS0_EEaSERKS2_+0xe4>
10001560:	e7be      	b.n	100014e0 <_ZNSt6vectorI5ColorSaIS0_EEaSERKS2_+0x6c>
10001562:	46c0      	nop			; (mov r8, r8)
10001564:	0aaaaaaa 	.word	0x0aaaaaaa

10001568 <_ZNSt6vectorIS_I5ColorSaIS0_EESaIS2_EE13_M_assign_auxIPKS2_EEvT_S8_St20forward_iterator_tag>:
10001568:	b5f0      	push	{r4, r5, r6, r7, lr}
1000156a:	46de      	mov	lr, fp
1000156c:	4657      	mov	r7, sl
1000156e:	464e      	mov	r6, r9
10001570:	4645      	mov	r5, r8
10001572:	b5e0      	push	{r5, r6, r7, lr}
10001574:	b083      	sub	sp, #12
10001576:	0005      	movs	r5, r0
10001578:	9001      	str	r0, [sp, #4]
1000157a:	000c      	movs	r4, r1
1000157c:	4690      	mov	r8, r2
1000157e:	1a53      	subs	r3, r2, r1
10001580:	469b      	mov	fp, r3
10001582:	1098      	asrs	r0, r3, #2
10001584:	0083      	lsls	r3, r0, #2
10001586:	181b      	adds	r3, r3, r0
10001588:	011a      	lsls	r2, r3, #4
1000158a:	189b      	adds	r3, r3, r2
1000158c:	021a      	lsls	r2, r3, #8
1000158e:	189b      	adds	r3, r3, r2
10001590:	041a      	lsls	r2, r3, #16
10001592:	189b      	adds	r3, r3, r2
10001594:	005b      	lsls	r3, r3, #1
10001596:	181b      	adds	r3, r3, r0
10001598:	002a      	movs	r2, r5
1000159a:	682d      	ldr	r5, [r5, #0]
1000159c:	6892      	ldr	r2, [r2, #8]
1000159e:	1b52      	subs	r2, r2, r5
100015a0:	4659      	mov	r1, fp
100015a2:	455a      	cmp	r2, fp
100015a4:	d300      	bcc.n	100015a8 <_ZNSt6vectorIS_I5ColorSaIS0_EESaIS2_EE13_M_assign_auxIPKS2_EEvT_S8_St20forward_iterator_tag+0x40>
100015a6:	e074      	b.n	10001692 <_ZNSt6vectorIS_I5ColorSaIS0_EESaIS2_EE13_M_assign_auxIPKS2_EEvT_S8_St20forward_iterator_tag+0x12a>
100015a8:	4a85      	ldr	r2, [pc, #532]	; (100017c0 <_ZNSt6vectorIS_I5ColorSaIS0_EESaIS2_EE13_M_assign_auxIPKS2_EEvT_S8_St20forward_iterator_tag+0x258>)
100015aa:	4291      	cmp	r1, r2
100015ac:	d80c      	bhi.n	100015c8 <_ZNSt6vectorIS_I5ColorSaIS0_EESaIS2_EE13_M_assign_auxIPKS2_EEvT_S8_St20forward_iterator_tag+0x60>
100015ae:	2b00      	cmp	r3, #0
100015b0:	d00f      	beq.n	100015d2 <_ZNSt6vectorIS_I5ColorSaIS0_EESaIS2_EE13_M_assign_auxIPKS2_EEvT_S8_St20forward_iterator_tag+0x6a>
100015b2:	4a84      	ldr	r2, [pc, #528]	; (100017c4 <_ZNSt6vectorIS_I5ColorSaIS0_EESaIS2_EE13_M_assign_auxIPKS2_EEvT_S8_St20forward_iterator_tag+0x25c>)
100015b4:	4293      	cmp	r3, r2
100015b6:	d80a      	bhi.n	100015ce <_ZNSt6vectorIS_I5ColorSaIS0_EESaIS2_EE13_M_assign_auxIPKS2_EEvT_S8_St20forward_iterator_tag+0x66>
100015b8:	0058      	lsls	r0, r3, #1
100015ba:	18c0      	adds	r0, r0, r3
100015bc:	0080      	lsls	r0, r0, #2
100015be:	f00b fb25 	bl	1000cc0c <_Znwj>
100015c2:	4681      	mov	r9, r0
100015c4:	464d      	mov	r5, r9
100015c6:	e012      	b.n	100015ee <_ZNSt6vectorIS_I5ColorSaIS0_EESaIS2_EE13_M_assign_auxIPKS2_EEvT_S8_St20forward_iterator_tag+0x86>
100015c8:	487f      	ldr	r0, [pc, #508]	; (100017c8 <_ZNSt6vectorIS_I5ColorSaIS0_EESaIS2_EE13_M_assign_auxIPKS2_EEvT_S8_St20forward_iterator_tag+0x260>)
100015ca:	f011 fce7 	bl	10012f9c <_ZSt20__throw_length_errorPKc>
100015ce:	f011 fcbd 	bl	10012f4c <_ZSt17__throw_bad_allocv>
100015d2:	2300      	movs	r3, #0
100015d4:	4699      	mov	r9, r3
100015d6:	e7f5      	b.n	100015c4 <_ZNSt6vectorIS_I5ColorSaIS0_EESaIS2_EE13_M_assign_auxIPKS2_EEvT_S8_St20forward_iterator_tag+0x5c>
100015d8:	f011 fcb8 	bl	10012f4c <_ZSt17__throw_bad_allocv>
100015dc:	2000      	movs	r0, #0
100015de:	e027      	b.n	10001630 <_ZNSt6vectorIS_I5ColorSaIS0_EESaIS2_EE13_M_assign_auxIPKS2_EEvT_S8_St20forward_iterator_tag+0xc8>
100015e0:	cbc2      	ldmia	r3!, {r1, r6, r7}
100015e2:	c2c2      	stmia	r2!, {r1, r6, r7}
100015e4:	4283      	cmp	r3, r0
100015e6:	d1fb      	bne.n	100015e0 <_ZNSt6vectorIS_I5ColorSaIS0_EESaIS2_EE13_M_assign_auxIPKS2_EEvT_S8_St20forward_iterator_tag+0x78>
100015e8:	606a      	str	r2, [r5, #4]
100015ea:	340c      	adds	r4, #12
100015ec:	350c      	adds	r5, #12
100015ee:	45a0      	cmp	r8, r4
100015f0:	d02a      	beq.n	10001648 <_ZNSt6vectorIS_I5ColorSaIS0_EESaIS2_EE13_M_assign_auxIPKS2_EEvT_S8_St20forward_iterator_tag+0xe0>
100015f2:	002e      	movs	r6, r5
100015f4:	6863      	ldr	r3, [r4, #4]
100015f6:	6822      	ldr	r2, [r4, #0]
100015f8:	1a9a      	subs	r2, r3, r2
100015fa:	1092      	asrs	r2, r2, #2
100015fc:	0093      	lsls	r3, r2, #2
100015fe:	189b      	adds	r3, r3, r2
10001600:	0119      	lsls	r1, r3, #4
10001602:	185b      	adds	r3, r3, r1
10001604:	0219      	lsls	r1, r3, #8
10001606:	185b      	adds	r3, r3, r1
10001608:	0419      	lsls	r1, r3, #16
1000160a:	185b      	adds	r3, r3, r1
1000160c:	005b      	lsls	r3, r3, #1
1000160e:	469a      	mov	sl, r3
10001610:	4492      	add	sl, r2
10001612:	4652      	mov	r2, sl
10001614:	2300      	movs	r3, #0
10001616:	602b      	str	r3, [r5, #0]
10001618:	606b      	str	r3, [r5, #4]
1000161a:	60ab      	str	r3, [r5, #8]
1000161c:	2a00      	cmp	r2, #0
1000161e:	d0dd      	beq.n	100015dc <_ZNSt6vectorIS_I5ColorSaIS0_EESaIS2_EE13_M_assign_auxIPKS2_EEvT_S8_St20forward_iterator_tag+0x74>
10001620:	4b68      	ldr	r3, [pc, #416]	; (100017c4 <_ZNSt6vectorIS_I5ColorSaIS0_EESaIS2_EE13_M_assign_auxIPKS2_EEvT_S8_St20forward_iterator_tag+0x25c>)
10001622:	429a      	cmp	r2, r3
10001624:	d8d8      	bhi.n	100015d8 <_ZNSt6vectorIS_I5ColorSaIS0_EESaIS2_EE13_M_assign_auxIPKS2_EEvT_S8_St20forward_iterator_tag+0x70>
10001626:	0050      	lsls	r0, r2, #1
10001628:	4450      	add	r0, sl
1000162a:	0080      	lsls	r0, r0, #2
1000162c:	f00b faee 	bl	1000cc0c <_Znwj>
10001630:	6030      	str	r0, [r6, #0]
10001632:	6070      	str	r0, [r6, #4]
10001634:	4653      	mov	r3, sl
10001636:	005b      	lsls	r3, r3, #1
10001638:	4453      	add	r3, sl
1000163a:	009b      	lsls	r3, r3, #2
1000163c:	18c0      	adds	r0, r0, r3
1000163e:	60b0      	str	r0, [r6, #8]
10001640:	682a      	ldr	r2, [r5, #0]
10001642:	6823      	ldr	r3, [r4, #0]
10001644:	6860      	ldr	r0, [r4, #4]
10001646:	e7cd      	b.n	100015e4 <_ZNSt6vectorIS_I5ColorSaIS0_EESaIS2_EE13_M_assign_auxIPKS2_EEvT_S8_St20forward_iterator_tag+0x7c>
10001648:	9b01      	ldr	r3, [sp, #4]
1000164a:	681c      	ldr	r4, [r3, #0]
1000164c:	685d      	ldr	r5, [r3, #4]
1000164e:	e002      	b.n	10001656 <_ZNSt6vectorIS_I5ColorSaIS0_EESaIS2_EE13_M_assign_auxIPKS2_EEvT_S8_St20forward_iterator_tag+0xee>
10001650:	f00b fae8 	bl	1000cc24 <_ZdlPvj>
10001654:	340c      	adds	r4, #12
10001656:	42a5      	cmp	r5, r4
10001658:	d005      	beq.n	10001666 <_ZNSt6vectorIS_I5ColorSaIS0_EESaIS2_EE13_M_assign_auxIPKS2_EEvT_S8_St20forward_iterator_tag+0xfe>
1000165a:	6820      	ldr	r0, [r4, #0]
1000165c:	68a3      	ldr	r3, [r4, #8]
1000165e:	1a19      	subs	r1, r3, r0
10001660:	2800      	cmp	r0, #0
10001662:	d1f5      	bne.n	10001650 <_ZNSt6vectorIS_I5ColorSaIS0_EESaIS2_EE13_M_assign_auxIPKS2_EEvT_S8_St20forward_iterator_tag+0xe8>
10001664:	e7f6      	b.n	10001654 <_ZNSt6vectorIS_I5ColorSaIS0_EESaIS2_EE13_M_assign_auxIPKS2_EEvT_S8_St20forward_iterator_tag+0xec>
10001666:	9b01      	ldr	r3, [sp, #4]
10001668:	6818      	ldr	r0, [r3, #0]
1000166a:	689b      	ldr	r3, [r3, #8]
1000166c:	1a19      	subs	r1, r3, r0
1000166e:	2800      	cmp	r0, #0
10001670:	d001      	beq.n	10001676 <_ZNSt6vectorIS_I5ColorSaIS0_EESaIS2_EE13_M_assign_auxIPKS2_EEvT_S8_St20forward_iterator_tag+0x10e>
10001672:	f00b fad7 	bl	1000cc24 <_ZdlPvj>
10001676:	464b      	mov	r3, r9
10001678:	9a01      	ldr	r2, [sp, #4]
1000167a:	6013      	str	r3, [r2, #0]
1000167c:	4648      	mov	r0, r9
1000167e:	4458      	add	r0, fp
10001680:	6050      	str	r0, [r2, #4]
10001682:	6090      	str	r0, [r2, #8]
10001684:	b003      	add	sp, #12
10001686:	bcf0      	pop	{r4, r5, r6, r7}
10001688:	46bb      	mov	fp, r7
1000168a:	46b2      	mov	sl, r6
1000168c:	46a9      	mov	r9, r5
1000168e:	46a0      	mov	r8, r4
10001690:	bdf0      	pop	{r4, r5, r6, r7, pc}
10001692:	9b01      	ldr	r3, [sp, #4]
10001694:	685b      	ldr	r3, [r3, #4]
10001696:	1b5a      	subs	r2, r3, r5
10001698:	455a      	cmp	r2, fp
1000169a:	d32a      	bcc.n	100016f2 <_ZNSt6vectorIS_I5ColorSaIS0_EESaIS2_EE13_M_assign_auxIPKS2_EEvT_S8_St20forward_iterator_tag+0x18a>
1000169c:	4643      	mov	r3, r8
1000169e:	1b1a      	subs	r2, r3, r4
100016a0:	1092      	asrs	r2, r2, #2
100016a2:	0093      	lsls	r3, r2, #2
100016a4:	189b      	adds	r3, r3, r2
100016a6:	0119      	lsls	r1, r3, #4
100016a8:	185b      	adds	r3, r3, r1
100016aa:	021e      	lsls	r6, r3, #8
100016ac:	199b      	adds	r3, r3, r6
100016ae:	041e      	lsls	r6, r3, #16
100016b0:	199e      	adds	r6, r3, r6
100016b2:	0076      	lsls	r6, r6, #1
100016b4:	18b6      	adds	r6, r6, r2
100016b6:	2e00      	cmp	r6, #0
100016b8:	dd07      	ble.n	100016ca <_ZNSt6vectorIS_I5ColorSaIS0_EESaIS2_EE13_M_assign_auxIPKS2_EEvT_S8_St20forward_iterator_tag+0x162>
100016ba:	0021      	movs	r1, r4
100016bc:	0028      	movs	r0, r5
100016be:	f7ff fed9 	bl	10001474 <_ZNSt6vectorI5ColorSaIS0_EEaSERKS2_>
100016c2:	340c      	adds	r4, #12
100016c4:	350c      	adds	r5, #12
100016c6:	3e01      	subs	r6, #1
100016c8:	e7f5      	b.n	100016b6 <_ZNSt6vectorIS_I5ColorSaIS0_EESaIS2_EE13_M_assign_auxIPKS2_EEvT_S8_St20forward_iterator_tag+0x14e>
100016ca:	9b01      	ldr	r3, [sp, #4]
100016cc:	685e      	ldr	r6, [r3, #4]
100016ce:	42ae      	cmp	r6, r5
100016d0:	d0d8      	beq.n	10001684 <_ZNSt6vectorIS_I5ColorSaIS0_EESaIS2_EE13_M_assign_auxIPKS2_EEvT_S8_St20forward_iterator_tag+0x11c>
100016d2:	002c      	movs	r4, r5
100016d4:	e002      	b.n	100016dc <_ZNSt6vectorIS_I5ColorSaIS0_EESaIS2_EE13_M_assign_auxIPKS2_EEvT_S8_St20forward_iterator_tag+0x174>
100016d6:	f00b faa5 	bl	1000cc24 <_ZdlPvj>
100016da:	340c      	adds	r4, #12
100016dc:	42a6      	cmp	r6, r4
100016de:	d005      	beq.n	100016ec <_ZNSt6vectorIS_I5ColorSaIS0_EESaIS2_EE13_M_assign_auxIPKS2_EEvT_S8_St20forward_iterator_tag+0x184>
100016e0:	6820      	ldr	r0, [r4, #0]
100016e2:	68a3      	ldr	r3, [r4, #8]
100016e4:	1a19      	subs	r1, r3, r0
100016e6:	2800      	cmp	r0, #0
100016e8:	d1f5      	bne.n	100016d6 <_ZNSt6vectorIS_I5ColorSaIS0_EESaIS2_EE13_M_assign_auxIPKS2_EEvT_S8_St20forward_iterator_tag+0x16e>
100016ea:	e7f6      	b.n	100016da <_ZNSt6vectorIS_I5ColorSaIS0_EESaIS2_EE13_M_assign_auxIPKS2_EEvT_S8_St20forward_iterator_tag+0x172>
100016ec:	9b01      	ldr	r3, [sp, #4]
100016ee:	605d      	str	r5, [r3, #4]
100016f0:	e7c8      	b.n	10001684 <_ZNSt6vectorIS_I5ColorSaIS0_EESaIS2_EE13_M_assign_auxIPKS2_EEvT_S8_St20forward_iterator_tag+0x11c>
100016f2:	9801      	ldr	r0, [sp, #4]
100016f4:	6802      	ldr	r2, [r0, #0]
100016f6:	1a9a      	subs	r2, r3, r2
100016f8:	1092      	asrs	r2, r2, #2
100016fa:	0091      	lsls	r1, r2, #2
100016fc:	1889      	adds	r1, r1, r2
100016fe:	010b      	lsls	r3, r1, #4
10001700:	18c9      	adds	r1, r1, r3
10001702:	020b      	lsls	r3, r1, #8
10001704:	18c9      	adds	r1, r1, r3
10001706:	040b      	lsls	r3, r1, #16
10001708:	18c9      	adds	r1, r1, r3
1000170a:	0049      	lsls	r1, r1, #1
1000170c:	188a      	adds	r2, r1, r2
1000170e:	0053      	lsls	r3, r2, #1
10001710:	189b      	adds	r3, r3, r2
10001712:	009b      	lsls	r3, r3, #2
10001714:	18e5      	adds	r5, r4, r3
10001716:	6802      	ldr	r2, [r0, #0]
10001718:	4691      	mov	r9, r2
1000171a:	109e      	asrs	r6, r3, #2
1000171c:	199b      	adds	r3, r3, r6
1000171e:	0119      	lsls	r1, r3, #4
10001720:	185b      	adds	r3, r3, r1
10001722:	0219      	lsls	r1, r3, #8
10001724:	185b      	adds	r3, r3, r1
10001726:	0419      	lsls	r1, r3, #16
10001728:	185b      	adds	r3, r3, r1
1000172a:	005b      	lsls	r3, r3, #1
1000172c:	199e      	adds	r6, r3, r6
1000172e:	2e00      	cmp	r6, #0
10001730:	dd09      	ble.n	10001746 <_ZNSt6vectorIS_I5ColorSaIS0_EESaIS2_EE13_M_assign_auxIPKS2_EEvT_S8_St20forward_iterator_tag+0x1de>
10001732:	0021      	movs	r1, r4
10001734:	4648      	mov	r0, r9
10001736:	f7ff fe9d 	bl	10001474 <_ZNSt6vectorI5ColorSaIS0_EEaSERKS2_>
1000173a:	340c      	adds	r4, #12
1000173c:	230c      	movs	r3, #12
1000173e:	469c      	mov	ip, r3
10001740:	44e1      	add	r9, ip
10001742:	3e01      	subs	r6, #1
10001744:	e7f3      	b.n	1000172e <_ZNSt6vectorIS_I5ColorSaIS0_EESaIS2_EE13_M_assign_auxIPKS2_EEvT_S8_St20forward_iterator_tag+0x1c6>
10001746:	9b01      	ldr	r3, [sp, #4]
10001748:	685e      	ldr	r6, [r3, #4]
1000174a:	e006      	b.n	1000175a <_ZNSt6vectorIS_I5ColorSaIS0_EESaIS2_EE13_M_assign_auxIPKS2_EEvT_S8_St20forward_iterator_tag+0x1f2>
1000174c:	f011 fbfe 	bl	10012f4c <_ZSt17__throw_bad_allocv>
10001750:	2000      	movs	r0, #0
10001752:	e021      	b.n	10001798 <_ZNSt6vectorIS_I5ColorSaIS0_EESaIS2_EE13_M_assign_auxIPKS2_EEvT_S8_St20forward_iterator_tag+0x230>
10001754:	6072      	str	r2, [r6, #4]
10001756:	350c      	adds	r5, #12
10001758:	360c      	adds	r6, #12
1000175a:	45a8      	cmp	r8, r5
1000175c:	d02d      	beq.n	100017ba <_ZNSt6vectorIS_I5ColorSaIS0_EESaIS2_EE13_M_assign_auxIPKS2_EEvT_S8_St20forward_iterator_tag+0x252>
1000175e:	46b1      	mov	r9, r6
10001760:	686b      	ldr	r3, [r5, #4]
10001762:	682a      	ldr	r2, [r5, #0]
10001764:	1a9a      	subs	r2, r3, r2
10001766:	1092      	asrs	r2, r2, #2
10001768:	0093      	lsls	r3, r2, #2
1000176a:	189b      	adds	r3, r3, r2
1000176c:	011c      	lsls	r4, r3, #4
1000176e:	191b      	adds	r3, r3, r4
10001770:	021c      	lsls	r4, r3, #8
10001772:	191b      	adds	r3, r3, r4
10001774:	041c      	lsls	r4, r3, #16
10001776:	191c      	adds	r4, r3, r4
10001778:	0064      	lsls	r4, r4, #1
1000177a:	18a4      	adds	r4, r4, r2
1000177c:	2300      	movs	r3, #0
1000177e:	6033      	str	r3, [r6, #0]
10001780:	6073      	str	r3, [r6, #4]
10001782:	60b3      	str	r3, [r6, #8]
10001784:	2c00      	cmp	r4, #0
10001786:	d0e3      	beq.n	10001750 <_ZNSt6vectorIS_I5ColorSaIS0_EESaIS2_EE13_M_assign_auxIPKS2_EEvT_S8_St20forward_iterator_tag+0x1e8>
10001788:	4b0e      	ldr	r3, [pc, #56]	; (100017c4 <_ZNSt6vectorIS_I5ColorSaIS0_EESaIS2_EE13_M_assign_auxIPKS2_EEvT_S8_St20forward_iterator_tag+0x25c>)
1000178a:	429c      	cmp	r4, r3
1000178c:	d8de      	bhi.n	1000174c <_ZNSt6vectorIS_I5ColorSaIS0_EESaIS2_EE13_M_assign_auxIPKS2_EEvT_S8_St20forward_iterator_tag+0x1e4>
1000178e:	0060      	lsls	r0, r4, #1
10001790:	1900      	adds	r0, r0, r4
10001792:	0080      	lsls	r0, r0, #2
10001794:	f00b fa3a 	bl	1000cc0c <_Znwj>
10001798:	464b      	mov	r3, r9
1000179a:	6018      	str	r0, [r3, #0]
1000179c:	6058      	str	r0, [r3, #4]
1000179e:	0063      	lsls	r3, r4, #1
100017a0:	191c      	adds	r4, r3, r4
100017a2:	00a4      	lsls	r4, r4, #2
100017a4:	1900      	adds	r0, r0, r4
100017a6:	464b      	mov	r3, r9
100017a8:	6098      	str	r0, [r3, #8]
100017aa:	6832      	ldr	r2, [r6, #0]
100017ac:	682b      	ldr	r3, [r5, #0]
100017ae:	6868      	ldr	r0, [r5, #4]
100017b0:	4283      	cmp	r3, r0
100017b2:	d0cf      	beq.n	10001754 <_ZNSt6vectorIS_I5ColorSaIS0_EESaIS2_EE13_M_assign_auxIPKS2_EEvT_S8_St20forward_iterator_tag+0x1ec>
100017b4:	cb92      	ldmia	r3!, {r1, r4, r7}
100017b6:	c292      	stmia	r2!, {r1, r4, r7}
100017b8:	e7fa      	b.n	100017b0 <_ZNSt6vectorIS_I5ColorSaIS0_EESaIS2_EE13_M_assign_auxIPKS2_EEvT_S8_St20forward_iterator_tag+0x248>
100017ba:	9b01      	ldr	r3, [sp, #4]
100017bc:	605e      	str	r6, [r3, #4]
100017be:	e761      	b.n	10001684 <_ZNSt6vectorIS_I5ColorSaIS0_EESaIS2_EE13_M_assign_auxIPKS2_EEvT_S8_St20forward_iterator_tag+0x11c>
100017c0:	7ffffff8 	.word	0x7ffffff8
100017c4:	0aaaaaaa 	.word	0x0aaaaaaa
100017c8:	1001c394 	.word	0x1001c394

100017cc <_ZN7Genshin9loadIconsEv>:
100017cc:	b5f0      	push	{r4, r5, r6, r7, lr}
100017ce:	46d6      	mov	lr, sl
100017d0:	464f      	mov	r7, r9
100017d2:	4646      	mov	r6, r8
100017d4:	b5c0      	push	{r6, r7, lr}
100017d6:	4cb8      	ldr	r4, [pc, #736]	; (10001ab8 <_ZN7Genshin9loadIconsEv+0x2ec>)
100017d8:	44a5      	add	sp, r4
100017da:	0005      	movs	r5, r0
100017dc:	2400      	movs	r4, #0
100017de:	9402      	str	r4, [sp, #8]
100017e0:	9403      	str	r4, [sp, #12]
100017e2:	9404      	str	r4, [sp, #16]
100017e4:	9405      	str	r4, [sp, #20]
100017e6:	9406      	str	r4, [sp, #24]
100017e8:	9407      	str	r4, [sp, #28]
100017ea:	9408      	str	r4, [sp, #32]
100017ec:	9409      	str	r4, [sp, #36]	; 0x24
100017ee:	940a      	str	r4, [sp, #40]	; 0x28
100017f0:	940b      	str	r4, [sp, #44]	; 0x2c
100017f2:	940c      	str	r4, [sp, #48]	; 0x30
100017f4:	940d      	str	r4, [sp, #52]	; 0x34
100017f6:	2309      	movs	r3, #9
100017f8:	930e      	str	r3, [sp, #56]	; 0x38
100017fa:	3306      	adds	r3, #6
100017fc:	930f      	str	r3, [sp, #60]	; 0x3c
100017fe:	3b01      	subs	r3, #1
10001800:	9310      	str	r3, [sp, #64]	; 0x40
10001802:	3b07      	subs	r3, #7
10001804:	9311      	str	r3, [sp, #68]	; 0x44
10001806:	3304      	adds	r3, #4
10001808:	9312      	str	r3, [sp, #72]	; 0x48
1000180a:	220a      	movs	r2, #10
1000180c:	9213      	str	r2, [sp, #76]	; 0x4c
1000180e:	9414      	str	r4, [sp, #80]	; 0x50
10001810:	9415      	str	r4, [sp, #84]	; 0x54
10001812:	9416      	str	r4, [sp, #88]	; 0x58
10001814:	9417      	str	r4, [sp, #92]	; 0x5c
10001816:	9418      	str	r4, [sp, #96]	; 0x60
10001818:	9419      	str	r4, [sp, #100]	; 0x64
1000181a:	941a      	str	r4, [sp, #104]	; 0x68
1000181c:	941b      	str	r4, [sp, #108]	; 0x6c
1000181e:	941c      	str	r4, [sp, #112]	; 0x70
10001820:	941d      	str	r4, [sp, #116]	; 0x74
10001822:	941e      	str	r4, [sp, #120]	; 0x78
10001824:	941f      	str	r4, [sp, #124]	; 0x7c
10001826:	9420      	str	r4, [sp, #128]	; 0x80
10001828:	9421      	str	r4, [sp, #132]	; 0x84
1000182a:	3276      	adds	r2, #118	; 0x76
1000182c:	4669      	mov	r1, sp
1000182e:	2008      	movs	r0, #8
10001830:	1809      	adds	r1, r1, r0
10001832:	508c      	str	r4, [r1, r2]
10001834:	21c8      	movs	r1, #200	; 0xc8
10001836:	00c9      	lsls	r1, r1, #3
10001838:	4469      	add	r1, sp
1000183a:	aa02      	add	r2, sp, #8
1000183c:	600a      	str	r2, [r1, #0]
1000183e:	604b      	str	r3, [r1, #4]
10001840:	26a6      	movs	r6, #166	; 0xa6
10001842:	00f6      	lsls	r6, r6, #3
10001844:	446e      	add	r6, sp
10001846:	2208      	movs	r2, #8
10001848:	0030      	movs	r0, r6
1000184a:	f00b f9d9 	bl	1000cc00 <__wrap___aeabi_memcpy>
1000184e:	4b9b      	ldr	r3, [pc, #620]	; (10001abc <_ZN7Genshin9loadIconsEv+0x2f0>)
10001850:	446b      	add	r3, sp
10001852:	601c      	str	r4, [r3, #0]
10001854:	23b7      	movs	r3, #183	; 0xb7
10001856:	00db      	lsls	r3, r3, #3
10001858:	446b      	add	r3, sp
1000185a:	601c      	str	r4, [r3, #0]
1000185c:	4b98      	ldr	r3, [pc, #608]	; (10001ac0 <_ZN7Genshin9loadIconsEv+0x2f4>)
1000185e:	446b      	add	r3, sp
10001860:	601c      	str	r4, [r3, #0]
10001862:	6834      	ldr	r4, [r6, #0]
10001864:	6873      	ldr	r3, [r6, #4]
10001866:	005f      	lsls	r7, r3, #1
10001868:	18ff      	adds	r7, r7, r3
1000186a:	00bf      	lsls	r7, r7, #2
1000186c:	19e6      	adds	r6, r4, r7
1000186e:	10ba      	asrs	r2, r7, #2
10001870:	18bb      	adds	r3, r7, r2
10001872:	0118      	lsls	r0, r3, #4
10001874:	181b      	adds	r3, r3, r0
10001876:	0218      	lsls	r0, r3, #8
10001878:	181b      	adds	r3, r3, r0
1000187a:	0418      	lsls	r0, r3, #16
1000187c:	1818      	adds	r0, r3, r0
1000187e:	0040      	lsls	r0, r0, #1
10001880:	1880      	adds	r0, r0, r2
10001882:	4a90      	ldr	r2, [pc, #576]	; (10001ac4 <_ZN7Genshin9loadIconsEv+0x2f8>)
10001884:	4297      	cmp	r7, r2
10001886:	d817      	bhi.n	100018b8 <_ZN7Genshin9loadIconsEv+0xec>
10001888:	2800      	cmp	r0, #0
1000188a:	d01a      	beq.n	100018c2 <_ZN7Genshin9loadIconsEv+0xf6>
1000188c:	4a8e      	ldr	r2, [pc, #568]	; (10001ac8 <_ZN7Genshin9loadIconsEv+0x2fc>)
1000188e:	4290      	cmp	r0, r2
10001890:	d815      	bhi.n	100018be <_ZN7Genshin9loadIconsEv+0xf2>
10001892:	0043      	lsls	r3, r0, #1
10001894:	1818      	adds	r0, r3, r0
10001896:	0080      	lsls	r0, r0, #2
10001898:	f00b f9b8 	bl	1000cc0c <_Znwj>
1000189c:	4b87      	ldr	r3, [pc, #540]	; (10001abc <_ZN7Genshin9loadIconsEv+0x2f0>)
1000189e:	446b      	add	r3, sp
100018a0:	6018      	str	r0, [r3, #0]
100018a2:	19c7      	adds	r7, r0, r7
100018a4:	4b86      	ldr	r3, [pc, #536]	; (10001ac0 <_ZN7Genshin9loadIconsEv+0x2f4>)
100018a6:	446b      	add	r3, sp
100018a8:	601f      	str	r7, [r3, #0]
100018aa:	42a6      	cmp	r6, r4
100018ac:	d00b      	beq.n	100018c6 <_ZN7Genshin9loadIconsEv+0xfa>
100018ae:	0003      	movs	r3, r0
100018b0:	cc07      	ldmia	r4!, {r0, r1, r2}
100018b2:	c307      	stmia	r3!, {r0, r1, r2}
100018b4:	0018      	movs	r0, r3
100018b6:	e7f8      	b.n	100018aa <_ZN7Genshin9loadIconsEv+0xde>
100018b8:	4884      	ldr	r0, [pc, #528]	; (10001acc <_ZN7Genshin9loadIconsEv+0x300>)
100018ba:	f011 fb6f 	bl	10012f9c <_ZSt20__throw_length_errorPKc>
100018be:	f011 fb45 	bl	10012f4c <_ZSt17__throw_bad_allocv>
100018c2:	2000      	movs	r0, #0
100018c4:	e7ea      	b.n	1000189c <_ZN7Genshin9loadIconsEv+0xd0>
100018c6:	4e7d      	ldr	r6, [pc, #500]	; (10001abc <_ZN7Genshin9loadIconsEv+0x2f0>)
100018c8:	446e      	add	r6, sp
100018ca:	6070      	str	r0, [r6, #4]
100018cc:	2400      	movs	r4, #0
100018ce:	9423      	str	r4, [sp, #140]	; 0x8c
100018d0:	9424      	str	r4, [sp, #144]	; 0x90
100018d2:	9425      	str	r4, [sp, #148]	; 0x94
100018d4:	9426      	str	r4, [sp, #152]	; 0x98
100018d6:	9427      	str	r4, [sp, #156]	; 0x9c
100018d8:	9428      	str	r4, [sp, #160]	; 0xa0
100018da:	230e      	movs	r3, #14
100018dc:	9329      	str	r3, [sp, #164]	; 0xa4
100018de:	3309      	adds	r3, #9
100018e0:	932a      	str	r3, [sp, #168]	; 0xa8
100018e2:	3b03      	subs	r3, #3
100018e4:	932b      	str	r3, [sp, #172]	; 0xac
100018e6:	222a      	movs	r2, #42	; 0x2a
100018e8:	922c      	str	r2, [sp, #176]	; 0xb0
100018ea:	3333      	adds	r3, #51	; 0x33
100018ec:	932d      	str	r3, [sp, #180]	; 0xb4
100018ee:	3b09      	subs	r3, #9
100018f0:	932e      	str	r3, [sp, #184]	; 0xb8
100018f2:	922f      	str	r2, [sp, #188]	; 0xbc
100018f4:	321f      	adds	r2, #31
100018f6:	9230      	str	r2, [sp, #192]	; 0xc0
100018f8:	9331      	str	r3, [sp, #196]	; 0xc4
100018fa:	332a      	adds	r3, #42	; 0x2a
100018fc:	9332      	str	r3, [sp, #200]	; 0xc8
100018fe:	3346      	adds	r3, #70	; 0x46
10001900:	9333      	str	r3, [sp, #204]	; 0xcc
10001902:	3b16      	subs	r3, #22
10001904:	9334      	str	r3, [sp, #208]	; 0xd0
10001906:	3b77      	subs	r3, #119	; 0x77
10001908:	9335      	str	r3, [sp, #212]	; 0xd4
1000190a:	3317      	adds	r3, #23
1000190c:	9336      	str	r3, [sp, #216]	; 0xd8
1000190e:	3b07      	subs	r3, #7
10001910:	9337      	str	r3, [sp, #220]	; 0xdc
10001912:	9438      	str	r4, [sp, #224]	; 0xe0
10001914:	9439      	str	r4, [sp, #228]	; 0xe4
10001916:	943a      	str	r4, [sp, #232]	; 0xe8
10001918:	943b      	str	r4, [sp, #236]	; 0xec
1000191a:	943c      	str	r4, [sp, #240]	; 0xf0
1000191c:	943d      	str	r4, [sp, #244]	; 0xf4
1000191e:	943e      	str	r4, [sp, #248]	; 0xf8
10001920:	943f      	str	r4, [sp, #252]	; 0xfc
10001922:	9440      	str	r4, [sp, #256]	; 0x100
10001924:	9441      	str	r4, [sp, #260]	; 0x104
10001926:	9442      	str	r4, [sp, #264]	; 0x108
10001928:	334f      	adds	r3, #79	; 0x4f
1000192a:	466a      	mov	r2, sp
1000192c:	218c      	movs	r1, #140	; 0x8c
1000192e:	1852      	adds	r2, r2, r1
10001930:	50d4      	str	r4, [r2, r3]
10001932:	21c9      	movs	r1, #201	; 0xc9
10001934:	00c9      	lsls	r1, r1, #3
10001936:	4469      	add	r1, sp
10001938:	600a      	str	r2, [r1, #0]
1000193a:	230b      	movs	r3, #11
1000193c:	604b      	str	r3, [r1, #4]
1000193e:	27a6      	movs	r7, #166	; 0xa6
10001940:	00ff      	lsls	r7, r7, #3
10001942:	446f      	add	r7, sp
10001944:	2208      	movs	r2, #8
10001946:	0038      	movs	r0, r7
10001948:	f00b f95a 	bl	1000cc00 <__wrap___aeabi_memcpy>
1000194c:	60f4      	str	r4, [r6, #12]
1000194e:	6134      	str	r4, [r6, #16]
10001950:	6174      	str	r4, [r6, #20]
10001952:	683c      	ldr	r4, [r7, #0]
10001954:	687b      	ldr	r3, [r7, #4]
10001956:	005f      	lsls	r7, r3, #1
10001958:	18ff      	adds	r7, r7, r3
1000195a:	00bf      	lsls	r7, r7, #2
1000195c:	19e6      	adds	r6, r4, r7
1000195e:	10ba      	asrs	r2, r7, #2
10001960:	18bb      	adds	r3, r7, r2
10001962:	0118      	lsls	r0, r3, #4
10001964:	181b      	adds	r3, r3, r0
10001966:	0218      	lsls	r0, r3, #8
10001968:	181b      	adds	r3, r3, r0
1000196a:	0418      	lsls	r0, r3, #16
1000196c:	1818      	adds	r0, r3, r0
1000196e:	0040      	lsls	r0, r0, #1
10001970:	1880      	adds	r0, r0, r2
10001972:	4a54      	ldr	r2, [pc, #336]	; (10001ac4 <_ZN7Genshin9loadIconsEv+0x2f8>)
10001974:	4297      	cmp	r7, r2
10001976:	d819      	bhi.n	100019ac <_ZN7Genshin9loadIconsEv+0x1e0>
10001978:	2800      	cmp	r0, #0
1000197a:	d01c      	beq.n	100019b6 <_ZN7Genshin9loadIconsEv+0x1ea>
1000197c:	4a52      	ldr	r2, [pc, #328]	; (10001ac8 <_ZN7Genshin9loadIconsEv+0x2fc>)
1000197e:	4290      	cmp	r0, r2
10001980:	d817      	bhi.n	100019b2 <_ZN7Genshin9loadIconsEv+0x1e6>
10001982:	0043      	lsls	r3, r0, #1
10001984:	1818      	adds	r0, r3, r0
10001986:	0080      	lsls	r0, r0, #2
10001988:	f00b f940 	bl	1000cc0c <_Znwj>
1000198c:	23b8      	movs	r3, #184	; 0xb8
1000198e:	00db      	lsls	r3, r3, #3
10001990:	446b      	add	r3, sp
10001992:	6018      	str	r0, [r3, #0]
10001994:	19c7      	adds	r7, r0, r7
10001996:	23b9      	movs	r3, #185	; 0xb9
10001998:	00db      	lsls	r3, r3, #3
1000199a:	446b      	add	r3, sp
1000199c:	601f      	str	r7, [r3, #0]
1000199e:	42a6      	cmp	r6, r4
100019a0:	d00b      	beq.n	100019ba <_ZN7Genshin9loadIconsEv+0x1ee>
100019a2:	0003      	movs	r3, r0
100019a4:	cc07      	ldmia	r4!, {r0, r1, r2}
100019a6:	c307      	stmia	r3!, {r0, r1, r2}
100019a8:	0018      	movs	r0, r3
100019aa:	e7f8      	b.n	1000199e <_ZN7Genshin9loadIconsEv+0x1d2>
100019ac:	4847      	ldr	r0, [pc, #284]	; (10001acc <_ZN7Genshin9loadIconsEv+0x300>)
100019ae:	f011 faf5 	bl	10012f9c <_ZSt20__throw_length_errorPKc>
100019b2:	f011 facb 	bl	10012f4c <_ZSt17__throw_bad_allocv>
100019b6:	2000      	movs	r0, #0
100019b8:	e7e8      	b.n	1000198c <_ZN7Genshin9loadIconsEv+0x1c0>
100019ba:	4e40      	ldr	r6, [pc, #256]	; (10001abc <_ZN7Genshin9loadIconsEv+0x2f0>)
100019bc:	446e      	add	r6, sp
100019be:	6130      	str	r0, [r6, #16]
100019c0:	2400      	movs	r4, #0
100019c2:	9444      	str	r4, [sp, #272]	; 0x110
100019c4:	9445      	str	r4, [sp, #276]	; 0x114
100019c6:	9446      	str	r4, [sp, #280]	; 0x118
100019c8:	2305      	movs	r3, #5
100019ca:	9347      	str	r3, [sp, #284]	; 0x11c
100019cc:	3305      	adds	r3, #5
100019ce:	9348      	str	r3, [sp, #288]	; 0x120
100019d0:	3b01      	subs	r3, #1
100019d2:	9349      	str	r3, [sp, #292]	; 0x124
100019d4:	3326      	adds	r3, #38	; 0x26
100019d6:	934a      	str	r3, [sp, #296]	; 0x128
100019d8:	331f      	adds	r3, #31
100019da:	934b      	str	r3, [sp, #300]	; 0x12c
100019dc:	3b0b      	subs	r3, #11
100019de:	934c      	str	r3, [sp, #304]	; 0x130
100019e0:	3b0e      	subs	r3, #14
100019e2:	934d      	str	r3, [sp, #308]	; 0x134
100019e4:	3324      	adds	r3, #36	; 0x24
100019e6:	934e      	str	r3, [sp, #312]	; 0x138
100019e8:	3b0e      	subs	r3, #14
100019ea:	934f      	str	r3, [sp, #316]	; 0x13c
100019ec:	3314      	adds	r3, #20
100019ee:	9350      	str	r3, [sp, #320]	; 0x140
100019f0:	3342      	adds	r3, #66	; 0x42
100019f2:	9351      	str	r3, [sp, #324]	; 0x144
100019f4:	3b16      	subs	r3, #22
100019f6:	9352      	str	r3, [sp, #328]	; 0x148
100019f8:	3b50      	subs	r3, #80	; 0x50
100019fa:	9353      	str	r3, [sp, #332]	; 0x14c
100019fc:	3327      	adds	r3, #39	; 0x27
100019fe:	9354      	str	r3, [sp, #336]	; 0x150
10001a00:	3b0e      	subs	r3, #14
10001a02:	9355      	str	r3, [sp, #340]	; 0x154
10001a04:	3b12      	subs	r3, #18
10001a06:	9356      	str	r3, [sp, #344]	; 0x158
10001a08:	332d      	adds	r3, #45	; 0x2d
10001a0a:	9357      	str	r3, [sp, #348]	; 0x15c
10001a0c:	3b0f      	subs	r3, #15
10001a0e:	9358      	str	r3, [sp, #352]	; 0x160
10001a10:	9459      	str	r4, [sp, #356]	; 0x164
10001a12:	945a      	str	r4, [sp, #360]	; 0x168
10001a14:	945b      	str	r4, [sp, #364]	; 0x16c
10001a16:	945c      	str	r4, [sp, #368]	; 0x170
10001a18:	945d      	str	r4, [sp, #372]	; 0x174
10001a1a:	945e      	str	r4, [sp, #376]	; 0x178
10001a1c:	945f      	str	r4, [sp, #380]	; 0x17c
10001a1e:	9460      	str	r4, [sp, #384]	; 0x180
10001a20:	9461      	str	r4, [sp, #388]	; 0x184
10001a22:	9462      	str	r4, [sp, #392]	; 0x188
10001a24:	9463      	str	r4, [sp, #396]	; 0x18c
10001a26:	3320      	adds	r3, #32
10001a28:	466a      	mov	r2, sp
10001a2a:	2188      	movs	r1, #136	; 0x88
10001a2c:	0049      	lsls	r1, r1, #1
10001a2e:	1852      	adds	r2, r2, r1
10001a30:	50d4      	str	r4, [r2, r3]
10001a32:	21ca      	movs	r1, #202	; 0xca
10001a34:	00c9      	lsls	r1, r1, #3
10001a36:	4469      	add	r1, sp
10001a38:	600a      	str	r2, [r1, #0]
10001a3a:	230b      	movs	r3, #11
10001a3c:	604b      	str	r3, [r1, #4]
10001a3e:	27a6      	movs	r7, #166	; 0xa6
10001a40:	00ff      	lsls	r7, r7, #3
10001a42:	446f      	add	r7, sp
10001a44:	2208      	movs	r2, #8
10001a46:	0038      	movs	r0, r7
10001a48:	f00b f8da 	bl	1000cc00 <__wrap___aeabi_memcpy>
10001a4c:	61b4      	str	r4, [r6, #24]
10001a4e:	61f4      	str	r4, [r6, #28]
10001a50:	6234      	str	r4, [r6, #32]
10001a52:	683c      	ldr	r4, [r7, #0]
10001a54:	687b      	ldr	r3, [r7, #4]
10001a56:	005f      	lsls	r7, r3, #1
10001a58:	18ff      	adds	r7, r7, r3
10001a5a:	00bf      	lsls	r7, r7, #2
10001a5c:	19e6      	adds	r6, r4, r7
10001a5e:	10ba      	asrs	r2, r7, #2
10001a60:	18bb      	adds	r3, r7, r2
10001a62:	0118      	lsls	r0, r3, #4
10001a64:	181b      	adds	r3, r3, r0
10001a66:	0218      	lsls	r0, r3, #8
10001a68:	181b      	adds	r3, r3, r0
10001a6a:	0418      	lsls	r0, r3, #16
10001a6c:	1818      	adds	r0, r3, r0
10001a6e:	0040      	lsls	r0, r0, #1
10001a70:	1880      	adds	r0, r0, r2
10001a72:	4a14      	ldr	r2, [pc, #80]	; (10001ac4 <_ZN7Genshin9loadIconsEv+0x2f8>)
10001a74:	4297      	cmp	r7, r2
10001a76:	d817      	bhi.n	10001aa8 <_ZN7Genshin9loadIconsEv+0x2dc>
10001a78:	2800      	cmp	r0, #0
10001a7a:	d01a      	beq.n	10001ab2 <_ZN7Genshin9loadIconsEv+0x2e6>
10001a7c:	4a12      	ldr	r2, [pc, #72]	; (10001ac8 <_ZN7Genshin9loadIconsEv+0x2fc>)
10001a7e:	4290      	cmp	r0, r2
10001a80:	d815      	bhi.n	10001aae <_ZN7Genshin9loadIconsEv+0x2e2>
10001a82:	0043      	lsls	r3, r0, #1
10001a84:	1818      	adds	r0, r3, r0
10001a86:	0080      	lsls	r0, r0, #2
10001a88:	f00b f8c0 	bl	1000cc0c <_Znwj>
10001a8c:	4b10      	ldr	r3, [pc, #64]	; (10001ad0 <_ZN7Genshin9loadIconsEv+0x304>)
10001a8e:	446b      	add	r3, sp
10001a90:	6018      	str	r0, [r3, #0]
10001a92:	19c7      	adds	r7, r0, r7
10001a94:	4b0f      	ldr	r3, [pc, #60]	; (10001ad4 <_ZN7Genshin9loadIconsEv+0x308>)
10001a96:	446b      	add	r3, sp
10001a98:	601f      	str	r7, [r3, #0]
10001a9a:	42a6      	cmp	r6, r4
10001a9c:	d01c      	beq.n	10001ad8 <_ZN7Genshin9loadIconsEv+0x30c>
10001a9e:	0003      	movs	r3, r0
10001aa0:	cc07      	ldmia	r4!, {r0, r1, r2}
10001aa2:	c307      	stmia	r3!, {r0, r1, r2}
10001aa4:	0018      	movs	r0, r3
10001aa6:	e7f8      	b.n	10001a9a <_ZN7Genshin9loadIconsEv+0x2ce>
10001aa8:	4808      	ldr	r0, [pc, #32]	; (10001acc <_ZN7Genshin9loadIconsEv+0x300>)
10001aaa:	f011 fa77 	bl	10012f9c <_ZSt20__throw_length_errorPKc>
10001aae:	f011 fa4d 	bl	10012f4c <_ZSt17__throw_bad_allocv>
10001ab2:	2000      	movs	r0, #0
10001ab4:	e7ea      	b.n	10001a8c <_ZN7Genshin9loadIconsEv+0x2c0>
10001ab6:	46c0      	nop			; (mov r8, r8)
10001ab8:	fffff608 	.word	0xfffff608
10001abc:	000005b4 	.word	0x000005b4
10001ac0:	000005bc 	.word	0x000005bc
10001ac4:	7ffffff8 	.word	0x7ffffff8
10001ac8:	0aaaaaaa 	.word	0x0aaaaaaa
10001acc:	1001c394 	.word	0x1001c394
10001ad0:	000005cc 	.word	0x000005cc
10001ad4:	000005d4 	.word	0x000005d4
10001ad8:	4ebb      	ldr	r6, [pc, #748]	; (10001dc8 <_ZN7Genshin9loadIconsEv+0x5fc>)
10001ada:	446e      	add	r6, sp
10001adc:	61f0      	str	r0, [r6, #28]
10001ade:	2301      	movs	r3, #1
10001ae0:	9365      	str	r3, [sp, #404]	; 0x194
10001ae2:	3301      	adds	r3, #1
10001ae4:	9366      	str	r3, [sp, #408]	; 0x198
10001ae6:	9367      	str	r3, [sp, #412]	; 0x19c
10001ae8:	223f      	movs	r2, #63	; 0x3f
10001aea:	9268      	str	r2, [sp, #416]	; 0x1a0
10001aec:	2169      	movs	r1, #105	; 0x69
10001aee:	9169      	str	r1, [sp, #420]	; 0x1a4
10001af0:	390d      	subs	r1, #13
10001af2:	916a      	str	r1, [sp, #424]	; 0x1a8
10001af4:	2046      	movs	r0, #70	; 0x46
10001af6:	906b      	str	r0, [sp, #428]	; 0x1ac
10001af8:	3030      	adds	r0, #48	; 0x30
10001afa:	906c      	str	r0, [sp, #432]	; 0x1b0
10001afc:	3810      	subs	r0, #16
10001afe:	906d      	str	r0, [sp, #436]	; 0x1b4
10001b00:	916e      	str	r1, [sp, #440]	; 0x1b8
10001b02:	313f      	adds	r1, #63	; 0x3f
10001b04:	916f      	str	r1, [sp, #444]	; 0x1bc
10001b06:	3915      	subs	r1, #21
10001b08:	9170      	str	r1, [sp, #448]	; 0x1c0
10001b0a:	3944      	subs	r1, #68	; 0x44
10001b0c:	9171      	str	r1, [sp, #452]	; 0x1c4
10001b0e:	312d      	adds	r1, #45	; 0x2d
10001b10:	9172      	str	r1, [sp, #456]	; 0x1c8
10001b12:	390f      	subs	r1, #15
10001b14:	9173      	str	r1, [sp, #460]	; 0x1cc
10001b16:	9274      	str	r2, [sp, #464]	; 0x1d0
10001b18:	3229      	adds	r2, #41	; 0x29
10001b1a:	9275      	str	r2, [sp, #468]	; 0x1d4
10001b1c:	3a0e      	subs	r2, #14
10001b1e:	9276      	str	r2, [sp, #472]	; 0x1d8
10001b20:	3a30      	subs	r2, #48	; 0x30
10001b22:	9277      	str	r2, [sp, #476]	; 0x1dc
10001b24:	321d      	adds	r2, #29
10001b26:	9278      	str	r2, [sp, #480]	; 0x1e0
10001b28:	3a09      	subs	r2, #9
10001b2a:	9279      	str	r2, [sp, #484]	; 0x1e4
10001b2c:	937a      	str	r3, [sp, #488]	; 0x1e8
10001b2e:	3302      	adds	r3, #2
10001b30:	937b      	str	r3, [sp, #492]	; 0x1ec
10001b32:	937c      	str	r3, [sp, #496]	; 0x1f0
10001b34:	2400      	movs	r4, #0
10001b36:	947d      	str	r4, [sp, #500]	; 0x1f4
10001b38:	947e      	str	r4, [sp, #504]	; 0x1f8
10001b3a:	947f      	str	r4, [sp, #508]	; 0x1fc
10001b3c:	9480      	str	r4, [sp, #512]	; 0x200
10001b3e:	9481      	str	r4, [sp, #516]	; 0x204
10001b40:	9482      	str	r4, [sp, #520]	; 0x208
10001b42:	9483      	str	r4, [sp, #524]	; 0x20c
10001b44:	9484      	str	r4, [sp, #528]	; 0x210
10001b46:	337c      	adds	r3, #124	; 0x7c
10001b48:	466a      	mov	r2, sp
10001b4a:	3135      	adds	r1, #53	; 0x35
10001b4c:	31ff      	adds	r1, #255	; 0xff
10001b4e:	1852      	adds	r2, r2, r1
10001b50:	50d4      	str	r4, [r2, r3]
10001b52:	21cb      	movs	r1, #203	; 0xcb
10001b54:	00c9      	lsls	r1, r1, #3
10001b56:	4469      	add	r1, sp
10001b58:	600a      	str	r2, [r1, #0]
10001b5a:	230b      	movs	r3, #11
10001b5c:	604b      	str	r3, [r1, #4]
10001b5e:	27a6      	movs	r7, #166	; 0xa6
10001b60:	00ff      	lsls	r7, r7, #3
10001b62:	446f      	add	r7, sp
10001b64:	2208      	movs	r2, #8
10001b66:	0038      	movs	r0, r7
10001b68:	f00b f84a 	bl	1000cc00 <__wrap___aeabi_memcpy>
10001b6c:	6274      	str	r4, [r6, #36]	; 0x24
10001b6e:	62b4      	str	r4, [r6, #40]	; 0x28
10001b70:	62f4      	str	r4, [r6, #44]	; 0x2c
10001b72:	683c      	ldr	r4, [r7, #0]
10001b74:	687b      	ldr	r3, [r7, #4]
10001b76:	005f      	lsls	r7, r3, #1
10001b78:	18ff      	adds	r7, r7, r3
10001b7a:	00bf      	lsls	r7, r7, #2
10001b7c:	19e6      	adds	r6, r4, r7
10001b7e:	10ba      	asrs	r2, r7, #2
10001b80:	18bb      	adds	r3, r7, r2
10001b82:	0118      	lsls	r0, r3, #4
10001b84:	181b      	adds	r3, r3, r0
10001b86:	0218      	lsls	r0, r3, #8
10001b88:	181b      	adds	r3, r3, r0
10001b8a:	0418      	lsls	r0, r3, #16
10001b8c:	1818      	adds	r0, r3, r0
10001b8e:	0040      	lsls	r0, r0, #1
10001b90:	1880      	adds	r0, r0, r2
10001b92:	4a8e      	ldr	r2, [pc, #568]	; (10001dcc <_ZN7Genshin9loadIconsEv+0x600>)
10001b94:	4297      	cmp	r7, r2
10001b96:	d813      	bhi.n	10001bc0 <_ZN7Genshin9loadIconsEv+0x3f4>
10001b98:	2800      	cmp	r0, #0
10001b9a:	d016      	beq.n	10001bca <_ZN7Genshin9loadIconsEv+0x3fe>
10001b9c:	4a8c      	ldr	r2, [pc, #560]	; (10001dd0 <_ZN7Genshin9loadIconsEv+0x604>)
10001b9e:	4290      	cmp	r0, r2
10001ba0:	d811      	bhi.n	10001bc6 <_ZN7Genshin9loadIconsEv+0x3fa>
10001ba2:	0043      	lsls	r3, r0, #1
10001ba4:	1818      	adds	r0, r3, r0
10001ba6:	0080      	lsls	r0, r0, #2
10001ba8:	f00b f830 	bl	1000cc0c <_Znwj>
10001bac:	23bb      	movs	r3, #187	; 0xbb
10001bae:	00db      	lsls	r3, r3, #3
10001bb0:	446b      	add	r3, sp
10001bb2:	6018      	str	r0, [r3, #0]
10001bb4:	19c7      	adds	r7, r0, r7
10001bb6:	23bc      	movs	r3, #188	; 0xbc
10001bb8:	00db      	lsls	r3, r3, #3
10001bba:	446b      	add	r3, sp
10001bbc:	601f      	str	r7, [r3, #0]
10001bbe:	e00a      	b.n	10001bd6 <_ZN7Genshin9loadIconsEv+0x40a>
10001bc0:	4884      	ldr	r0, [pc, #528]	; (10001dd4 <_ZN7Genshin9loadIconsEv+0x608>)
10001bc2:	f011 f9eb 	bl	10012f9c <_ZSt20__throw_length_errorPKc>
10001bc6:	f011 f9c1 	bl	10012f4c <_ZSt17__throw_bad_allocv>
10001bca:	2000      	movs	r0, #0
10001bcc:	e7ee      	b.n	10001bac <_ZN7Genshin9loadIconsEv+0x3e0>
10001bce:	0003      	movs	r3, r0
10001bd0:	cc07      	ldmia	r4!, {r0, r1, r2}
10001bd2:	c307      	stmia	r3!, {r0, r1, r2}
10001bd4:	0018      	movs	r0, r3
10001bd6:	42a6      	cmp	r6, r4
10001bd8:	d1f9      	bne.n	10001bce <_ZN7Genshin9loadIconsEv+0x402>
10001bda:	4e7b      	ldr	r6, [pc, #492]	; (10001dc8 <_ZN7Genshin9loadIconsEv+0x5fc>)
10001bdc:	446e      	add	r6, sp
10001bde:	62b0      	str	r0, [r6, #40]	; 0x28
10001be0:	2400      	movs	r4, #0
10001be2:	9486      	str	r4, [sp, #536]	; 0x218
10001be4:	9487      	str	r4, [sp, #540]	; 0x21c
10001be6:	9488      	str	r4, [sp, #544]	; 0x220
10001be8:	9489      	str	r4, [sp, #548]	; 0x224
10001bea:	948a      	str	r4, [sp, #552]	; 0x228
10001bec:	948b      	str	r4, [sp, #556]	; 0x22c
10001bee:	948c      	str	r4, [sp, #560]	; 0x230
10001bf0:	948d      	str	r4, [sp, #564]	; 0x234
10001bf2:	948e      	str	r4, [sp, #568]	; 0x238
10001bf4:	948f      	str	r4, [sp, #572]	; 0x23c
10001bf6:	9490      	str	r4, [sp, #576]	; 0x240
10001bf8:	9491      	str	r4, [sp, #580]	; 0x244
10001bfa:	2328      	movs	r3, #40	; 0x28
10001bfc:	9392      	str	r3, [sp, #584]	; 0x248
10001bfe:	331c      	adds	r3, #28
10001c00:	9393      	str	r3, [sp, #588]	; 0x24c
10001c02:	223a      	movs	r2, #58	; 0x3a
10001c04:	9294      	str	r2, [sp, #592]	; 0x250
10001c06:	3a0b      	subs	r2, #11
10001c08:	9295      	str	r2, [sp, #596]	; 0x254
10001c0a:	321f      	adds	r2, #31
10001c0c:	9296      	str	r2, [sp, #600]	; 0x258
10001c0e:	9397      	str	r3, [sp, #604]	; 0x25c
10001c10:	3b25      	subs	r3, #37	; 0x25
10001c12:	9398      	str	r3, [sp, #608]	; 0x260
10001c14:	3316      	adds	r3, #22
10001c16:	9399      	str	r3, [sp, #612]	; 0x264
10001c18:	3b08      	subs	r3, #8
10001c1a:	939a      	str	r3, [sp, #616]	; 0x268
10001c1c:	330a      	adds	r3, #10
10001c1e:	939b      	str	r3, [sp, #620]	; 0x26c
10001c20:	3325      	adds	r3, #37	; 0x25
10001c22:	939c      	str	r3, [sp, #624]	; 0x270
10001c24:	3b0c      	subs	r3, #12
10001c26:	939d      	str	r3, [sp, #628]	; 0x274
10001c28:	3b15      	subs	r3, #21
10001c2a:	939e      	str	r3, [sp, #632]	; 0x278
10001c2c:	3327      	adds	r3, #39	; 0x27
10001c2e:	939f      	str	r3, [sp, #636]	; 0x27c
10001c30:	3b0c      	subs	r3, #12
10001c32:	93a0      	str	r3, [sp, #640]	; 0x280
10001c34:	3b55      	subs	r3, #85	; 0x55
10001c36:	93a1      	str	r3, [sp, #644]	; 0x284
10001c38:	3a4c      	subs	r2, #76	; 0x4c
10001c3a:	92a2      	str	r2, [sp, #648]	; 0x288
10001c3c:	93a3      	str	r3, [sp, #652]	; 0x28c
10001c3e:	94a4      	str	r4, [sp, #656]	; 0x290
10001c40:	94a5      	str	r4, [sp, #660]	; 0x294
10001c42:	337f      	adds	r3, #127	; 0x7f
10001c44:	466a      	mov	r2, sp
10001c46:	2186      	movs	r1, #134	; 0x86
10001c48:	0089      	lsls	r1, r1, #2
10001c4a:	1852      	adds	r2, r2, r1
10001c4c:	50d4      	str	r4, [r2, r3]
10001c4e:	21cc      	movs	r1, #204	; 0xcc
10001c50:	00c9      	lsls	r1, r1, #3
10001c52:	4469      	add	r1, sp
10001c54:	600a      	str	r2, [r1, #0]
10001c56:	230b      	movs	r3, #11
10001c58:	604b      	str	r3, [r1, #4]
10001c5a:	27a6      	movs	r7, #166	; 0xa6
10001c5c:	00ff      	lsls	r7, r7, #3
10001c5e:	446f      	add	r7, sp
10001c60:	2208      	movs	r2, #8
10001c62:	0038      	movs	r0, r7
10001c64:	f00a ffcc 	bl	1000cc00 <__wrap___aeabi_memcpy>
10001c68:	6334      	str	r4, [r6, #48]	; 0x30
10001c6a:	6374      	str	r4, [r6, #52]	; 0x34
10001c6c:	63b4      	str	r4, [r6, #56]	; 0x38
10001c6e:	683c      	ldr	r4, [r7, #0]
10001c70:	687b      	ldr	r3, [r7, #4]
10001c72:	005f      	lsls	r7, r3, #1
10001c74:	18ff      	adds	r7, r7, r3
10001c76:	00bf      	lsls	r7, r7, #2
10001c78:	19e6      	adds	r6, r4, r7
10001c7a:	10ba      	asrs	r2, r7, #2
10001c7c:	18bb      	adds	r3, r7, r2
10001c7e:	0118      	lsls	r0, r3, #4
10001c80:	181b      	adds	r3, r3, r0
10001c82:	0218      	lsls	r0, r3, #8
10001c84:	181b      	adds	r3, r3, r0
10001c86:	0418      	lsls	r0, r3, #16
10001c88:	1818      	adds	r0, r3, r0
10001c8a:	0040      	lsls	r0, r0, #1
10001c8c:	1880      	adds	r0, r0, r2
10001c8e:	4a4f      	ldr	r2, [pc, #316]	; (10001dcc <_ZN7Genshin9loadIconsEv+0x600>)
10001c90:	4297      	cmp	r7, r2
10001c92:	d817      	bhi.n	10001cc4 <_ZN7Genshin9loadIconsEv+0x4f8>
10001c94:	2800      	cmp	r0, #0
10001c96:	d01a      	beq.n	10001cce <_ZN7Genshin9loadIconsEv+0x502>
10001c98:	4a4d      	ldr	r2, [pc, #308]	; (10001dd0 <_ZN7Genshin9loadIconsEv+0x604>)
10001c9a:	4290      	cmp	r0, r2
10001c9c:	d815      	bhi.n	10001cca <_ZN7Genshin9loadIconsEv+0x4fe>
10001c9e:	0043      	lsls	r3, r0, #1
10001ca0:	1818      	adds	r0, r3, r0
10001ca2:	0080      	lsls	r0, r0, #2
10001ca4:	f00a ffb2 	bl	1000cc0c <_Znwj>
10001ca8:	4b4b      	ldr	r3, [pc, #300]	; (10001dd8 <_ZN7Genshin9loadIconsEv+0x60c>)
10001caa:	446b      	add	r3, sp
10001cac:	6018      	str	r0, [r3, #0]
10001cae:	19c7      	adds	r7, r0, r7
10001cb0:	4b4a      	ldr	r3, [pc, #296]	; (10001ddc <_ZN7Genshin9loadIconsEv+0x610>)
10001cb2:	446b      	add	r3, sp
10001cb4:	601f      	str	r7, [r3, #0]
10001cb6:	42a6      	cmp	r6, r4
10001cb8:	d00b      	beq.n	10001cd2 <_ZN7Genshin9loadIconsEv+0x506>
10001cba:	0003      	movs	r3, r0
10001cbc:	cc07      	ldmia	r4!, {r0, r1, r2}
10001cbe:	c307      	stmia	r3!, {r0, r1, r2}
10001cc0:	0018      	movs	r0, r3
10001cc2:	e7f8      	b.n	10001cb6 <_ZN7Genshin9loadIconsEv+0x4ea>
10001cc4:	4843      	ldr	r0, [pc, #268]	; (10001dd4 <_ZN7Genshin9loadIconsEv+0x608>)
10001cc6:	f011 f969 	bl	10012f9c <_ZSt20__throw_length_errorPKc>
10001cca:	f011 f93f 	bl	10012f4c <_ZSt17__throw_bad_allocv>
10001cce:	2000      	movs	r0, #0
10001cd0:	e7ea      	b.n	10001ca8 <_ZN7Genshin9loadIconsEv+0x4dc>
10001cd2:	4e3d      	ldr	r6, [pc, #244]	; (10001dc8 <_ZN7Genshin9loadIconsEv+0x5fc>)
10001cd4:	446e      	add	r6, sp
10001cd6:	6370      	str	r0, [r6, #52]	; 0x34
10001cd8:	2400      	movs	r4, #0
10001cda:	94a7      	str	r4, [sp, #668]	; 0x29c
10001cdc:	94a8      	str	r4, [sp, #672]	; 0x2a0
10001cde:	94a9      	str	r4, [sp, #676]	; 0x2a4
10001ce0:	94aa      	str	r4, [sp, #680]	; 0x2a8
10001ce2:	94ab      	str	r4, [sp, #684]	; 0x2ac
10001ce4:	94ac      	str	r4, [sp, #688]	; 0x2b0
10001ce6:	94ad      	str	r4, [sp, #692]	; 0x2b4
10001ce8:	94ae      	str	r4, [sp, #696]	; 0x2b8
10001cea:	94af      	str	r4, [sp, #700]	; 0x2bc
10001cec:	94b0      	str	r4, [sp, #704]	; 0x2c0
10001cee:	94b1      	str	r4, [sp, #708]	; 0x2c4
10001cf0:	94b2      	str	r4, [sp, #712]	; 0x2c8
10001cf2:	94b3      	str	r4, [sp, #716]	; 0x2cc
10001cf4:	94b4      	str	r4, [sp, #720]	; 0x2d0
10001cf6:	94b5      	str	r4, [sp, #724]	; 0x2d4
10001cf8:	2306      	movs	r3, #6
10001cfa:	93b6      	str	r3, [sp, #728]	; 0x2d8
10001cfc:	3307      	adds	r3, #7
10001cfe:	93b7      	str	r3, [sp, #732]	; 0x2dc
10001d00:	3b01      	subs	r3, #1
10001d02:	93b8      	str	r3, [sp, #736]	; 0x2e0
10001d04:	3326      	adds	r3, #38	; 0x26
10001d06:	93b9      	str	r3, [sp, #740]	; 0x2e4
10001d08:	3322      	adds	r3, #34	; 0x22
10001d0a:	93ba      	str	r3, [sp, #744]	; 0x2e8
10001d0c:	3b0b      	subs	r3, #11
10001d0e:	93bb      	str	r3, [sp, #748]	; 0x2ec
10001d10:	3b02      	subs	r3, #2
10001d12:	93bc      	str	r3, [sp, #752]	; 0x2f0
10001d14:	332e      	adds	r3, #46	; 0x2e
10001d16:	93bd      	str	r3, [sp, #756]	; 0x2f4
10001d18:	3b0f      	subs	r3, #15
10001d1a:	93be      	str	r3, [sp, #760]	; 0x2f8
10001d1c:	3b2f      	subs	r3, #47	; 0x2f
10001d1e:	93bf      	str	r3, [sp, #764]	; 0x2fc
10001d20:	3325      	adds	r3, #37	; 0x25
10001d22:	93c0      	str	r3, [sp, #768]	; 0x300
10001d24:	3b0c      	subs	r3, #12
10001d26:	93c1      	str	r3, [sp, #772]	; 0x304
10001d28:	3b14      	subs	r3, #20
10001d2a:	93c2      	str	r3, [sp, #776]	; 0x308
10001d2c:	3327      	adds	r3, #39	; 0x27
10001d2e:	93c3      	str	r3, [sp, #780]	; 0x30c
10001d30:	3b0d      	subs	r3, #13
10001d32:	93c4      	str	r3, [sp, #784]	; 0x310
10001d34:	3b55      	subs	r3, #85	; 0x55
10001d36:	93c5      	str	r3, [sp, #788]	; 0x314
10001d38:	2202      	movs	r2, #2
10001d3a:	92c6      	str	r2, [sp, #792]	; 0x318
10001d3c:	327e      	adds	r2, #126	; 0x7e
10001d3e:	4669      	mov	r1, sp
10001d40:	20a7      	movs	r0, #167	; 0xa7
10001d42:	0080      	lsls	r0, r0, #2
10001d44:	1809      	adds	r1, r1, r0
10001d46:	508b      	str	r3, [r1, r2]
10001d48:	21cd      	movs	r1, #205	; 0xcd
10001d4a:	00c9      	lsls	r1, r1, #3
10001d4c:	4469      	add	r1, sp
10001d4e:	aba7      	add	r3, sp, #668	; 0x29c
10001d50:	600b      	str	r3, [r1, #0]
10001d52:	230b      	movs	r3, #11
10001d54:	604b      	str	r3, [r1, #4]
10001d56:	27a6      	movs	r7, #166	; 0xa6
10001d58:	00ff      	lsls	r7, r7, #3
10001d5a:	446f      	add	r7, sp
10001d5c:	2208      	movs	r2, #8
10001d5e:	0038      	movs	r0, r7
10001d60:	f00a ff4e 	bl	1000cc00 <__wrap___aeabi_memcpy>
10001d64:	63f4      	str	r4, [r6, #60]	; 0x3c
10001d66:	6434      	str	r4, [r6, #64]	; 0x40
10001d68:	6474      	str	r4, [r6, #68]	; 0x44
10001d6a:	683c      	ldr	r4, [r7, #0]
10001d6c:	687b      	ldr	r3, [r7, #4]
10001d6e:	005f      	lsls	r7, r3, #1
10001d70:	18ff      	adds	r7, r7, r3
10001d72:	00bf      	lsls	r7, r7, #2
10001d74:	19e6      	adds	r6, r4, r7
10001d76:	10ba      	asrs	r2, r7, #2
10001d78:	18bb      	adds	r3, r7, r2
10001d7a:	0118      	lsls	r0, r3, #4
10001d7c:	181b      	adds	r3, r3, r0
10001d7e:	0218      	lsls	r0, r3, #8
10001d80:	181b      	adds	r3, r3, r0
10001d82:	0418      	lsls	r0, r3, #16
10001d84:	1818      	adds	r0, r3, r0
10001d86:	0040      	lsls	r0, r0, #1
10001d88:	1880      	adds	r0, r0, r2
10001d8a:	4a10      	ldr	r2, [pc, #64]	; (10001dcc <_ZN7Genshin9loadIconsEv+0x600>)
10001d8c:	4297      	cmp	r7, r2
10001d8e:	d813      	bhi.n	10001db8 <_ZN7Genshin9loadIconsEv+0x5ec>
10001d90:	2800      	cmp	r0, #0
10001d92:	d016      	beq.n	10001dc2 <_ZN7Genshin9loadIconsEv+0x5f6>
10001d94:	4a0e      	ldr	r2, [pc, #56]	; (10001dd0 <_ZN7Genshin9loadIconsEv+0x604>)
10001d96:	4290      	cmp	r0, r2
10001d98:	d811      	bhi.n	10001dbe <_ZN7Genshin9loadIconsEv+0x5f2>
10001d9a:	0043      	lsls	r3, r0, #1
10001d9c:	1818      	adds	r0, r3, r0
10001d9e:	0080      	lsls	r0, r0, #2
10001da0:	f00a ff34 	bl	1000cc0c <_Znwj>
10001da4:	23be      	movs	r3, #190	; 0xbe
10001da6:	00db      	lsls	r3, r3, #3
10001da8:	446b      	add	r3, sp
10001daa:	6018      	str	r0, [r3, #0]
10001dac:	19c7      	adds	r7, r0, r7
10001dae:	23bf      	movs	r3, #191	; 0xbf
10001db0:	00db      	lsls	r3, r3, #3
10001db2:	446b      	add	r3, sp
10001db4:	601f      	str	r7, [r3, #0]
10001db6:	e017      	b.n	10001de8 <_ZN7Genshin9loadIconsEv+0x61c>
10001db8:	4806      	ldr	r0, [pc, #24]	; (10001dd4 <_ZN7Genshin9loadIconsEv+0x608>)
10001dba:	f011 f8ef 	bl	10012f9c <_ZSt20__throw_length_errorPKc>
10001dbe:	f011 f8c5 	bl	10012f4c <_ZSt17__throw_bad_allocv>
10001dc2:	2000      	movs	r0, #0
10001dc4:	e7ee      	b.n	10001da4 <_ZN7Genshin9loadIconsEv+0x5d8>
10001dc6:	46c0      	nop			; (mov r8, r8)
10001dc8:	000005b4 	.word	0x000005b4
10001dcc:	7ffffff8 	.word	0x7ffffff8
10001dd0:	0aaaaaaa 	.word	0x0aaaaaaa
10001dd4:	1001c394 	.word	0x1001c394
10001dd8:	000005e4 	.word	0x000005e4
10001ddc:	000005ec 	.word	0x000005ec
10001de0:	0003      	movs	r3, r0
10001de2:	cc07      	ldmia	r4!, {r0, r1, r2}
10001de4:	c307      	stmia	r3!, {r0, r1, r2}
10001de6:	0018      	movs	r0, r3
10001de8:	42a6      	cmp	r6, r4
10001dea:	d1f9      	bne.n	10001de0 <_ZN7Genshin9loadIconsEv+0x614>
10001dec:	4eb9      	ldr	r6, [pc, #740]	; (100020d4 <_ZN7Genshin9loadIconsEv+0x908>)
10001dee:	446e      	add	r6, sp
10001df0:	6430      	str	r0, [r6, #64]	; 0x40
10001df2:	2400      	movs	r4, #0
10001df4:	94c8      	str	r4, [sp, #800]	; 0x320
10001df6:	94c9      	str	r4, [sp, #804]	; 0x324
10001df8:	94ca      	str	r4, [sp, #808]	; 0x328
10001dfa:	94cb      	str	r4, [sp, #812]	; 0x32c
10001dfc:	94cc      	str	r4, [sp, #816]	; 0x330
10001dfe:	94cd      	str	r4, [sp, #820]	; 0x334
10001e00:	94ce      	str	r4, [sp, #824]	; 0x338
10001e02:	94cf      	str	r4, [sp, #828]	; 0x33c
10001e04:	94d0      	str	r4, [sp, #832]	; 0x340
10001e06:	94d1      	str	r4, [sp, #836]	; 0x344
10001e08:	94d2      	str	r4, [sp, #840]	; 0x348
10001e0a:	94d3      	str	r4, [sp, #844]	; 0x34c
10001e0c:	2329      	movs	r3, #41	; 0x29
10001e0e:	93d4      	str	r3, [sp, #848]	; 0x350
10001e10:	2244      	movs	r2, #68	; 0x44
10001e12:	92d5      	str	r2, [sp, #852]	; 0x354
10001e14:	3312      	adds	r3, #18
10001e16:	93d6      	str	r3, [sp, #856]	; 0x358
10001e18:	212f      	movs	r1, #47	; 0x2f
10001e1a:	91d7      	str	r1, [sp, #860]	; 0x35c
10001e1c:	311f      	adds	r1, #31
10001e1e:	91d8      	str	r1, [sp, #864]	; 0x360
10001e20:	92d9      	str	r2, [sp, #868]	; 0x364
10001e22:	3a25      	subs	r2, #37	; 0x25
10001e24:	92da      	str	r2, [sp, #872]	; 0x368
10001e26:	3215      	adds	r2, #21
10001e28:	92db      	str	r2, [sp, #876]	; 0x36c
10001e2a:	3a06      	subs	r2, #6
10001e2c:	92dc      	str	r2, [sp, #880]	; 0x370
10001e2e:	3209      	adds	r2, #9
10001e30:	92dd      	str	r2, [sp, #884]	; 0x374
10001e32:	3226      	adds	r2, #38	; 0x26
10001e34:	92de      	str	r2, [sp, #888]	; 0x378
10001e36:	3a0d      	subs	r2, #13
10001e38:	92df      	str	r2, [sp, #892]	; 0x37c
10001e3a:	93e0      	str	r3, [sp, #896]	; 0x380
10001e3c:	3327      	adds	r3, #39	; 0x27
10001e3e:	93e1      	str	r3, [sp, #900]	; 0x384
10001e40:	3b0e      	subs	r3, #14
10001e42:	93e2      	str	r3, [sp, #904]	; 0x388
10001e44:	3b53      	subs	r3, #83	; 0x53
10001e46:	93e3      	str	r3, [sp, #908]	; 0x38c
10001e48:	3a4e      	subs	r2, #78	; 0x4e
10001e4a:	92e4      	str	r2, [sp, #912]	; 0x390
10001e4c:	93e5      	str	r3, [sp, #916]	; 0x394
10001e4e:	94e6      	str	r4, [sp, #920]	; 0x398
10001e50:	94e7      	str	r4, [sp, #924]	; 0x39c
10001e52:	337f      	adds	r3, #127	; 0x7f
10001e54:	466a      	mov	r2, sp
10001e56:	21c8      	movs	r1, #200	; 0xc8
10001e58:	0089      	lsls	r1, r1, #2
10001e5a:	1852      	adds	r2, r2, r1
10001e5c:	50d4      	str	r4, [r2, r3]
10001e5e:	21ce      	movs	r1, #206	; 0xce
10001e60:	00c9      	lsls	r1, r1, #3
10001e62:	4469      	add	r1, sp
10001e64:	600a      	str	r2, [r1, #0]
10001e66:	230b      	movs	r3, #11
10001e68:	604b      	str	r3, [r1, #4]
10001e6a:	27a6      	movs	r7, #166	; 0xa6
10001e6c:	00ff      	lsls	r7, r7, #3
10001e6e:	446f      	add	r7, sp
10001e70:	2208      	movs	r2, #8
10001e72:	0038      	movs	r0, r7
10001e74:	f00a fec4 	bl	1000cc00 <__wrap___aeabi_memcpy>
10001e78:	64b4      	str	r4, [r6, #72]	; 0x48
10001e7a:	64f4      	str	r4, [r6, #76]	; 0x4c
10001e7c:	6534      	str	r4, [r6, #80]	; 0x50
10001e7e:	683c      	ldr	r4, [r7, #0]
10001e80:	687b      	ldr	r3, [r7, #4]
10001e82:	005f      	lsls	r7, r3, #1
10001e84:	18ff      	adds	r7, r7, r3
10001e86:	00bf      	lsls	r7, r7, #2
10001e88:	19e6      	adds	r6, r4, r7
10001e8a:	10ba      	asrs	r2, r7, #2
10001e8c:	18bb      	adds	r3, r7, r2
10001e8e:	0118      	lsls	r0, r3, #4
10001e90:	181b      	adds	r3, r3, r0
10001e92:	0218      	lsls	r0, r3, #8
10001e94:	181b      	adds	r3, r3, r0
10001e96:	0418      	lsls	r0, r3, #16
10001e98:	1818      	adds	r0, r3, r0
10001e9a:	0040      	lsls	r0, r0, #1
10001e9c:	1880      	adds	r0, r0, r2
10001e9e:	4a8e      	ldr	r2, [pc, #568]	; (100020d8 <_ZN7Genshin9loadIconsEv+0x90c>)
10001ea0:	4297      	cmp	r7, r2
10001ea2:	d811      	bhi.n	10001ec8 <_ZN7Genshin9loadIconsEv+0x6fc>
10001ea4:	2800      	cmp	r0, #0
10001ea6:	d014      	beq.n	10001ed2 <_ZN7Genshin9loadIconsEv+0x706>
10001ea8:	4a8c      	ldr	r2, [pc, #560]	; (100020dc <_ZN7Genshin9loadIconsEv+0x910>)
10001eaa:	4290      	cmp	r0, r2
10001eac:	d80f      	bhi.n	10001ece <_ZN7Genshin9loadIconsEv+0x702>
10001eae:	0043      	lsls	r3, r0, #1
10001eb0:	1818      	adds	r0, r3, r0
10001eb2:	0080      	lsls	r0, r0, #2
10001eb4:	f00a feaa 	bl	1000cc0c <_Znwj>
10001eb8:	4b89      	ldr	r3, [pc, #548]	; (100020e0 <_ZN7Genshin9loadIconsEv+0x914>)
10001eba:	446b      	add	r3, sp
10001ebc:	6018      	str	r0, [r3, #0]
10001ebe:	19c7      	adds	r7, r0, r7
10001ec0:	4b88      	ldr	r3, [pc, #544]	; (100020e4 <_ZN7Genshin9loadIconsEv+0x918>)
10001ec2:	446b      	add	r3, sp
10001ec4:	601f      	str	r7, [r3, #0]
10001ec6:	e00a      	b.n	10001ede <_ZN7Genshin9loadIconsEv+0x712>
10001ec8:	4887      	ldr	r0, [pc, #540]	; (100020e8 <_ZN7Genshin9loadIconsEv+0x91c>)
10001eca:	f011 f867 	bl	10012f9c <_ZSt20__throw_length_errorPKc>
10001ece:	f011 f83d 	bl	10012f4c <_ZSt17__throw_bad_allocv>
10001ed2:	2000      	movs	r0, #0
10001ed4:	e7f0      	b.n	10001eb8 <_ZN7Genshin9loadIconsEv+0x6ec>
10001ed6:	0003      	movs	r3, r0
10001ed8:	cc07      	ldmia	r4!, {r0, r1, r2}
10001eda:	c307      	stmia	r3!, {r0, r1, r2}
10001edc:	0018      	movs	r0, r3
10001ede:	42a6      	cmp	r6, r4
10001ee0:	d1f9      	bne.n	10001ed6 <_ZN7Genshin9loadIconsEv+0x70a>
10001ee2:	4c7c      	ldr	r4, [pc, #496]	; (100020d4 <_ZN7Genshin9loadIconsEv+0x908>)
10001ee4:	446c      	add	r4, sp
10001ee6:	64e0      	str	r0, [r4, #76]	; 0x4c
10001ee8:	abe9      	add	r3, sp, #932	; 0x3a4
10001eea:	2201      	movs	r2, #1
10001eec:	92e9      	str	r2, [sp, #932]	; 0x3a4
10001eee:	3201      	adds	r2, #1
10001ef0:	605a      	str	r2, [r3, #4]
10001ef2:	609a      	str	r2, [r3, #8]
10001ef4:	2140      	movs	r1, #64	; 0x40
10001ef6:	60d9      	str	r1, [r3, #12]
10001ef8:	312b      	adds	r1, #43	; 0x2b
10001efa:	6119      	str	r1, [r3, #16]
10001efc:	390f      	subs	r1, #15
10001efe:	6159      	str	r1, [r3, #20]
10001f00:	3914      	subs	r1, #20
10001f02:	6199      	str	r1, [r3, #24]
10001f04:	3131      	adds	r1, #49	; 0x31
10001f06:	61d9      	str	r1, [r3, #28]
10001f08:	3911      	subs	r1, #17
10001f0a:	6219      	str	r1, [r3, #32]
10001f0c:	205e      	movs	r0, #94	; 0x5e
10001f0e:	6258      	str	r0, [r3, #36]	; 0x24
10001f10:	269c      	movs	r6, #156	; 0x9c
10001f12:	629e      	str	r6, [r3, #40]	; 0x28
10001f14:	3e14      	subs	r6, #20
10001f16:	62de      	str	r6, [r3, #44]	; 0x2c
10001f18:	3e47      	subs	r6, #71	; 0x47
10001f1a:	631e      	str	r6, [r3, #48]	; 0x30
10001f1c:	362c      	adds	r6, #44	; 0x2c
10001f1e:	635e      	str	r6, [r3, #52]	; 0x34
10001f20:	6398      	str	r0, [r3, #56]	; 0x38
10001f22:	381f      	subs	r0, #31
10001f24:	63d8      	str	r0, [r3, #60]	; 0x3c
10001f26:	6419      	str	r1, [r3, #64]	; 0x40
10001f28:	390e      	subs	r1, #14
10001f2a:	6459      	str	r1, [r3, #68]	; 0x44
10001f2c:	392f      	subs	r1, #47	; 0x2f
10001f2e:	6499      	str	r1, [r3, #72]	; 0x48
10001f30:	311c      	adds	r1, #28
10001f32:	64d9      	str	r1, [r3, #76]	; 0x4c
10001f34:	390a      	subs	r1, #10
10001f36:	6519      	str	r1, [r3, #80]	; 0x50
10001f38:	655a      	str	r2, [r3, #84]	; 0x54
10001f3a:	3202      	adds	r2, #2
10001f3c:	659a      	str	r2, [r3, #88]	; 0x58
10001f3e:	65da      	str	r2, [r3, #92]	; 0x5c
10001f40:	2600      	movs	r6, #0
10001f42:	661e      	str	r6, [r3, #96]	; 0x60
10001f44:	665e      	str	r6, [r3, #100]	; 0x64
10001f46:	669e      	str	r6, [r3, #104]	; 0x68
10001f48:	66de      	str	r6, [r3, #108]	; 0x6c
10001f4a:	671e      	str	r6, [r3, #112]	; 0x70
10001f4c:	675e      	str	r6, [r3, #116]	; 0x74
10001f4e:	679e      	str	r6, [r3, #120]	; 0x78
10001f50:	67de      	str	r6, [r3, #124]	; 0x7c
10001f52:	327c      	adds	r2, #124	; 0x7c
10001f54:	509e      	str	r6, [r3, r2]
10001f56:	21cf      	movs	r1, #207	; 0xcf
10001f58:	00c9      	lsls	r1, r1, #3
10001f5a:	4469      	add	r1, sp
10001f5c:	600b      	str	r3, [r1, #0]
10001f5e:	230b      	movs	r3, #11
10001f60:	604b      	str	r3, [r1, #4]
10001f62:	27a6      	movs	r7, #166	; 0xa6
10001f64:	00ff      	lsls	r7, r7, #3
10001f66:	446f      	add	r7, sp
10001f68:	2208      	movs	r2, #8
10001f6a:	0038      	movs	r0, r7
10001f6c:	f00a fe48 	bl	1000cc00 <__wrap___aeabi_memcpy>
10001f70:	6566      	str	r6, [r4, #84]	; 0x54
10001f72:	65a6      	str	r6, [r4, #88]	; 0x58
10001f74:	65e6      	str	r6, [r4, #92]	; 0x5c
10001f76:	683c      	ldr	r4, [r7, #0]
10001f78:	687b      	ldr	r3, [r7, #4]
10001f7a:	005f      	lsls	r7, r3, #1
10001f7c:	18ff      	adds	r7, r7, r3
10001f7e:	00bf      	lsls	r7, r7, #2
10001f80:	19e6      	adds	r6, r4, r7
10001f82:	10ba      	asrs	r2, r7, #2
10001f84:	18bb      	adds	r3, r7, r2
10001f86:	0118      	lsls	r0, r3, #4
10001f88:	181b      	adds	r3, r3, r0
10001f8a:	0218      	lsls	r0, r3, #8
10001f8c:	181b      	adds	r3, r3, r0
10001f8e:	0418      	lsls	r0, r3, #16
10001f90:	1818      	adds	r0, r3, r0
10001f92:	0040      	lsls	r0, r0, #1
10001f94:	1880      	adds	r0, r0, r2
10001f96:	4a50      	ldr	r2, [pc, #320]	; (100020d8 <_ZN7Genshin9loadIconsEv+0x90c>)
10001f98:	4297      	cmp	r7, r2
10001f9a:	d819      	bhi.n	10001fd0 <_ZN7Genshin9loadIconsEv+0x804>
10001f9c:	2800      	cmp	r0, #0
10001f9e:	d01c      	beq.n	10001fda <_ZN7Genshin9loadIconsEv+0x80e>
10001fa0:	4a4e      	ldr	r2, [pc, #312]	; (100020dc <_ZN7Genshin9loadIconsEv+0x910>)
10001fa2:	4290      	cmp	r0, r2
10001fa4:	d817      	bhi.n	10001fd6 <_ZN7Genshin9loadIconsEv+0x80a>
10001fa6:	0043      	lsls	r3, r0, #1
10001fa8:	1818      	adds	r0, r3, r0
10001faa:	0080      	lsls	r0, r0, #2
10001fac:	f00a fe2e 	bl	1000cc0c <_Znwj>
10001fb0:	23c1      	movs	r3, #193	; 0xc1
10001fb2:	00db      	lsls	r3, r3, #3
10001fb4:	446b      	add	r3, sp
10001fb6:	6018      	str	r0, [r3, #0]
10001fb8:	19c7      	adds	r7, r0, r7
10001fba:	23c2      	movs	r3, #194	; 0xc2
10001fbc:	00db      	lsls	r3, r3, #3
10001fbe:	446b      	add	r3, sp
10001fc0:	601f      	str	r7, [r3, #0]
10001fc2:	42a6      	cmp	r6, r4
10001fc4:	d00b      	beq.n	10001fde <_ZN7Genshin9loadIconsEv+0x812>
10001fc6:	0003      	movs	r3, r0
10001fc8:	cc07      	ldmia	r4!, {r0, r1, r2}
10001fca:	c307      	stmia	r3!, {r0, r1, r2}
10001fcc:	0018      	movs	r0, r3
10001fce:	e7f8      	b.n	10001fc2 <_ZN7Genshin9loadIconsEv+0x7f6>
10001fd0:	4845      	ldr	r0, [pc, #276]	; (100020e8 <_ZN7Genshin9loadIconsEv+0x91c>)
10001fd2:	f010 ffe3 	bl	10012f9c <_ZSt20__throw_length_errorPKc>
10001fd6:	f010 ffb9 	bl	10012f4c <_ZSt17__throw_bad_allocv>
10001fda:	2000      	movs	r0, #0
10001fdc:	e7e8      	b.n	10001fb0 <_ZN7Genshin9loadIconsEv+0x7e4>
10001fde:	4c3d      	ldr	r4, [pc, #244]	; (100020d4 <_ZN7Genshin9loadIconsEv+0x908>)
10001fe0:	446c      	add	r4, sp
10001fe2:	65a0      	str	r0, [r4, #88]	; 0x58
10001fe4:	abff      	add	r3, sp, #1020	; 0x3fc
10001fe6:	332c      	adds	r3, #44	; 0x2c
10001fe8:	2600      	movs	r6, #0
10001fea:	601e      	str	r6, [r3, #0]
10001fec:	605e      	str	r6, [r3, #4]
10001fee:	609e      	str	r6, [r3, #8]
10001ff0:	2206      	movs	r2, #6
10001ff2:	60da      	str	r2, [r3, #12]
10001ff4:	3203      	adds	r2, #3
10001ff6:	611a      	str	r2, [r3, #16]
10001ff8:	615a      	str	r2, [r3, #20]
10001ffa:	3224      	adds	r2, #36	; 0x24
10001ffc:	619a      	str	r2, [r3, #24]
10001ffe:	321f      	adds	r2, #31
10002000:	61da      	str	r2, [r3, #28]
10002002:	3a0a      	subs	r2, #10
10002004:	621a      	str	r2, [r3, #32]
10002006:	2135      	movs	r1, #53	; 0x35
10002008:	6259      	str	r1, [r3, #36]	; 0x24
1000200a:	3124      	adds	r1, #36	; 0x24
1000200c:	6299      	str	r1, [r3, #40]	; 0x28
1000200e:	390e      	subs	r1, #14
10002010:	62d9      	str	r1, [r3, #44]	; 0x2c
10002012:	3114      	adds	r1, #20
10002014:	6319      	str	r1, [r3, #48]	; 0x30
10002016:	3142      	adds	r1, #66	; 0x42
10002018:	6359      	str	r1, [r3, #52]	; 0x34
1000201a:	3916      	subs	r1, #22
1000201c:	6399      	str	r1, [r3, #56]	; 0x38
1000201e:	3950      	subs	r1, #80	; 0x50
10002020:	63d9      	str	r1, [r3, #60]	; 0x3c
10002022:	3126      	adds	r1, #38	; 0x26
10002024:	6419      	str	r1, [r3, #64]	; 0x40
10002026:	390b      	subs	r1, #11
10002028:	6459      	str	r1, [r3, #68]	; 0x44
1000202a:	649a      	str	r2, [r3, #72]	; 0x48
1000202c:	322d      	adds	r2, #45	; 0x2d
1000202e:	64da      	str	r2, [r3, #76]	; 0x4c
10002030:	3a0f      	subs	r2, #15
10002032:	651a      	str	r2, [r3, #80]	; 0x50
10002034:	655e      	str	r6, [r3, #84]	; 0x54
10002036:	659e      	str	r6, [r3, #88]	; 0x58
10002038:	65de      	str	r6, [r3, #92]	; 0x5c
1000203a:	661e      	str	r6, [r3, #96]	; 0x60
1000203c:	665e      	str	r6, [r3, #100]	; 0x64
1000203e:	669e      	str	r6, [r3, #104]	; 0x68
10002040:	66de      	str	r6, [r3, #108]	; 0x6c
10002042:	671e      	str	r6, [r3, #112]	; 0x70
10002044:	675e      	str	r6, [r3, #116]	; 0x74
10002046:	679e      	str	r6, [r3, #120]	; 0x78
10002048:	67de      	str	r6, [r3, #124]	; 0x7c
1000204a:	3220      	adds	r2, #32
1000204c:	509e      	str	r6, [r3, r2]
1000204e:	21d0      	movs	r1, #208	; 0xd0
10002050:	00c9      	lsls	r1, r1, #3
10002052:	4469      	add	r1, sp
10002054:	600b      	str	r3, [r1, #0]
10002056:	230b      	movs	r3, #11
10002058:	604b      	str	r3, [r1, #4]
1000205a:	27a6      	movs	r7, #166	; 0xa6
1000205c:	00ff      	lsls	r7, r7, #3
1000205e:	446f      	add	r7, sp
10002060:	2208      	movs	r2, #8
10002062:	0038      	movs	r0, r7
10002064:	f00a fdcc 	bl	1000cc00 <__wrap___aeabi_memcpy>
10002068:	6626      	str	r6, [r4, #96]	; 0x60
1000206a:	6666      	str	r6, [r4, #100]	; 0x64
1000206c:	66a6      	str	r6, [r4, #104]	; 0x68
1000206e:	683c      	ldr	r4, [r7, #0]
10002070:	687b      	ldr	r3, [r7, #4]
10002072:	005f      	lsls	r7, r3, #1
10002074:	18ff      	adds	r7, r7, r3
10002076:	00bf      	lsls	r7, r7, #2
10002078:	19e6      	adds	r6, r4, r7
1000207a:	10ba      	asrs	r2, r7, #2
1000207c:	18bb      	adds	r3, r7, r2
1000207e:	0118      	lsls	r0, r3, #4
10002080:	181b      	adds	r3, r3, r0
10002082:	0218      	lsls	r0, r3, #8
10002084:	181b      	adds	r3, r3, r0
10002086:	0418      	lsls	r0, r3, #16
10002088:	1818      	adds	r0, r3, r0
1000208a:	0040      	lsls	r0, r0, #1
1000208c:	1880      	adds	r0, r0, r2
1000208e:	4a12      	ldr	r2, [pc, #72]	; (100020d8 <_ZN7Genshin9loadIconsEv+0x90c>)
10002090:	4297      	cmp	r7, r2
10002092:	d817      	bhi.n	100020c4 <_ZN7Genshin9loadIconsEv+0x8f8>
10002094:	2800      	cmp	r0, #0
10002096:	d01a      	beq.n	100020ce <_ZN7Genshin9loadIconsEv+0x902>
10002098:	4a10      	ldr	r2, [pc, #64]	; (100020dc <_ZN7Genshin9loadIconsEv+0x910>)
1000209a:	4290      	cmp	r0, r2
1000209c:	d815      	bhi.n	100020ca <_ZN7Genshin9loadIconsEv+0x8fe>
1000209e:	0043      	lsls	r3, r0, #1
100020a0:	1818      	adds	r0, r3, r0
100020a2:	0080      	lsls	r0, r0, #2
100020a4:	f00a fdb2 	bl	1000cc0c <_Znwj>
100020a8:	4b10      	ldr	r3, [pc, #64]	; (100020ec <_ZN7Genshin9loadIconsEv+0x920>)
100020aa:	446b      	add	r3, sp
100020ac:	6018      	str	r0, [r3, #0]
100020ae:	19c7      	adds	r7, r0, r7
100020b0:	4b0f      	ldr	r3, [pc, #60]	; (100020f0 <_ZN7Genshin9loadIconsEv+0x924>)
100020b2:	446b      	add	r3, sp
100020b4:	601f      	str	r7, [r3, #0]
100020b6:	42a6      	cmp	r6, r4
100020b8:	d01c      	beq.n	100020f4 <_ZN7Genshin9loadIconsEv+0x928>
100020ba:	0003      	movs	r3, r0
100020bc:	cc07      	ldmia	r4!, {r0, r1, r2}
100020be:	c307      	stmia	r3!, {r0, r1, r2}
100020c0:	0018      	movs	r0, r3
100020c2:	e7f8      	b.n	100020b6 <_ZN7Genshin9loadIconsEv+0x8ea>
100020c4:	4808      	ldr	r0, [pc, #32]	; (100020e8 <_ZN7Genshin9loadIconsEv+0x91c>)
100020c6:	f010 ff69 	bl	10012f9c <_ZSt20__throw_length_errorPKc>
100020ca:	f010 ff3f 	bl	10012f4c <_ZSt17__throw_bad_allocv>
100020ce:	2000      	movs	r0, #0
100020d0:	e7ea      	b.n	100020a8 <_ZN7Genshin9loadIconsEv+0x8dc>
100020d2:	46c0      	nop			; (mov r8, r8)
100020d4:	000005b4 	.word	0x000005b4
100020d8:	7ffffff8 	.word	0x7ffffff8
100020dc:	0aaaaaaa 	.word	0x0aaaaaaa
100020e0:	000005fc 	.word	0x000005fc
100020e4:	00000604 	.word	0x00000604
100020e8:	1001c394 	.word	0x1001c394
100020ec:	00000614 	.word	0x00000614
100020f0:	0000061c 	.word	0x0000061c
100020f4:	4ccf      	ldr	r4, [pc, #828]	; (10002434 <_ZN7Genshin9loadIconsEv+0xc68>)
100020f6:	446c      	add	r4, sp
100020f8:	6660      	str	r0, [r4, #100]	; 0x64
100020fa:	abff      	add	r3, sp, #1020	; 0x3fc
100020fc:	33b0      	adds	r3, #176	; 0xb0
100020fe:	2600      	movs	r6, #0
10002100:	601e      	str	r6, [r3, #0]
10002102:	605e      	str	r6, [r3, #4]
10002104:	609e      	str	r6, [r3, #8]
10002106:	60de      	str	r6, [r3, #12]
10002108:	611e      	str	r6, [r3, #16]
1000210a:	615e      	str	r6, [r3, #20]
1000210c:	220e      	movs	r2, #14
1000210e:	619a      	str	r2, [r3, #24]
10002110:	3209      	adds	r2, #9
10002112:	61da      	str	r2, [r3, #28]
10002114:	3a03      	subs	r2, #3
10002116:	621a      	str	r2, [r3, #32]
10002118:	202a      	movs	r0, #42	; 0x2a
1000211a:	6258      	str	r0, [r3, #36]	; 0x24
1000211c:	2147      	movs	r1, #71	; 0x47
1000211e:	6299      	str	r1, [r3, #40]	; 0x28
10002120:	322a      	adds	r2, #42	; 0x2a
10002122:	62da      	str	r2, [r3, #44]	; 0x2c
10002124:	6318      	str	r0, [r3, #48]	; 0x30
10002126:	6359      	str	r1, [r3, #52]	; 0x34
10002128:	639a      	str	r2, [r3, #56]	; 0x38
1000212a:	322a      	adds	r2, #42	; 0x2a
1000212c:	63da      	str	r2, [r3, #60]	; 0x3c
1000212e:	3246      	adds	r2, #70	; 0x46
10002130:	641a      	str	r2, [r3, #64]	; 0x40
10002132:	3a16      	subs	r2, #22
10002134:	645a      	str	r2, [r3, #68]	; 0x44
10002136:	3a78      	subs	r2, #120	; 0x78
10002138:	649a      	str	r2, [r3, #72]	; 0x48
1000213a:	3218      	adds	r2, #24
1000213c:	64da      	str	r2, [r3, #76]	; 0x4c
1000213e:	3a08      	subs	r2, #8
10002140:	651a      	str	r2, [r3, #80]	; 0x50
10002142:	655e      	str	r6, [r3, #84]	; 0x54
10002144:	659e      	str	r6, [r3, #88]	; 0x58
10002146:	65de      	str	r6, [r3, #92]	; 0x5c
10002148:	661e      	str	r6, [r3, #96]	; 0x60
1000214a:	665e      	str	r6, [r3, #100]	; 0x64
1000214c:	669e      	str	r6, [r3, #104]	; 0x68
1000214e:	66de      	str	r6, [r3, #108]	; 0x6c
10002150:	671e      	str	r6, [r3, #112]	; 0x70
10002152:	675e      	str	r6, [r3, #116]	; 0x74
10002154:	679e      	str	r6, [r3, #120]	; 0x78
10002156:	67de      	str	r6, [r3, #124]	; 0x7c
10002158:	3250      	adds	r2, #80	; 0x50
1000215a:	509e      	str	r6, [r3, r2]
1000215c:	21d1      	movs	r1, #209	; 0xd1
1000215e:	00c9      	lsls	r1, r1, #3
10002160:	4469      	add	r1, sp
10002162:	600b      	str	r3, [r1, #0]
10002164:	230b      	movs	r3, #11
10002166:	604b      	str	r3, [r1, #4]
10002168:	27a6      	movs	r7, #166	; 0xa6
1000216a:	00ff      	lsls	r7, r7, #3
1000216c:	446f      	add	r7, sp
1000216e:	2208      	movs	r2, #8
10002170:	0038      	movs	r0, r7
10002172:	f00a fd45 	bl	1000cc00 <__wrap___aeabi_memcpy>
10002176:	66e6      	str	r6, [r4, #108]	; 0x6c
10002178:	6726      	str	r6, [r4, #112]	; 0x70
1000217a:	6766      	str	r6, [r4, #116]	; 0x74
1000217c:	683c      	ldr	r4, [r7, #0]
1000217e:	687b      	ldr	r3, [r7, #4]
10002180:	005f      	lsls	r7, r3, #1
10002182:	18ff      	adds	r7, r7, r3
10002184:	00bf      	lsls	r7, r7, #2
10002186:	19e6      	adds	r6, r4, r7
10002188:	10ba      	asrs	r2, r7, #2
1000218a:	18bb      	adds	r3, r7, r2
1000218c:	0118      	lsls	r0, r3, #4
1000218e:	181b      	adds	r3, r3, r0
10002190:	0218      	lsls	r0, r3, #8
10002192:	181b      	adds	r3, r3, r0
10002194:	0418      	lsls	r0, r3, #16
10002196:	1818      	adds	r0, r3, r0
10002198:	0040      	lsls	r0, r0, #1
1000219a:	1880      	adds	r0, r0, r2
1000219c:	4aa6      	ldr	r2, [pc, #664]	; (10002438 <_ZN7Genshin9loadIconsEv+0xc6c>)
1000219e:	4297      	cmp	r7, r2
100021a0:	d819      	bhi.n	100021d6 <_ZN7Genshin9loadIconsEv+0xa0a>
100021a2:	2800      	cmp	r0, #0
100021a4:	d01c      	beq.n	100021e0 <_ZN7Genshin9loadIconsEv+0xa14>
100021a6:	4aa5      	ldr	r2, [pc, #660]	; (1000243c <_ZN7Genshin9loadIconsEv+0xc70>)
100021a8:	4290      	cmp	r0, r2
100021aa:	d817      	bhi.n	100021dc <_ZN7Genshin9loadIconsEv+0xa10>
100021ac:	0043      	lsls	r3, r0, #1
100021ae:	1818      	adds	r0, r3, r0
100021b0:	0080      	lsls	r0, r0, #2
100021b2:	f00a fd2b 	bl	1000cc0c <_Znwj>
100021b6:	23c4      	movs	r3, #196	; 0xc4
100021b8:	00db      	lsls	r3, r3, #3
100021ba:	446b      	add	r3, sp
100021bc:	6018      	str	r0, [r3, #0]
100021be:	19c7      	adds	r7, r0, r7
100021c0:	23c5      	movs	r3, #197	; 0xc5
100021c2:	00db      	lsls	r3, r3, #3
100021c4:	446b      	add	r3, sp
100021c6:	601f      	str	r7, [r3, #0]
100021c8:	42a6      	cmp	r6, r4
100021ca:	d00b      	beq.n	100021e4 <_ZN7Genshin9loadIconsEv+0xa18>
100021cc:	0003      	movs	r3, r0
100021ce:	cc07      	ldmia	r4!, {r0, r1, r2}
100021d0:	c307      	stmia	r3!, {r0, r1, r2}
100021d2:	0018      	movs	r0, r3
100021d4:	e7f8      	b.n	100021c8 <_ZN7Genshin9loadIconsEv+0x9fc>
100021d6:	489a      	ldr	r0, [pc, #616]	; (10002440 <_ZN7Genshin9loadIconsEv+0xc74>)
100021d8:	f010 fee0 	bl	10012f9c <_ZSt20__throw_length_errorPKc>
100021dc:	f010 feb6 	bl	10012f4c <_ZSt17__throw_bad_allocv>
100021e0:	2000      	movs	r0, #0
100021e2:	e7e8      	b.n	100021b6 <_ZN7Genshin9loadIconsEv+0x9ea>
100021e4:	4c93      	ldr	r4, [pc, #588]	; (10002434 <_ZN7Genshin9loadIconsEv+0xc68>)
100021e6:	446c      	add	r4, sp
100021e8:	6720      	str	r0, [r4, #112]	; 0x70
100021ea:	23a6      	movs	r3, #166	; 0xa6
100021ec:	00db      	lsls	r3, r3, #3
100021ee:	446b      	add	r3, sp
100021f0:	2600      	movs	r6, #0
100021f2:	601e      	str	r6, [r3, #0]
100021f4:	605e      	str	r6, [r3, #4]
100021f6:	609e      	str	r6, [r3, #8]
100021f8:	60de      	str	r6, [r3, #12]
100021fa:	611e      	str	r6, [r3, #16]
100021fc:	615e      	str	r6, [r3, #20]
100021fe:	619e      	str	r6, [r3, #24]
10002200:	61de      	str	r6, [r3, #28]
10002202:	621e      	str	r6, [r3, #32]
10002204:	625e      	str	r6, [r3, #36]	; 0x24
10002206:	629e      	str	r6, [r3, #40]	; 0x28
10002208:	62de      	str	r6, [r3, #44]	; 0x2c
1000220a:	2209      	movs	r2, #9
1000220c:	631a      	str	r2, [r3, #48]	; 0x30
1000220e:	3205      	adds	r2, #5
10002210:	635a      	str	r2, [r3, #52]	; 0x34
10002212:	3a01      	subs	r2, #1
10002214:	639a      	str	r2, [r3, #56]	; 0x38
10002216:	3a06      	subs	r2, #6
10002218:	63da      	str	r2, [r3, #60]	; 0x3c
1000221a:	3204      	adds	r2, #4
1000221c:	641a      	str	r2, [r3, #64]	; 0x40
1000221e:	210a      	movs	r1, #10
10002220:	6459      	str	r1, [r3, #68]	; 0x44
10002222:	649e      	str	r6, [r3, #72]	; 0x48
10002224:	64de      	str	r6, [r3, #76]	; 0x4c
10002226:	651e      	str	r6, [r3, #80]	; 0x50
10002228:	655e      	str	r6, [r3, #84]	; 0x54
1000222a:	659e      	str	r6, [r3, #88]	; 0x58
1000222c:	65de      	str	r6, [r3, #92]	; 0x5c
1000222e:	661e      	str	r6, [r3, #96]	; 0x60
10002230:	665e      	str	r6, [r3, #100]	; 0x64
10002232:	669e      	str	r6, [r3, #104]	; 0x68
10002234:	66de      	str	r6, [r3, #108]	; 0x6c
10002236:	671e      	str	r6, [r3, #112]	; 0x70
10002238:	675e      	str	r6, [r3, #116]	; 0x74
1000223a:	679e      	str	r6, [r3, #120]	; 0x78
1000223c:	67de      	str	r6, [r3, #124]	; 0x7c
1000223e:	2780      	movs	r7, #128	; 0x80
10002240:	51de      	str	r6, [r3, r7]
10002242:	21d2      	movs	r1, #210	; 0xd2
10002244:	00c9      	lsls	r1, r1, #3
10002246:	4469      	add	r1, sp
10002248:	23a6      	movs	r3, #166	; 0xa6
1000224a:	00db      	lsls	r3, r3, #3
1000224c:	446b      	add	r3, sp
1000224e:	600b      	str	r3, [r1, #0]
10002250:	604a      	str	r2, [r1, #4]
10002252:	3a03      	subs	r2, #3
10002254:	4668      	mov	r0, sp
10002256:	f00a fcd3 	bl	1000cc00 <__wrap___aeabi_memcpy>
1000225a:	67a6      	str	r6, [r4, #120]	; 0x78
1000225c:	67e6      	str	r6, [r4, #124]	; 0x7c
1000225e:	51e6      	str	r6, [r4, r7]
10002260:	9c00      	ldr	r4, [sp, #0]
10002262:	9b01      	ldr	r3, [sp, #4]
10002264:	005f      	lsls	r7, r3, #1
10002266:	18ff      	adds	r7, r7, r3
10002268:	00bf      	lsls	r7, r7, #2
1000226a:	19e6      	adds	r6, r4, r7
1000226c:	10ba      	asrs	r2, r7, #2
1000226e:	18bb      	adds	r3, r7, r2
10002270:	0118      	lsls	r0, r3, #4
10002272:	181b      	adds	r3, r3, r0
10002274:	0218      	lsls	r0, r3, #8
10002276:	181b      	adds	r3, r3, r0
10002278:	0418      	lsls	r0, r3, #16
1000227a:	1818      	adds	r0, r3, r0
1000227c:	0040      	lsls	r0, r0, #1
1000227e:	1880      	adds	r0, r0, r2
10002280:	4a6d      	ldr	r2, [pc, #436]	; (10002438 <_ZN7Genshin9loadIconsEv+0xc6c>)
10002282:	4297      	cmp	r7, r2
10002284:	d819      	bhi.n	100022ba <_ZN7Genshin9loadIconsEv+0xaee>
10002286:	2800      	cmp	r0, #0
10002288:	d01c      	beq.n	100022c4 <_ZN7Genshin9loadIconsEv+0xaf8>
1000228a:	4a6c      	ldr	r2, [pc, #432]	; (1000243c <_ZN7Genshin9loadIconsEv+0xc70>)
1000228c:	4290      	cmp	r0, r2
1000228e:	d817      	bhi.n	100022c0 <_ZN7Genshin9loadIconsEv+0xaf4>
10002290:	0043      	lsls	r3, r0, #1
10002292:	1818      	adds	r0, r3, r0
10002294:	0080      	lsls	r0, r0, #2
10002296:	f00a fcb9 	bl	1000cc0c <_Znwj>
1000229a:	4b6a      	ldr	r3, [pc, #424]	; (10002444 <_ZN7Genshin9loadIconsEv+0xc78>)
1000229c:	446b      	add	r3, sp
1000229e:	6018      	str	r0, [r3, #0]
100022a0:	19c7      	adds	r7, r0, r7
100022a2:	2380      	movs	r3, #128	; 0x80
100022a4:	466a      	mov	r2, sp
100022a6:	4963      	ldr	r1, [pc, #396]	; (10002434 <_ZN7Genshin9loadIconsEv+0xc68>)
100022a8:	1852      	adds	r2, r2, r1
100022aa:	50d7      	str	r7, [r2, r3]
100022ac:	42a6      	cmp	r6, r4
100022ae:	d00b      	beq.n	100022c8 <_ZN7Genshin9loadIconsEv+0xafc>
100022b0:	0003      	movs	r3, r0
100022b2:	cc07      	ldmia	r4!, {r0, r1, r2}
100022b4:	c307      	stmia	r3!, {r0, r1, r2}
100022b6:	0018      	movs	r0, r3
100022b8:	e7f8      	b.n	100022ac <_ZN7Genshin9loadIconsEv+0xae0>
100022ba:	4861      	ldr	r0, [pc, #388]	; (10002440 <_ZN7Genshin9loadIconsEv+0xc74>)
100022bc:	f010 fe6e 	bl	10012f9c <_ZSt20__throw_length_errorPKc>
100022c0:	f010 fe44 	bl	10012f4c <_ZSt17__throw_bad_allocv>
100022c4:	2000      	movs	r0, #0
100022c6:	e7e8      	b.n	1000229a <_ZN7Genshin9loadIconsEv+0xace>
100022c8:	23c6      	movs	r3, #198	; 0xc6
100022ca:	00db      	lsls	r3, r3, #3
100022cc:	446b      	add	r3, sp
100022ce:	6018      	str	r0, [r3, #0]
100022d0:	24c7      	movs	r4, #199	; 0xc7
100022d2:	00e4      	lsls	r4, r4, #3
100022d4:	446c      	add	r4, sp
100022d6:	4f57      	ldr	r7, [pc, #348]	; (10002434 <_ZN7Genshin9loadIconsEv+0xc68>)
100022d8:	446f      	add	r7, sp
100022da:	6027      	str	r7, [r4, #0]
100022dc:	230b      	movs	r3, #11
100022de:	6063      	str	r3, [r4, #4]
100022e0:	26d4      	movs	r6, #212	; 0xd4
100022e2:	00f6      	lsls	r6, r6, #3
100022e4:	446e      	add	r6, sp
100022e6:	23d3      	movs	r3, #211	; 0xd3
100022e8:	00db      	lsls	r3, r3, #3
100022ea:	446b      	add	r3, sp
100022ec:	601e      	str	r6, [r3, #0]
100022ee:	4a56      	ldr	r2, [pc, #344]	; (10002448 <_ZN7Genshin9loadIconsEv+0xc7c>)
100022f0:	1f51      	subs	r1, r2, #5
100022f2:	2300      	movs	r3, #0
100022f4:	20d3      	movs	r0, #211	; 0xd3
100022f6:	00c0      	lsls	r0, r0, #3
100022f8:	4468      	add	r0, sp
100022fa:	f7fe f807 	bl	1000030c <_ZNSt7__cxx1112basic_stringIcSt11char_traitsIcESaIcEE12_M_constructIPKcEEvT_S8_St20forward_iterator_tag>
100022fe:	4b53      	ldr	r3, [pc, #332]	; (1000244c <_ZN7Genshin9loadIconsEv+0xc80>)
10002300:	469c      	mov	ip, r3
10002302:	4465      	add	r5, ip
10002304:	23d3      	movs	r3, #211	; 0xd3
10002306:	00db      	lsls	r3, r3, #3
10002308:	446b      	add	r3, sp
1000230a:	0019      	movs	r1, r3
1000230c:	0028      	movs	r0, r5
1000230e:	f7fe fe23 	bl	10000f58 <_ZNSt8__detail9_Map_baseINSt7__cxx1112basic_stringIcSt11char_traitsIcESaIcEEESt4pairIKS6_St6vectorIS9_I5ColorSaISA_EESaISC_EEESaISF_ENS_10_Select1stESt8equal_toIS6_ESt4hashIS6_ENS_18_Mod_range_hashingENS_20_Default_ranged_hashENS_20_Prime_rehash_policyENS_17_Hashtable_traitsILb1ELb0ELb1EEELb1EEixEOS6_>
10002312:	4680      	mov	r8, r0
10002314:	2208      	movs	r2, #8
10002316:	0021      	movs	r1, r4
10002318:	4668      	mov	r0, sp
1000231a:	f00a fc71 	bl	1000cc00 <__wrap___aeabi_memcpy>
1000231e:	2300      	movs	r3, #0
10002320:	0022      	movs	r2, r4
10002322:	0039      	movs	r1, r7
10002324:	4640      	mov	r0, r8
10002326:	f7ff f91f 	bl	10001568 <_ZNSt6vectorIS_I5ColorSaIS0_EESaIS2_EE13_M_assign_auxIPKS2_EEvT_S8_St20forward_iterator_tag>
1000232a:	23d3      	movs	r3, #211	; 0xd3
1000232c:	00db      	lsls	r3, r3, #3
1000232e:	446b      	add	r3, sp
10002330:	6818      	ldr	r0, [r3, #0]
10002332:	42b0      	cmp	r0, r6
10002334:	d003      	beq.n	1000233e <_ZN7Genshin9loadIconsEv+0xb72>
10002336:	6833      	ldr	r3, [r6, #0]
10002338:	1c59      	adds	r1, r3, #1
1000233a:	f00a fc73 	bl	1000cc24 <_ZdlPvj>
1000233e:	24c7      	movs	r4, #199	; 0xc7
10002340:	00e4      	lsls	r4, r4, #3
10002342:	446c      	add	r4, sp
10002344:	4b3b      	ldr	r3, [pc, #236]	; (10002434 <_ZN7Genshin9loadIconsEv+0xc68>)
10002346:	446b      	add	r3, sp
10002348:	429c      	cmp	r4, r3
1000234a:	d008      	beq.n	1000235e <_ZN7Genshin9loadIconsEv+0xb92>
1000234c:	3c0c      	subs	r4, #12
1000234e:	6820      	ldr	r0, [r4, #0]
10002350:	68a3      	ldr	r3, [r4, #8]
10002352:	1a19      	subs	r1, r3, r0
10002354:	2800      	cmp	r0, #0
10002356:	d0f5      	beq.n	10002344 <_ZN7Genshin9loadIconsEv+0xb78>
10002358:	f00a fc64 	bl	1000cc24 <_ZdlPvj>
1000235c:	e7f2      	b.n	10002344 <_ZN7Genshin9loadIconsEv+0xb78>
1000235e:	2400      	movs	r4, #0
10002360:	9402      	str	r4, [sp, #8]
10002362:	9403      	str	r4, [sp, #12]
10002364:	9404      	str	r4, [sp, #16]
10002366:	9405      	str	r4, [sp, #20]
10002368:	9406      	str	r4, [sp, #24]
1000236a:	9407      	str	r4, [sp, #28]
1000236c:	2301      	movs	r3, #1
1000236e:	9308      	str	r3, [sp, #32]
10002370:	9309      	str	r3, [sp, #36]	; 0x24
10002372:	930a      	str	r3, [sp, #40]	; 0x28
10002374:	940b      	str	r4, [sp, #44]	; 0x2c
10002376:	940c      	str	r4, [sp, #48]	; 0x30
10002378:	940d      	str	r4, [sp, #52]	; 0x34
1000237a:	940e      	str	r4, [sp, #56]	; 0x38
1000237c:	940f      	str	r4, [sp, #60]	; 0x3c
1000237e:	9410      	str	r4, [sp, #64]	; 0x40
10002380:	9411      	str	r4, [sp, #68]	; 0x44
10002382:	9412      	str	r4, [sp, #72]	; 0x48
10002384:	9413      	str	r4, [sp, #76]	; 0x4c
10002386:	9414      	str	r4, [sp, #80]	; 0x50
10002388:	9415      	str	r4, [sp, #84]	; 0x54
1000238a:	9416      	str	r4, [sp, #88]	; 0x58
1000238c:	9417      	str	r4, [sp, #92]	; 0x5c
1000238e:	9418      	str	r4, [sp, #96]	; 0x60
10002390:	9419      	str	r4, [sp, #100]	; 0x64
10002392:	931a      	str	r3, [sp, #104]	; 0x68
10002394:	931b      	str	r3, [sp, #108]	; 0x6c
10002396:	931c      	str	r3, [sp, #112]	; 0x70
10002398:	941d      	str	r4, [sp, #116]	; 0x74
1000239a:	941e      	str	r4, [sp, #120]	; 0x78
1000239c:	941f      	str	r4, [sp, #124]	; 0x7c
1000239e:	9420      	str	r4, [sp, #128]	; 0x80
100023a0:	9421      	str	r4, [sp, #132]	; 0x84
100023a2:	337f      	adds	r3, #127	; 0x7f
100023a4:	466a      	mov	r2, sp
100023a6:	2108      	movs	r1, #8
100023a8:	1852      	adds	r2, r2, r1
100023aa:	50d4      	str	r4, [r2, r3]
100023ac:	21d7      	movs	r1, #215	; 0xd7
100023ae:	00c9      	lsls	r1, r1, #3
100023b0:	4469      	add	r1, sp
100023b2:	600a      	str	r2, [r1, #0]
100023b4:	230b      	movs	r3, #11
100023b6:	604b      	str	r3, [r1, #4]
100023b8:	26a6      	movs	r6, #166	; 0xa6
100023ba:	00f6      	lsls	r6, r6, #3
100023bc:	446e      	add	r6, sp
100023be:	2208      	movs	r2, #8
100023c0:	0030      	movs	r0, r6
100023c2:	f00a fc1d 	bl	1000cc00 <__wrap___aeabi_memcpy>
100023c6:	4b1b      	ldr	r3, [pc, #108]	; (10002434 <_ZN7Genshin9loadIconsEv+0xc68>)
100023c8:	446b      	add	r3, sp
100023ca:	601c      	str	r4, [r3, #0]
100023cc:	23b7      	movs	r3, #183	; 0xb7
100023ce:	00db      	lsls	r3, r3, #3
100023d0:	446b      	add	r3, sp
100023d2:	601c      	str	r4, [r3, #0]
100023d4:	4b1e      	ldr	r3, [pc, #120]	; (10002450 <_ZN7Genshin9loadIconsEv+0xc84>)
100023d6:	446b      	add	r3, sp
100023d8:	601c      	str	r4, [r3, #0]
100023da:	6834      	ldr	r4, [r6, #0]
100023dc:	6873      	ldr	r3, [r6, #4]
100023de:	005f      	lsls	r7, r3, #1
100023e0:	18ff      	adds	r7, r7, r3
100023e2:	00bf      	lsls	r7, r7, #2
100023e4:	19e6      	adds	r6, r4, r7
100023e6:	10ba      	asrs	r2, r7, #2
100023e8:	18bb      	adds	r3, r7, r2
100023ea:	0118      	lsls	r0, r3, #4
100023ec:	181b      	adds	r3, r3, r0
100023ee:	0218      	lsls	r0, r3, #8
100023f0:	181b      	adds	r3, r3, r0
100023f2:	0418      	lsls	r0, r3, #16
100023f4:	1818      	adds	r0, r3, r0
100023f6:	0040      	lsls	r0, r0, #1
100023f8:	1880      	adds	r0, r0, r2
100023fa:	4a0f      	ldr	r2, [pc, #60]	; (10002438 <_ZN7Genshin9loadIconsEv+0xc6c>)
100023fc:	4297      	cmp	r7, r2
100023fe:	d811      	bhi.n	10002424 <_ZN7Genshin9loadIconsEv+0xc58>
10002400:	2800      	cmp	r0, #0
10002402:	d014      	beq.n	1000242e <_ZN7Genshin9loadIconsEv+0xc62>
10002404:	4a0d      	ldr	r2, [pc, #52]	; (1000243c <_ZN7Genshin9loadIconsEv+0xc70>)
10002406:	4290      	cmp	r0, r2
10002408:	d80f      	bhi.n	1000242a <_ZN7Genshin9loadIconsEv+0xc5e>
1000240a:	0043      	lsls	r3, r0, #1
1000240c:	1818      	adds	r0, r3, r0
1000240e:	0080      	lsls	r0, r0, #2
10002410:	f00a fbfc 	bl	1000cc0c <_Znwj>
10002414:	4b07      	ldr	r3, [pc, #28]	; (10002434 <_ZN7Genshin9loadIconsEv+0xc68>)
10002416:	446b      	add	r3, sp
10002418:	6018      	str	r0, [r3, #0]
1000241a:	19c7      	adds	r7, r0, r7
1000241c:	4b0c      	ldr	r3, [pc, #48]	; (10002450 <_ZN7Genshin9loadIconsEv+0xc84>)
1000241e:	446b      	add	r3, sp
10002420:	601f      	str	r7, [r3, #0]
10002422:	e01b      	b.n	1000245c <_ZN7Genshin9loadIconsEv+0xc90>
10002424:	4806      	ldr	r0, [pc, #24]	; (10002440 <_ZN7Genshin9loadIconsEv+0xc74>)
10002426:	f010 fdb9 	bl	10012f9c <_ZSt20__throw_length_errorPKc>
1000242a:	f010 fd8f 	bl	10012f4c <_ZSt17__throw_bad_allocv>
1000242e:	2000      	movs	r0, #0
10002430:	e7f0      	b.n	10002414 <_ZN7Genshin9loadIconsEv+0xc48>
10002432:	46c0      	nop			; (mov r8, r8)
10002434:	000005b4 	.word	0x000005b4
10002438:	7ffffff8 	.word	0x7ffffff8
1000243c:	0aaaaaaa 	.word	0x0aaaaaaa
10002440:	1001c394 	.word	0x1001c394
10002444:	0000062c 	.word	0x0000062c
10002448:	1001c361 	.word	0x1001c361
1000244c:	00002a60 	.word	0x00002a60
10002450:	000005bc 	.word	0x000005bc
10002454:	0003      	movs	r3, r0
10002456:	cc07      	ldmia	r4!, {r0, r1, r2}
10002458:	c307      	stmia	r3!, {r0, r1, r2}
1000245a:	0018      	movs	r0, r3
1000245c:	42a6      	cmp	r6, r4
1000245e:	d1f9      	bne.n	10002454 <_ZN7Genshin9loadIconsEv+0xc88>
10002460:	4ebc      	ldr	r6, [pc, #752]	; (10002754 <_ZN7Genshin9loadIconsEv+0xf88>)
10002462:	446e      	add	r6, sp
10002464:	6070      	str	r0, [r6, #4]
10002466:	2400      	movs	r4, #0
10002468:	9423      	str	r4, [sp, #140]	; 0x8c
1000246a:	9424      	str	r4, [sp, #144]	; 0x90
1000246c:	9425      	str	r4, [sp, #148]	; 0x94
1000246e:	9426      	str	r4, [sp, #152]	; 0x98
10002470:	9427      	str	r4, [sp, #156]	; 0x9c
10002472:	9428      	str	r4, [sp, #160]	; 0xa0
10002474:	220e      	movs	r2, #14
10002476:	9229      	str	r2, [sp, #164]	; 0xa4
10002478:	2314      	movs	r3, #20
1000247a:	932a      	str	r3, [sp, #168]	; 0xa8
1000247c:	2115      	movs	r1, #21
1000247e:	912b      	str	r1, [sp, #172]	; 0xac
10002480:	312d      	adds	r1, #45	; 0x2d
10002482:	912c      	str	r1, [sp, #176]	; 0xb0
10002484:	3117      	adds	r1, #23
10002486:	912d      	str	r1, [sp, #180]	; 0xb4
10002488:	3106      	adds	r1, #6
1000248a:	912e      	str	r1, [sp, #184]	; 0xb8
1000248c:	394e      	subs	r1, #78	; 0x4e
1000248e:	912f      	str	r1, [sp, #188]	; 0xbc
10002490:	3106      	adds	r1, #6
10002492:	9130      	str	r1, [sp, #192]	; 0xc0
10002494:	3101      	adds	r1, #1
10002496:	9131      	str	r1, [sp, #196]	; 0xc4
10002498:	9432      	str	r4, [sp, #200]	; 0xc8
1000249a:	9433      	str	r4, [sp, #204]	; 0xcc
1000249c:	9434      	str	r4, [sp, #208]	; 0xd0
1000249e:	2012      	movs	r0, #18
100024a0:	9035      	str	r0, [sp, #212]	; 0xd4
100024a2:	9136      	str	r1, [sp, #216]	; 0xd8
100024a4:	3101      	adds	r1, #1
100024a6:	9137      	str	r1, [sp, #220]	; 0xdc
100024a8:	312a      	adds	r1, #42	; 0x2a
100024aa:	9138      	str	r1, [sp, #224]	; 0xe0
100024ac:	3117      	adds	r1, #23
100024ae:	9139      	str	r1, [sp, #228]	; 0xe4
100024b0:	3106      	adds	r1, #6
100024b2:	913a      	str	r1, [sp, #232]	; 0xe8
100024b4:	923b      	str	r2, [sp, #236]	; 0xec
100024b6:	3205      	adds	r2, #5
100024b8:	923c      	str	r2, [sp, #240]	; 0xf0
100024ba:	933d      	str	r3, [sp, #244]	; 0xf4
100024bc:	943e      	str	r4, [sp, #248]	; 0xf8
100024be:	943f      	str	r4, [sp, #252]	; 0xfc
100024c0:	9440      	str	r4, [sp, #256]	; 0x100
100024c2:	9441      	str	r4, [sp, #260]	; 0x104
100024c4:	9442      	str	r4, [sp, #264]	; 0x108
100024c6:	336c      	adds	r3, #108	; 0x6c
100024c8:	466a      	mov	r2, sp
100024ca:	312c      	adds	r1, #44	; 0x2c
100024cc:	1852      	adds	r2, r2, r1
100024ce:	50d4      	str	r4, [r2, r3]
100024d0:	21d8      	movs	r1, #216	; 0xd8
100024d2:	00c9      	lsls	r1, r1, #3
100024d4:	4469      	add	r1, sp
100024d6:	600a      	str	r2, [r1, #0]
100024d8:	230b      	movs	r3, #11
100024da:	604b      	str	r3, [r1, #4]
100024dc:	27a6      	movs	r7, #166	; 0xa6
100024de:	00ff      	lsls	r7, r7, #3
100024e0:	446f      	add	r7, sp
100024e2:	2208      	movs	r2, #8
100024e4:	0038      	movs	r0, r7
100024e6:	f00a fb8b 	bl	1000cc00 <__wrap___aeabi_memcpy>
100024ea:	60f4      	str	r4, [r6, #12]
100024ec:	6134      	str	r4, [r6, #16]
100024ee:	6174      	str	r4, [r6, #20]
100024f0:	683c      	ldr	r4, [r7, #0]
100024f2:	687b      	ldr	r3, [r7, #4]
100024f4:	005f      	lsls	r7, r3, #1
100024f6:	18ff      	adds	r7, r7, r3
100024f8:	00bf      	lsls	r7, r7, #2
100024fa:	19e6      	adds	r6, r4, r7
100024fc:	10ba      	asrs	r2, r7, #2
100024fe:	18bb      	adds	r3, r7, r2
10002500:	0118      	lsls	r0, r3, #4
10002502:	181b      	adds	r3, r3, r0
10002504:	0218      	lsls	r0, r3, #8
10002506:	181b      	adds	r3, r3, r0
10002508:	0418      	lsls	r0, r3, #16
1000250a:	1818      	adds	r0, r3, r0
1000250c:	0040      	lsls	r0, r0, #1
1000250e:	1880      	adds	r0, r0, r2
10002510:	4a91      	ldr	r2, [pc, #580]	; (10002758 <_ZN7Genshin9loadIconsEv+0xf8c>)
10002512:	4297      	cmp	r7, r2
10002514:	d813      	bhi.n	1000253e <_ZN7Genshin9loadIconsEv+0xd72>
10002516:	2800      	cmp	r0, #0
10002518:	d016      	beq.n	10002548 <_ZN7Genshin9loadIconsEv+0xd7c>
1000251a:	4a90      	ldr	r2, [pc, #576]	; (1000275c <_ZN7Genshin9loadIconsEv+0xf90>)
1000251c:	4290      	cmp	r0, r2
1000251e:	d811      	bhi.n	10002544 <_ZN7Genshin9loadIconsEv+0xd78>
10002520:	0043      	lsls	r3, r0, #1
10002522:	1818      	adds	r0, r3, r0
10002524:	0080      	lsls	r0, r0, #2
10002526:	f00a fb71 	bl	1000cc0c <_Znwj>
1000252a:	23b8      	movs	r3, #184	; 0xb8
1000252c:	00db      	lsls	r3, r3, #3
1000252e:	446b      	add	r3, sp
10002530:	6018      	str	r0, [r3, #0]
10002532:	19c7      	adds	r7, r0, r7
10002534:	23b9      	movs	r3, #185	; 0xb9
10002536:	00db      	lsls	r3, r3, #3
10002538:	446b      	add	r3, sp
1000253a:	601f      	str	r7, [r3, #0]
1000253c:	e00a      	b.n	10002554 <_ZN7Genshin9loadIconsEv+0xd88>
1000253e:	4888      	ldr	r0, [pc, #544]	; (10002760 <_ZN7Genshin9loadIconsEv+0xf94>)
10002540:	f010 fd2c 	bl	10012f9c <_ZSt20__throw_length_errorPKc>
10002544:	f010 fd02 	bl	10012f4c <_ZSt17__throw_bad_allocv>
10002548:	2000      	movs	r0, #0
1000254a:	e7ee      	b.n	1000252a <_ZN7Genshin9loadIconsEv+0xd5e>
1000254c:	0003      	movs	r3, r0
1000254e:	cc07      	ldmia	r4!, {r0, r1, r2}
10002550:	c307      	stmia	r3!, {r0, r1, r2}
10002552:	0018      	movs	r0, r3
10002554:	42a6      	cmp	r6, r4
10002556:	d1f9      	bne.n	1000254c <_ZN7Genshin9loadIconsEv+0xd80>
10002558:	4e7e      	ldr	r6, [pc, #504]	; (10002754 <_ZN7Genshin9loadIconsEv+0xf88>)
1000255a:	446e      	add	r6, sp
1000255c:	6130      	str	r0, [r6, #16]
1000255e:	2400      	movs	r4, #0
10002560:	9444      	str	r4, [sp, #272]	; 0x110
10002562:	9445      	str	r4, [sp, #276]	; 0x114
10002564:	9446      	str	r4, [sp, #280]	; 0x118
10002566:	9447      	str	r4, [sp, #284]	; 0x11c
10002568:	9448      	str	r4, [sp, #288]	; 0x120
1000256a:	9449      	str	r4, [sp, #292]	; 0x124
1000256c:	2311      	movs	r3, #17
1000256e:	934a      	str	r3, [sp, #296]	; 0x128
10002570:	3306      	adds	r3, #6
10002572:	934b      	str	r3, [sp, #300]	; 0x12c
10002574:	3301      	adds	r3, #1
10002576:	934c      	str	r3, [sp, #304]	; 0x130
10002578:	226e      	movs	r2, #110	; 0x6e
1000257a:	924d      	str	r2, [sp, #308]	; 0x134
1000257c:	2195      	movs	r1, #149	; 0x95
1000257e:	914e      	str	r1, [sp, #312]	; 0x138
10002580:	3109      	adds	r1, #9
10002582:	914f      	str	r1, [sp, #316]	; 0x13c
10002584:	3949      	subs	r1, #73	; 0x49
10002586:	9150      	str	r1, [sp, #320]	; 0x140
10002588:	311d      	adds	r1, #29
1000258a:	9151      	str	r1, [sp, #324]	; 0x144
1000258c:	3107      	adds	r1, #7
1000258e:	9152      	str	r1, [sp, #328]	; 0x148
10002590:	395f      	subs	r1, #95	; 0x5f
10002592:	9153      	str	r1, [sp, #332]	; 0x14c
10002594:	3109      	adds	r1, #9
10002596:	9154      	str	r1, [sp, #336]	; 0x150
10002598:	3102      	adds	r1, #2
1000259a:	9155      	str	r1, [sp, #340]	; 0x154
1000259c:	3131      	adds	r1, #49	; 0x31
1000259e:	9156      	str	r1, [sp, #344]	; 0x158
100025a0:	311d      	adds	r1, #29
100025a2:	9157      	str	r1, [sp, #348]	; 0x15c
100025a4:	3107      	adds	r1, #7
100025a6:	9158      	str	r1, [sp, #352]	; 0x160
100025a8:	9259      	str	r2, [sp, #356]	; 0x164
100025aa:	3226      	adds	r2, #38	; 0x26
100025ac:	925a      	str	r2, [sp, #360]	; 0x168
100025ae:	3209      	adds	r2, #9
100025b0:	925b      	str	r2, [sp, #364]	; 0x16c
100025b2:	3a8d      	subs	r2, #141	; 0x8d
100025b4:	925c      	str	r2, [sp, #368]	; 0x170
100025b6:	3206      	adds	r2, #6
100025b8:	925d      	str	r2, [sp, #372]	; 0x174
100025ba:	935e      	str	r3, [sp, #376]	; 0x178
100025bc:	945f      	str	r4, [sp, #380]	; 0x17c
100025be:	9460      	str	r4, [sp, #384]	; 0x180
100025c0:	9461      	str	r4, [sp, #388]	; 0x184
100025c2:	9462      	str	r4, [sp, #392]	; 0x188
100025c4:	9463      	str	r4, [sp, #396]	; 0x18c
100025c6:	3368      	adds	r3, #104	; 0x68
100025c8:	466a      	mov	r2, sp
100025ca:	3196      	adds	r1, #150	; 0x96
100025cc:	1852      	adds	r2, r2, r1
100025ce:	50d4      	str	r4, [r2, r3]
100025d0:	21d9      	movs	r1, #217	; 0xd9
100025d2:	00c9      	lsls	r1, r1, #3
100025d4:	4469      	add	r1, sp
100025d6:	600a      	str	r2, [r1, #0]
100025d8:	230b      	movs	r3, #11
100025da:	604b      	str	r3, [r1, #4]
100025dc:	27a6      	movs	r7, #166	; 0xa6
100025de:	00ff      	lsls	r7, r7, #3
100025e0:	446f      	add	r7, sp
100025e2:	2208      	movs	r2, #8
100025e4:	0038      	movs	r0, r7
100025e6:	f00a fb0b 	bl	1000cc00 <__wrap___aeabi_memcpy>
100025ea:	61b4      	str	r4, [r6, #24]
100025ec:	61f4      	str	r4, [r6, #28]
100025ee:	6234      	str	r4, [r6, #32]
100025f0:	683c      	ldr	r4, [r7, #0]
100025f2:	687b      	ldr	r3, [r7, #4]
100025f4:	005f      	lsls	r7, r3, #1
100025f6:	18ff      	adds	r7, r7, r3
100025f8:	00bf      	lsls	r7, r7, #2
100025fa:	19e6      	adds	r6, r4, r7
100025fc:	10ba      	asrs	r2, r7, #2
100025fe:	18bb      	adds	r3, r7, r2
10002600:	0118      	lsls	r0, r3, #4
10002602:	181b      	adds	r3, r3, r0
10002604:	0218      	lsls	r0, r3, #8
10002606:	181b      	adds	r3, r3, r0
10002608:	0418      	lsls	r0, r3, #16
1000260a:	1818      	adds	r0, r3, r0
1000260c:	0040      	lsls	r0, r0, #1
1000260e:	1880      	adds	r0, r0, r2
10002610:	4a51      	ldr	r2, [pc, #324]	; (10002758 <_ZN7Genshin9loadIconsEv+0xf8c>)
10002612:	4297      	cmp	r7, r2
10002614:	d817      	bhi.n	10002646 <_ZN7Genshin9loadIconsEv+0xe7a>
10002616:	2800      	cmp	r0, #0
10002618:	d01a      	beq.n	10002650 <_ZN7Genshin9loadIconsEv+0xe84>
1000261a:	4a50      	ldr	r2, [pc, #320]	; (1000275c <_ZN7Genshin9loadIconsEv+0xf90>)
1000261c:	4290      	cmp	r0, r2
1000261e:	d815      	bhi.n	1000264c <_ZN7Genshin9loadIconsEv+0xe80>
10002620:	0043      	lsls	r3, r0, #1
10002622:	1818      	adds	r0, r3, r0
10002624:	0080      	lsls	r0, r0, #2
10002626:	f00a faf1 	bl	1000cc0c <_Znwj>
1000262a:	4b4e      	ldr	r3, [pc, #312]	; (10002764 <_ZN7Genshin9loadIconsEv+0xf98>)
1000262c:	446b      	add	r3, sp
1000262e:	6018      	str	r0, [r3, #0]
10002630:	19c7      	adds	r7, r0, r7
10002632:	4b4d      	ldr	r3, [pc, #308]	; (10002768 <_ZN7Genshin9loadIconsEv+0xf9c>)
10002634:	446b      	add	r3, sp
10002636:	601f      	str	r7, [r3, #0]
10002638:	42a6      	cmp	r6, r4
1000263a:	d00b      	beq.n	10002654 <_ZN7Genshin9loadIconsEv+0xe88>
1000263c:	0003      	movs	r3, r0
1000263e:	cc07      	ldmia	r4!, {r0, r1, r2}
10002640:	c307      	stmia	r3!, {r0, r1, r2}
10002642:	0018      	movs	r0, r3
10002644:	e7f8      	b.n	10002638 <_ZN7Genshin9loadIconsEv+0xe6c>
10002646:	4846      	ldr	r0, [pc, #280]	; (10002760 <_ZN7Genshin9loadIconsEv+0xf94>)
10002648:	f010 fca8 	bl	10012f9c <_ZSt20__throw_length_errorPKc>
1000264c:	f010 fc7e 	bl	10012f4c <_ZSt17__throw_bad_allocv>
10002650:	2000      	movs	r0, #0
10002652:	e7ea      	b.n	1000262a <_ZN7Genshin9loadIconsEv+0xe5e>
10002654:	4e3f      	ldr	r6, [pc, #252]	; (10002754 <_ZN7Genshin9loadIconsEv+0xf88>)
10002656:	446e      	add	r6, sp
10002658:	61f0      	str	r0, [r6, #28]
1000265a:	2400      	movs	r4, #0
1000265c:	9465      	str	r4, [sp, #404]	; 0x194
1000265e:	9466      	str	r4, [sp, #408]	; 0x198
10002660:	9467      	str	r4, [sp, #412]	; 0x19c
10002662:	9468      	str	r4, [sp, #416]	; 0x1a0
10002664:	9469      	str	r4, [sp, #420]	; 0x1a4
10002666:	946a      	str	r4, [sp, #424]	; 0x1a8
10002668:	2309      	movs	r3, #9
1000266a:	936b      	str	r3, [sp, #428]	; 0x1ac
1000266c:	220c      	movs	r2, #12
1000266e:	926c      	str	r2, [sp, #432]	; 0x1b0
10002670:	3304      	adds	r3, #4
10002672:	936d      	str	r3, [sp, #436]	; 0x1b4
10002674:	333b      	adds	r3, #59	; 0x3b
10002676:	936e      	str	r3, [sp, #440]	; 0x1b8
10002678:	331a      	adds	r3, #26
1000267a:	936f      	str	r3, [sp, #444]	; 0x1bc
1000267c:	3306      	adds	r3, #6
1000267e:	9370      	str	r3, [sp, #448]	; 0x1c0
10002680:	2050      	movs	r0, #80	; 0x50
10002682:	9071      	str	r0, [sp, #452]	; 0x1c4
10002684:	216c      	movs	r1, #108	; 0x6c
10002686:	9172      	str	r1, [sp, #456]	; 0x1c8
10002688:	330a      	adds	r3, #10
1000268a:	9373      	str	r3, [sp, #460]	; 0x1cc
1000268c:	271d      	movs	r7, #29
1000268e:	9774      	str	r7, [sp, #464]	; 0x1d0
10002690:	370b      	adds	r7, #11
10002692:	9775      	str	r7, [sp, #468]	; 0x1d4
10002694:	3702      	adds	r7, #2
10002696:	9776      	str	r7, [sp, #472]	; 0x1d8
10002698:	9077      	str	r0, [sp, #476]	; 0x1dc
1000269a:	9178      	str	r1, [sp, #480]	; 0x1e0
1000269c:	9379      	str	r3, [sp, #484]	; 0x1e4
1000269e:	3b2b      	subs	r3, #43	; 0x2b
100026a0:	937a      	str	r3, [sp, #488]	; 0x1e8
100026a2:	3319      	adds	r3, #25
100026a4:	937b      	str	r3, [sp, #492]	; 0x1ec
100026a6:	3306      	adds	r3, #6
100026a8:	937c      	str	r3, [sp, #496]	; 0x1f0
100026aa:	3b5e      	subs	r3, #94	; 0x5e
100026ac:	937d      	str	r3, [sp, #500]	; 0x1f4
100026ae:	3303      	adds	r3, #3
100026b0:	937e      	str	r3, [sp, #504]	; 0x1f8
100026b2:	927f      	str	r2, [sp, #508]	; 0x1fc
100026b4:	9480      	str	r4, [sp, #512]	; 0x200
100026b6:	9481      	str	r4, [sp, #516]	; 0x204
100026b8:	9482      	str	r4, [sp, #520]	; 0x208
100026ba:	9483      	str	r4, [sp, #524]	; 0x20c
100026bc:	9484      	str	r4, [sp, #528]	; 0x210
100026be:	3274      	adds	r2, #116	; 0x74
100026c0:	4669      	mov	r1, sp
100026c2:	3045      	adds	r0, #69	; 0x45
100026c4:	30ff      	adds	r0, #255	; 0xff
100026c6:	1809      	adds	r1, r1, r0
100026c8:	508c      	str	r4, [r1, r2]
100026ca:	21da      	movs	r1, #218	; 0xda
100026cc:	00c9      	lsls	r1, r1, #3
100026ce:	4469      	add	r1, sp
100026d0:	aa65      	add	r2, sp, #404	; 0x194
100026d2:	600a      	str	r2, [r1, #0]
100026d4:	604b      	str	r3, [r1, #4]
100026d6:	27a6      	movs	r7, #166	; 0xa6
100026d8:	00ff      	lsls	r7, r7, #3
100026da:	446f      	add	r7, sp
100026dc:	2208      	movs	r2, #8
100026de:	0038      	movs	r0, r7
100026e0:	f00a fa8e 	bl	1000cc00 <__wrap___aeabi_memcpy>
100026e4:	6274      	str	r4, [r6, #36]	; 0x24
100026e6:	62b4      	str	r4, [r6, #40]	; 0x28
100026e8:	62f4      	str	r4, [r6, #44]	; 0x2c
100026ea:	683c      	ldr	r4, [r7, #0]
100026ec:	687b      	ldr	r3, [r7, #4]
100026ee:	005f      	lsls	r7, r3, #1
100026f0:	18ff      	adds	r7, r7, r3
100026f2:	00bf      	lsls	r7, r7, #2
100026f4:	19e6      	adds	r6, r4, r7
100026f6:	10ba      	asrs	r2, r7, #2
100026f8:	18bb      	adds	r3, r7, r2
100026fa:	0118      	lsls	r0, r3, #4
100026fc:	181b      	adds	r3, r3, r0
100026fe:	0218      	lsls	r0, r3, #8
10002700:	181b      	adds	r3, r3, r0
10002702:	0418      	lsls	r0, r3, #16
10002704:	1818      	adds	r0, r3, r0
10002706:	0040      	lsls	r0, r0, #1
10002708:	1880      	adds	r0, r0, r2
1000270a:	4a13      	ldr	r2, [pc, #76]	; (10002758 <_ZN7Genshin9loadIconsEv+0xf8c>)
1000270c:	4297      	cmp	r7, r2
1000270e:	d819      	bhi.n	10002744 <_ZN7Genshin9loadIconsEv+0xf78>
10002710:	2800      	cmp	r0, #0
10002712:	d01c      	beq.n	1000274e <_ZN7Genshin9loadIconsEv+0xf82>
10002714:	4a11      	ldr	r2, [pc, #68]	; (1000275c <_ZN7Genshin9loadIconsEv+0xf90>)
10002716:	4290      	cmp	r0, r2
10002718:	d817      	bhi.n	1000274a <_ZN7Genshin9loadIconsEv+0xf7e>
1000271a:	0043      	lsls	r3, r0, #1
1000271c:	1818      	adds	r0, r3, r0
1000271e:	0080      	lsls	r0, r0, #2
10002720:	f00a fa74 	bl	1000cc0c <_Znwj>
10002724:	23bb      	movs	r3, #187	; 0xbb
10002726:	00db      	lsls	r3, r3, #3
10002728:	446b      	add	r3, sp
1000272a:	6018      	str	r0, [r3, #0]
1000272c:	19c7      	adds	r7, r0, r7
1000272e:	23bc      	movs	r3, #188	; 0xbc
10002730:	00db      	lsls	r3, r3, #3
10002732:	446b      	add	r3, sp
10002734:	601f      	str	r7, [r3, #0]
10002736:	42a6      	cmp	r6, r4
10002738:	d018      	beq.n	1000276c <_ZN7Genshin9loadIconsEv+0xfa0>
1000273a:	0003      	movs	r3, r0
1000273c:	cc07      	ldmia	r4!, {r0, r1, r2}
1000273e:	c307      	stmia	r3!, {r0, r1, r2}
10002740:	0018      	movs	r0, r3
10002742:	e7f8      	b.n	10002736 <_ZN7Genshin9loadIconsEv+0xf6a>
10002744:	4806      	ldr	r0, [pc, #24]	; (10002760 <_ZN7Genshin9loadIconsEv+0xf94>)
10002746:	f010 fc29 	bl	10012f9c <_ZSt20__throw_length_errorPKc>
1000274a:	f010 fbff 	bl	10012f4c <_ZSt17__throw_bad_allocv>
1000274e:	2000      	movs	r0, #0
10002750:	e7e8      	b.n	10002724 <_ZN7Genshin9loadIconsEv+0xf58>
10002752:	46c0      	nop			; (mov r8, r8)
10002754:	000005b4 	.word	0x000005b4
10002758:	7ffffff8 	.word	0x7ffffff8
1000275c:	0aaaaaaa 	.word	0x0aaaaaaa
10002760:	1001c394 	.word	0x1001c394
10002764:	000005cc 	.word	0x000005cc
10002768:	000005d4 	.word	0x000005d4
1000276c:	4ccc      	ldr	r4, [pc, #816]	; (10002aa0 <_ZN7Genshin9loadIconsEv+0x12d4>)
1000276e:	446c      	add	r4, sp
10002770:	62a0      	str	r0, [r4, #40]	; 0x28
10002772:	2301      	movs	r3, #1
10002774:	9386      	str	r3, [sp, #536]	; 0x218
10002776:	3301      	adds	r3, #1
10002778:	9387      	str	r3, [sp, #540]	; 0x21c
1000277a:	9388      	str	r3, [sp, #544]	; 0x220
1000277c:	211a      	movs	r1, #26
1000277e:	9189      	str	r1, [sp, #548]	; 0x224
10002780:	2223      	movs	r2, #35	; 0x23
10002782:	928a      	str	r2, [sp, #552]	; 0x228
10002784:	2625      	movs	r6, #37	; 0x25
10002786:	968b      	str	r6, [sp, #556]	; 0x22c
10002788:	203d      	movs	r0, #61	; 0x3d
1000278a:	908c      	str	r0, [sp, #560]	; 0x230
1000278c:	322f      	adds	r2, #47	; 0x2f
1000278e:	928d      	str	r2, [sp, #564]	; 0x234
10002790:	3205      	adds	r2, #5
10002792:	928e      	str	r2, [sp, #568]	; 0x238
10002794:	3a3c      	subs	r2, #60	; 0x3c
10002796:	928f      	str	r2, [sp, #572]	; 0x23c
10002798:	3209      	adds	r2, #9
1000279a:	9290      	str	r2, [sp, #576]	; 0x240
1000279c:	2727      	movs	r7, #39	; 0x27
1000279e:	9791      	str	r7, [sp, #580]	; 0x244
100027a0:	3719      	adds	r7, #25
100027a2:	9792      	str	r7, [sp, #584]	; 0x248
100027a4:	3716      	adds	r7, #22
100027a6:	9793      	str	r7, [sp, #588]	; 0x24c
100027a8:	3705      	adds	r7, #5
100027aa:	9794      	str	r7, [sp, #592]	; 0x250
100027ac:	3f06      	subs	r7, #6
100027ae:	9795      	str	r7, [sp, #596]	; 0x254
100027b0:	371d      	adds	r7, #29
100027b2:	9796      	str	r7, [sp, #600]	; 0x258
100027b4:	3707      	adds	r7, #7
100027b6:	9797      	str	r7, [sp, #604]	; 0x25c
100027b8:	3f37      	subs	r7, #55	; 0x37
100027ba:	9798      	str	r7, [sp, #608]	; 0x260
100027bc:	3717      	adds	r7, #23
100027be:	9799      	str	r7, [sp, #612]	; 0x264
100027c0:	3706      	adds	r7, #6
100027c2:	979a      	str	r7, [sp, #616]	; 0x268
100027c4:	3f43      	subs	r7, #67	; 0x43
100027c6:	979b      	str	r7, [sp, #620]	; 0x26c
100027c8:	969c      	str	r6, [sp, #624]	; 0x270
100027ca:	3603      	adds	r6, #3
100027cc:	969d      	str	r6, [sp, #628]	; 0x274
100027ce:	909e      	str	r0, [sp, #632]	; 0x278
100027d0:	3016      	adds	r0, #22
100027d2:	909f      	str	r0, [sp, #636]	; 0x27c
100027d4:	3005      	adds	r0, #5
100027d6:	90a0      	str	r0, [sp, #640]	; 0x280
100027d8:	91a1      	str	r1, [sp, #644]	; 0x284
100027da:	92a2      	str	r2, [sp, #648]	; 0x288
100027dc:	3202      	adds	r2, #2
100027de:	92a3      	str	r2, [sp, #652]	; 0x28c
100027e0:	93a4      	str	r3, [sp, #656]	; 0x290
100027e2:	3301      	adds	r3, #1
100027e4:	93a5      	str	r3, [sp, #660]	; 0x294
100027e6:	325a      	adds	r2, #90	; 0x5a
100027e8:	4669      	mov	r1, sp
100027ea:	30c1      	adds	r0, #193	; 0xc1
100027ec:	30ff      	adds	r0, #255	; 0xff
100027ee:	1809      	adds	r1, r1, r0
100027f0:	508b      	str	r3, [r1, r2]
100027f2:	21db      	movs	r1, #219	; 0xdb
100027f4:	00c9      	lsls	r1, r1, #3
100027f6:	4469      	add	r1, sp
100027f8:	ab86      	add	r3, sp, #536	; 0x218
100027fa:	600b      	str	r3, [r1, #0]
100027fc:	230b      	movs	r3, #11
100027fe:	604b      	str	r3, [r1, #4]
10002800:	26a6      	movs	r6, #166	; 0xa6
10002802:	00f6      	lsls	r6, r6, #3
10002804:	446e      	add	r6, sp
10002806:	2208      	movs	r2, #8
10002808:	0030      	movs	r0, r6
1000280a:	f00a f9f9 	bl	1000cc00 <__wrap___aeabi_memcpy>
1000280e:	2300      	movs	r3, #0
10002810:	6323      	str	r3, [r4, #48]	; 0x30
10002812:	6363      	str	r3, [r4, #52]	; 0x34
10002814:	63a3      	str	r3, [r4, #56]	; 0x38
10002816:	6834      	ldr	r4, [r6, #0]
10002818:	6873      	ldr	r3, [r6, #4]
1000281a:	005f      	lsls	r7, r3, #1
1000281c:	18ff      	adds	r7, r7, r3
1000281e:	00bf      	lsls	r7, r7, #2
10002820:	19e6      	adds	r6, r4, r7
10002822:	10ba      	asrs	r2, r7, #2
10002824:	18bb      	adds	r3, r7, r2
10002826:	0118      	lsls	r0, r3, #4
10002828:	181b      	adds	r3, r3, r0
1000282a:	0218      	lsls	r0, r3, #8
1000282c:	181b      	adds	r3, r3, r0
1000282e:	0418      	lsls	r0, r3, #16
10002830:	1818      	adds	r0, r3, r0
10002832:	0040      	lsls	r0, r0, #1
10002834:	1880      	adds	r0, r0, r2
10002836:	4a9b      	ldr	r2, [pc, #620]	; (10002aa4 <_ZN7Genshin9loadIconsEv+0x12d8>)
10002838:	4297      	cmp	r7, r2
1000283a:	d817      	bhi.n	1000286c <_ZN7Genshin9loadIconsEv+0x10a0>
1000283c:	2800      	cmp	r0, #0
1000283e:	d01a      	beq.n	10002876 <_ZN7Genshin9loadIconsEv+0x10aa>
10002840:	4a99      	ldr	r2, [pc, #612]	; (10002aa8 <_ZN7Genshin9loadIconsEv+0x12dc>)
10002842:	4290      	cmp	r0, r2
10002844:	d815      	bhi.n	10002872 <_ZN7Genshin9loadIconsEv+0x10a6>
10002846:	0043      	lsls	r3, r0, #1
10002848:	1818      	adds	r0, r3, r0
1000284a:	0080      	lsls	r0, r0, #2
1000284c:	f00a f9de 	bl	1000cc0c <_Znwj>
10002850:	4b96      	ldr	r3, [pc, #600]	; (10002aac <_ZN7Genshin9loadIconsEv+0x12e0>)
10002852:	446b      	add	r3, sp
10002854:	6018      	str	r0, [r3, #0]
10002856:	19c7      	adds	r7, r0, r7
10002858:	4b95      	ldr	r3, [pc, #596]	; (10002ab0 <_ZN7Genshin9loadIconsEv+0x12e4>)
1000285a:	446b      	add	r3, sp
1000285c:	601f      	str	r7, [r3, #0]
1000285e:	42a6      	cmp	r6, r4
10002860:	d00b      	beq.n	1000287a <_ZN7Genshin9loadIconsEv+0x10ae>
10002862:	0003      	movs	r3, r0
10002864:	cc07      	ldmia	r4!, {r0, r1, r2}
10002866:	c307      	stmia	r3!, {r0, r1, r2}
10002868:	0018      	movs	r0, r3
1000286a:	e7f8      	b.n	1000285e <_ZN7Genshin9loadIconsEv+0x1092>
1000286c:	4891      	ldr	r0, [pc, #580]	; (10002ab4 <_ZN7Genshin9loadIconsEv+0x12e8>)
1000286e:	f010 fb95 	bl	10012f9c <_ZSt20__throw_length_errorPKc>
10002872:	f010 fb6b 	bl	10012f4c <_ZSt17__throw_bad_allocv>
10002876:	2000      	movs	r0, #0
10002878:	e7ea      	b.n	10002850 <_ZN7Genshin9loadIconsEv+0x1084>
1000287a:	4c89      	ldr	r4, [pc, #548]	; (10002aa0 <_ZN7Genshin9loadIconsEv+0x12d4>)
1000287c:	446c      	add	r4, sp
1000287e:	6360      	str	r0, [r4, #52]	; 0x34
10002880:	211d      	movs	r1, #29
10002882:	91a7      	str	r1, [sp, #668]	; 0x29c
10002884:	2228      	movs	r2, #40	; 0x28
10002886:	92a8      	str	r2, [sp, #672]	; 0x2a0
10002888:	232a      	movs	r3, #42	; 0x2a
1000288a:	469a      	mov	sl, r3
1000288c:	93a9      	str	r3, [sp, #676]	; 0x2a4
1000288e:	2770      	movs	r7, #112	; 0x70
10002890:	97aa      	str	r7, [sp, #680]	; 0x2a8
10002892:	2697      	movs	r6, #151	; 0x97
10002894:	96ab      	str	r6, [sp, #684]	; 0x2ac
10002896:	20a0      	movs	r0, #160	; 0xa0
10002898:	90ac      	str	r0, [sp, #688]	; 0x2b0
1000289a:	3334      	adds	r3, #52	; 0x34
1000289c:	93ad      	str	r3, [sp, #692]	; 0x2b4
1000289e:	3320      	adds	r3, #32
100028a0:	93ae      	str	r3, [sp, #696]	; 0x2b8
100028a2:	3308      	adds	r3, #8
100028a4:	93af      	str	r3, [sp, #700]	; 0x2bc
100028a6:	3b37      	subs	r3, #55	; 0x37
100028a8:	93b0      	str	r3, [sp, #704]	; 0x2c0
100028aa:	331b      	adds	r3, #27
100028ac:	93b1      	str	r3, [sp, #708]	; 0x2c4
100028ae:	3307      	adds	r3, #7
100028b0:	93b2      	str	r3, [sp, #712]	; 0x2c8
100028b2:	3b20      	subs	r3, #32
100028b4:	93b3      	str	r3, [sp, #716]	; 0x2cc
100028b6:	331c      	adds	r3, #28
100028b8:	93b4      	str	r3, [sp, #720]	; 0x2d0
100028ba:	3307      	adds	r3, #7
100028bc:	93b5      	str	r3, [sp, #724]	; 0x2d4
100028be:	3b08      	subs	r3, #8
100028c0:	4698      	mov	r8, r3
100028c2:	93b6      	str	r3, [sp, #728]	; 0x2d8
100028c4:	3326      	adds	r3, #38	; 0x26
100028c6:	93b7      	str	r3, [sp, #732]	; 0x2dc
100028c8:	3308      	adds	r3, #8
100028ca:	93b8      	str	r3, [sp, #736]	; 0x2e0
100028cc:	3b43      	subs	r3, #67	; 0x43
100028ce:	93b9      	str	r3, [sp, #740]	; 0x2e4
100028d0:	331f      	adds	r3, #31
100028d2:	93ba      	str	r3, [sp, #744]	; 0x2e8
100028d4:	3307      	adds	r3, #7
100028d6:	469c      	mov	ip, r3
100028d8:	93bb      	str	r3, [sp, #748]	; 0x2ec
100028da:	3b2d      	subs	r3, #45	; 0x2d
100028dc:	93bc      	str	r3, [sp, #752]	; 0x2f0
100028de:	4643      	mov	r3, r8
100028e0:	93bd      	str	r3, [sp, #756]	; 0x2f4
100028e2:	3306      	adds	r3, #6
100028e4:	93be      	str	r3, [sp, #760]	; 0x2f8
100028e6:	3b15      	subs	r3, #21
100028e8:	93bf      	str	r3, [sp, #764]	; 0x2fc
100028ea:	4663      	mov	r3, ip
100028ec:	93c0      	str	r3, [sp, #768]	; 0x300
100028ee:	3308      	adds	r3, #8
100028f0:	93c1      	str	r3, [sp, #772]	; 0x304
100028f2:	97c2      	str	r7, [sp, #776]	; 0x308
100028f4:	96c3      	str	r6, [sp, #780]	; 0x30c
100028f6:	90c4      	str	r0, [sp, #784]	; 0x310
100028f8:	91c5      	str	r1, [sp, #788]	; 0x314
100028fa:	92c6      	str	r2, [sp, #792]	; 0x318
100028fc:	3258      	adds	r2, #88	; 0x58
100028fe:	466b      	mov	r3, sp
10002900:	21a7      	movs	r1, #167	; 0xa7
10002902:	0089      	lsls	r1, r1, #2
10002904:	185b      	adds	r3, r3, r1
10002906:	4651      	mov	r1, sl
10002908:	5099      	str	r1, [r3, r2]
1000290a:	21dc      	movs	r1, #220	; 0xdc
1000290c:	00c9      	lsls	r1, r1, #3
1000290e:	4469      	add	r1, sp
10002910:	600b      	str	r3, [r1, #0]
10002912:	230b      	movs	r3, #11
10002914:	604b      	str	r3, [r1, #4]
10002916:	26a6      	movs	r6, #166	; 0xa6
10002918:	00f6      	lsls	r6, r6, #3
1000291a:	446e      	add	r6, sp
1000291c:	2208      	movs	r2, #8
1000291e:	0030      	movs	r0, r6
10002920:	f00a f96e 	bl	1000cc00 <__wrap___aeabi_memcpy>
10002924:	2300      	movs	r3, #0
10002926:	63e3      	str	r3, [r4, #60]	; 0x3c
10002928:	6423      	str	r3, [r4, #64]	; 0x40
1000292a:	6463      	str	r3, [r4, #68]	; 0x44
1000292c:	6834      	ldr	r4, [r6, #0]
1000292e:	6873      	ldr	r3, [r6, #4]
10002930:	005f      	lsls	r7, r3, #1
10002932:	18ff      	adds	r7, r7, r3
10002934:	00bf      	lsls	r7, r7, #2
10002936:	19e6      	adds	r6, r4, r7
10002938:	10ba      	asrs	r2, r7, #2
1000293a:	18bb      	adds	r3, r7, r2
1000293c:	0118      	lsls	r0, r3, #4
1000293e:	181b      	adds	r3, r3, r0
10002940:	0218      	lsls	r0, r3, #8
10002942:	181b      	adds	r3, r3, r0
10002944:	0418      	lsls	r0, r3, #16
10002946:	1818      	adds	r0, r3, r0
10002948:	0040      	lsls	r0, r0, #1
1000294a:	1880      	adds	r0, r0, r2
1000294c:	4a55      	ldr	r2, [pc, #340]	; (10002aa4 <_ZN7Genshin9loadIconsEv+0x12d8>)
1000294e:	4297      	cmp	r7, r2
10002950:	d819      	bhi.n	10002986 <_ZN7Genshin9loadIconsEv+0x11ba>
10002952:	2800      	cmp	r0, #0
10002954:	d01c      	beq.n	10002990 <_ZN7Genshin9loadIconsEv+0x11c4>
10002956:	4a54      	ldr	r2, [pc, #336]	; (10002aa8 <_ZN7Genshin9loadIconsEv+0x12dc>)
10002958:	4290      	cmp	r0, r2
1000295a:	d817      	bhi.n	1000298c <_ZN7Genshin9loadIconsEv+0x11c0>
1000295c:	0043      	lsls	r3, r0, #1
1000295e:	1818      	adds	r0, r3, r0
10002960:	0080      	lsls	r0, r0, #2
10002962:	f00a f953 	bl	1000cc0c <_Znwj>
10002966:	23be      	movs	r3, #190	; 0xbe
10002968:	00db      	lsls	r3, r3, #3
1000296a:	446b      	add	r3, sp
1000296c:	6018      	str	r0, [r3, #0]
1000296e:	19c7      	adds	r7, r0, r7
10002970:	23bf      	movs	r3, #191	; 0xbf
10002972:	00db      	lsls	r3, r3, #3
10002974:	446b      	add	r3, sp
10002976:	601f      	str	r7, [r3, #0]
10002978:	42a6      	cmp	r6, r4
1000297a:	d00b      	beq.n	10002994 <_ZN7Genshin9loadIconsEv+0x11c8>
1000297c:	0003      	movs	r3, r0
1000297e:	cc07      	ldmia	r4!, {r0, r1, r2}
10002980:	c307      	stmia	r3!, {r0, r1, r2}
10002982:	0018      	movs	r0, r3
10002984:	e7f8      	b.n	10002978 <_ZN7Genshin9loadIconsEv+0x11ac>
10002986:	484b      	ldr	r0, [pc, #300]	; (10002ab4 <_ZN7Genshin9loadIconsEv+0x12e8>)
10002988:	f010 fb08 	bl	10012f9c <_ZSt20__throw_length_errorPKc>
1000298c:	f010 fade 	bl	10012f4c <_ZSt17__throw_bad_allocv>
10002990:	2000      	movs	r0, #0
10002992:	e7e8      	b.n	10002966 <_ZN7Genshin9loadIconsEv+0x119a>
10002994:	4c42      	ldr	r4, [pc, #264]	; (10002aa0 <_ZN7Genshin9loadIconsEv+0x12d4>)
10002996:	446c      	add	r4, sp
10002998:	6420      	str	r0, [r4, #64]	; 0x40
1000299a:	2302      	movs	r3, #2
1000299c:	93c8      	str	r3, [sp, #800]	; 0x320
1000299e:	2203      	movs	r2, #3
100029a0:	92c9      	str	r2, [sp, #804]	; 0x324
100029a2:	92ca      	str	r2, [sp, #808]	; 0x328
100029a4:	211a      	movs	r1, #26
100029a6:	91cb      	str	r1, [sp, #812]	; 0x32c
100029a8:	3221      	adds	r2, #33	; 0x21
100029aa:	92cc      	str	r2, [sp, #816]	; 0x330
100029ac:	2026      	movs	r0, #38	; 0x26
100029ae:	90cd      	str	r0, [sp, #820]	; 0x334
100029b0:	3017      	adds	r0, #23
100029b2:	90ce      	str	r0, [sp, #824]	; 0x338
100029b4:	2653      	movs	r6, #83	; 0x53
100029b6:	96cf      	str	r6, [sp, #828]	; 0x33c
100029b8:	3605      	adds	r6, #5
100029ba:	96d0      	str	r6, [sp, #832]	; 0x340
100029bc:	3e3d      	subs	r6, #61	; 0x3d
100029be:	96d1      	str	r6, [sp, #836]	; 0x344
100029c0:	92d2      	str	r2, [sp, #840]	; 0x348
100029c2:	3203      	adds	r2, #3
100029c4:	92d3      	str	r2, [sp, #844]	; 0x34c
100029c6:	3219      	adds	r2, #25
100029c8:	92d4      	str	r2, [sp, #848]	; 0x350
100029ca:	363b      	adds	r6, #59	; 0x3b
100029cc:	96d5      	str	r6, [sp, #852]	; 0x354
100029ce:	321b      	adds	r2, #27
100029d0:	92d6      	str	r2, [sp, #856]	; 0x358
100029d2:	96d7      	str	r6, [sp, #860]	; 0x35c
100029d4:	361d      	adds	r6, #29
100029d6:	96d8      	str	r6, [sp, #864]	; 0x360
100029d8:	3607      	adds	r6, #7
100029da:	96d9      	str	r6, [sp, #868]	; 0x364
100029dc:	3e37      	subs	r6, #55	; 0x37
100029de:	96da      	str	r6, [sp, #872]	; 0x368
100029e0:	92db      	str	r2, [sp, #876]	; 0x36c
100029e2:	3206      	adds	r2, #6
100029e4:	92dc      	str	r2, [sp, #880]	; 0x370
100029e6:	3a45      	subs	r2, #69	; 0x45
100029e8:	92dd      	str	r2, [sp, #884]	; 0x374
100029ea:	3209      	adds	r2, #9
100029ec:	92de      	str	r2, [sp, #888]	; 0x378
100029ee:	3e1b      	subs	r6, #27
100029f0:	96df      	str	r6, [sp, #892]	; 0x37c
100029f2:	90e0      	str	r0, [sp, #896]	; 0x380
100029f4:	3015      	adds	r0, #21
100029f6:	90e1      	str	r0, [sp, #900]	; 0x384
100029f8:	3005      	adds	r0, #5
100029fa:	90e2      	str	r0, [sp, #904]	; 0x388
100029fc:	91e3      	str	r1, [sp, #908]	; 0x38c
100029fe:	3109      	adds	r1, #9
10002a00:	91e4      	str	r1, [sp, #912]	; 0x390
10002a02:	92e5      	str	r2, [sp, #916]	; 0x394
10002a04:	3a24      	subs	r2, #36	; 0x24
10002a06:	92e6      	str	r2, [sp, #920]	; 0x398
10002a08:	93e7      	str	r3, [sp, #924]	; 0x39c
10002a0a:	327f      	adds	r2, #127	; 0x7f
10002a0c:	4669      	mov	r1, sp
10002a0e:	20c8      	movs	r0, #200	; 0xc8
10002a10:	0080      	lsls	r0, r0, #2
10002a12:	1809      	adds	r1, r1, r0
10002a14:	508b      	str	r3, [r1, r2]
10002a16:	21dd      	movs	r1, #221	; 0xdd
10002a18:	00c9      	lsls	r1, r1, #3
10002a1a:	4469      	add	r1, sp
10002a1c:	abc8      	add	r3, sp, #800	; 0x320
10002a1e:	600b      	str	r3, [r1, #0]
10002a20:	230b      	movs	r3, #11
10002a22:	604b      	str	r3, [r1, #4]
10002a24:	26a6      	movs	r6, #166	; 0xa6
10002a26:	00f6      	lsls	r6, r6, #3
10002a28:	446e      	add	r6, sp
10002a2a:	2208      	movs	r2, #8
10002a2c:	0030      	movs	r0, r6
10002a2e:	f00a f8e7 	bl	1000cc00 <__wrap___aeabi_memcpy>
10002a32:	2300      	movs	r3, #0
10002a34:	64a3      	str	r3, [r4, #72]	; 0x48
10002a36:	64e3      	str	r3, [r4, #76]	; 0x4c
10002a38:	6523      	str	r3, [r4, #80]	; 0x50
10002a3a:	6834      	ldr	r4, [r6, #0]
10002a3c:	6873      	ldr	r3, [r6, #4]
10002a3e:	005f      	lsls	r7, r3, #1
10002a40:	18ff      	adds	r7, r7, r3
10002a42:	00bf      	lsls	r7, r7, #2
10002a44:	19e6      	adds	r6, r4, r7
10002a46:	10ba      	asrs	r2, r7, #2
10002a48:	18bb      	adds	r3, r7, r2
10002a4a:	0118      	lsls	r0, r3, #4
10002a4c:	181b      	adds	r3, r3, r0
10002a4e:	0218      	lsls	r0, r3, #8
10002a50:	181b      	adds	r3, r3, r0
10002a52:	0418      	lsls	r0, r3, #16
10002a54:	1818      	adds	r0, r3, r0
10002a56:	0040      	lsls	r0, r0, #1
10002a58:	1880      	adds	r0, r0, r2
10002a5a:	4a12      	ldr	r2, [pc, #72]	; (10002aa4 <_ZN7Genshin9loadIconsEv+0x12d8>)
10002a5c:	4297      	cmp	r7, r2
10002a5e:	d817      	bhi.n	10002a90 <_ZN7Genshin9loadIconsEv+0x12c4>
10002a60:	2800      	cmp	r0, #0
10002a62:	d01a      	beq.n	10002a9a <_ZN7Genshin9loadIconsEv+0x12ce>
10002a64:	4a10      	ldr	r2, [pc, #64]	; (10002aa8 <_ZN7Genshin9loadIconsEv+0x12dc>)
10002a66:	4290      	cmp	r0, r2
10002a68:	d815      	bhi.n	10002a96 <_ZN7Genshin9loadIconsEv+0x12ca>
10002a6a:	0043      	lsls	r3, r0, #1
10002a6c:	1818      	adds	r0, r3, r0
10002a6e:	0080      	lsls	r0, r0, #2
10002a70:	f00a f8cc 	bl	1000cc0c <_Znwj>
10002a74:	4b10      	ldr	r3, [pc, #64]	; (10002ab8 <_ZN7Genshin9loadIconsEv+0x12ec>)
10002a76:	446b      	add	r3, sp
10002a78:	6018      	str	r0, [r3, #0]
10002a7a:	19c7      	adds	r7, r0, r7
10002a7c:	4b0f      	ldr	r3, [pc, #60]	; (10002abc <_ZN7Genshin9loadIconsEv+0x12f0>)
10002a7e:	446b      	add	r3, sp
10002a80:	601f      	str	r7, [r3, #0]
10002a82:	42a6      	cmp	r6, r4
10002a84:	d01c      	beq.n	10002ac0 <_ZN7Genshin9loadIconsEv+0x12f4>
10002a86:	0003      	movs	r3, r0
10002a88:	cc07      	ldmia	r4!, {r0, r1, r2}
10002a8a:	c307      	stmia	r3!, {r0, r1, r2}
10002a8c:	0018      	movs	r0, r3
10002a8e:	e7f8      	b.n	10002a82 <_ZN7Genshin9loadIconsEv+0x12b6>
10002a90:	4808      	ldr	r0, [pc, #32]	; (10002ab4 <_ZN7Genshin9loadIconsEv+0x12e8>)
10002a92:	f010 fa83 	bl	10012f9c <_ZSt20__throw_length_errorPKc>
10002a96:	f010 fa59 	bl	10012f4c <_ZSt17__throw_bad_allocv>
10002a9a:	2000      	movs	r0, #0
10002a9c:	e7ea      	b.n	10002a74 <_ZN7Genshin9loadIconsEv+0x12a8>
10002a9e:	46c0      	nop			; (mov r8, r8)
10002aa0:	000005b4 	.word	0x000005b4
10002aa4:	7ffffff8 	.word	0x7ffffff8
10002aa8:	0aaaaaaa 	.word	0x0aaaaaaa
10002aac:	000005e4 	.word	0x000005e4
10002ab0:	000005ec 	.word	0x000005ec
10002ab4:	1001c394 	.word	0x1001c394
10002ab8:	000005fc 	.word	0x000005fc
10002abc:	00000604 	.word	0x00000604
10002ac0:	4cbb      	ldr	r4, [pc, #748]	; (10002db0 <_ZN7Genshin9loadIconsEv+0x15e4>)
10002ac2:	446c      	add	r4, sp
10002ac4:	64e0      	str	r0, [r4, #76]	; 0x4c
10002ac6:	abe9      	add	r3, sp, #932	; 0x3a4
10002ac8:	2600      	movs	r6, #0
10002aca:	96e9      	str	r6, [sp, #932]	; 0x3a4
10002acc:	605e      	str	r6, [r3, #4]
10002ace:	609e      	str	r6, [r3, #8]
10002ad0:	60de      	str	r6, [r3, #12]
10002ad2:	611e      	str	r6, [r3, #16]
10002ad4:	615e      	str	r6, [r3, #20]
10002ad6:	2208      	movs	r2, #8
10002ad8:	619a      	str	r2, [r3, #24]
10002ada:	3203      	adds	r2, #3
10002adc:	4691      	mov	r9, r2
10002ade:	61da      	str	r2, [r3, #28]
10002ae0:	210c      	movs	r1, #12
10002ae2:	6219      	str	r1, [r3, #32]
10002ae4:	2047      	movs	r0, #71	; 0x47
10002ae6:	6258      	str	r0, [r3, #36]	; 0x24
10002ae8:	3019      	adds	r0, #25
10002aea:	6298      	str	r0, [r3, #40]	; 0x28
10002aec:	3006      	adds	r0, #6
10002aee:	62d8      	str	r0, [r3, #44]	; 0x2c
10002af0:	3816      	subs	r0, #22
10002af2:	4684      	mov	ip, r0
10002af4:	6318      	str	r0, [r3, #48]	; 0x30
10002af6:	276c      	movs	r7, #108	; 0x6c
10002af8:	635f      	str	r7, [r3, #52]	; 0x34
10002afa:	3022      	adds	r0, #34	; 0x22
10002afc:	6398      	str	r0, [r3, #56]	; 0x38
10002afe:	3212      	adds	r2, #18
10002b00:	63da      	str	r2, [r3, #60]	; 0x3c
10002b02:	320b      	adds	r2, #11
10002b04:	641a      	str	r2, [r3, #64]	; 0x40
10002b06:	3202      	adds	r2, #2
10002b08:	645a      	str	r2, [r3, #68]	; 0x44
10002b0a:	4662      	mov	r2, ip
10002b0c:	649a      	str	r2, [r3, #72]	; 0x48
10002b0e:	64df      	str	r7, [r3, #76]	; 0x4c
10002b10:	6518      	str	r0, [r3, #80]	; 0x50
10002b12:	382a      	subs	r0, #42	; 0x2a
10002b14:	6558      	str	r0, [r3, #84]	; 0x54
10002b16:	301a      	adds	r0, #26
10002b18:	6598      	str	r0, [r3, #88]	; 0x58
10002b1a:	3006      	adds	r0, #6
10002b1c:	65d8      	str	r0, [r3, #92]	; 0x5c
10002b1e:	385f      	subs	r0, #95	; 0x5f
10002b20:	6618      	str	r0, [r3, #96]	; 0x60
10002b22:	6659      	str	r1, [r3, #100]	; 0x64
10002b24:	3101      	adds	r1, #1
10002b26:	6699      	str	r1, [r3, #104]	; 0x68
10002b28:	66de      	str	r6, [r3, #108]	; 0x6c
10002b2a:	671e      	str	r6, [r3, #112]	; 0x70
10002b2c:	675e      	str	r6, [r3, #116]	; 0x74
10002b2e:	679e      	str	r6, [r3, #120]	; 0x78
10002b30:	67de      	str	r6, [r3, #124]	; 0x7c
10002b32:	3173      	adds	r1, #115	; 0x73
10002b34:	505e      	str	r6, [r3, r1]
10002b36:	21de      	movs	r1, #222	; 0xde
10002b38:	00c9      	lsls	r1, r1, #3
10002b3a:	4469      	add	r1, sp
10002b3c:	600b      	str	r3, [r1, #0]
10002b3e:	464b      	mov	r3, r9
10002b40:	604b      	str	r3, [r1, #4]
10002b42:	27a6      	movs	r7, #166	; 0xa6
10002b44:	00ff      	lsls	r7, r7, #3
10002b46:	446f      	add	r7, sp
10002b48:	3a48      	subs	r2, #72	; 0x48
10002b4a:	0038      	movs	r0, r7
10002b4c:	f00a f858 	bl	1000cc00 <__wrap___aeabi_memcpy>
10002b50:	6566      	str	r6, [r4, #84]	; 0x54
10002b52:	65a6      	str	r6, [r4, #88]	; 0x58
10002b54:	65e6      	str	r6, [r4, #92]	; 0x5c
10002b56:	683c      	ldr	r4, [r7, #0]
10002b58:	687b      	ldr	r3, [r7, #4]
10002b5a:	005f      	lsls	r7, r3, #1
10002b5c:	18ff      	adds	r7, r7, r3
10002b5e:	00bf      	lsls	r7, r7, #2
10002b60:	19e6      	adds	r6, r4, r7
10002b62:	10ba      	asrs	r2, r7, #2
10002b64:	18bb      	adds	r3, r7, r2
10002b66:	0118      	lsls	r0, r3, #4
10002b68:	181b      	adds	r3, r3, r0
10002b6a:	0218      	lsls	r0, r3, #8
10002b6c:	181b      	adds	r3, r3, r0
10002b6e:	0418      	lsls	r0, r3, #16
10002b70:	1818      	adds	r0, r3, r0
10002b72:	0040      	lsls	r0, r0, #1
10002b74:	1880      	adds	r0, r0, r2
10002b76:	4a8f      	ldr	r2, [pc, #572]	; (10002db4 <_ZN7Genshin9loadIconsEv+0x15e8>)
10002b78:	4297      	cmp	r7, r2
10002b7a:	d813      	bhi.n	10002ba4 <_ZN7Genshin9loadIconsEv+0x13d8>
10002b7c:	2800      	cmp	r0, #0
10002b7e:	d016      	beq.n	10002bae <_ZN7Genshin9loadIconsEv+0x13e2>
10002b80:	4a8d      	ldr	r2, [pc, #564]	; (10002db8 <_ZN7Genshin9loadIconsEv+0x15ec>)
10002b82:	4290      	cmp	r0, r2
10002b84:	d811      	bhi.n	10002baa <_ZN7Genshin9loadIconsEv+0x13de>
10002b86:	0043      	lsls	r3, r0, #1
10002b88:	1818      	adds	r0, r3, r0
10002b8a:	0080      	lsls	r0, r0, #2
10002b8c:	f00a f83e 	bl	1000cc0c <_Znwj>
10002b90:	23c1      	movs	r3, #193	; 0xc1
10002b92:	00db      	lsls	r3, r3, #3
10002b94:	446b      	add	r3, sp
10002b96:	6018      	str	r0, [r3, #0]
10002b98:	19c7      	adds	r7, r0, r7
10002b9a:	23c2      	movs	r3, #194	; 0xc2
10002b9c:	00db      	lsls	r3, r3, #3
10002b9e:	446b      	add	r3, sp
10002ba0:	601f      	str	r7, [r3, #0]
10002ba2:	e00a      	b.n	10002bba <_ZN7Genshin9loadIconsEv+0x13ee>
10002ba4:	4885      	ldr	r0, [pc, #532]	; (10002dbc <_ZN7Genshin9loadIconsEv+0x15f0>)
10002ba6:	f010 f9f9 	bl	10012f9c <_ZSt20__throw_length_errorPKc>
10002baa:	f010 f9cf 	bl	10012f4c <_ZSt17__throw_bad_allocv>
10002bae:	2000      	movs	r0, #0
10002bb0:	e7ee      	b.n	10002b90 <_ZN7Genshin9loadIconsEv+0x13c4>
10002bb2:	0003      	movs	r3, r0
10002bb4:	cc07      	ldmia	r4!, {r0, r1, r2}
10002bb6:	c307      	stmia	r3!, {r0, r1, r2}
10002bb8:	0018      	movs	r0, r3
10002bba:	42a6      	cmp	r6, r4
10002bbc:	d1f9      	bne.n	10002bb2 <_ZN7Genshin9loadIconsEv+0x13e6>
10002bbe:	4c7c      	ldr	r4, [pc, #496]	; (10002db0 <_ZN7Genshin9loadIconsEv+0x15e4>)
10002bc0:	446c      	add	r4, sp
10002bc2:	65a0      	str	r0, [r4, #88]	; 0x58
10002bc4:	abff      	add	r3, sp, #1020	; 0x3fc
10002bc6:	332c      	adds	r3, #44	; 0x2c
10002bc8:	2600      	movs	r6, #0
10002bca:	601e      	str	r6, [r3, #0]
10002bcc:	605e      	str	r6, [r3, #4]
10002bce:	609e      	str	r6, [r3, #8]
10002bd0:	60de      	str	r6, [r3, #12]
10002bd2:	611e      	str	r6, [r3, #16]
10002bd4:	615e      	str	r6, [r3, #20]
10002bd6:	2210      	movs	r2, #16
10002bd8:	619a      	str	r2, [r3, #24]
10002bda:	3206      	adds	r2, #6
10002bdc:	61da      	str	r2, [r3, #28]
10002bde:	3202      	adds	r2, #2
10002be0:	621a      	str	r2, [r3, #32]
10002be2:	216e      	movs	r1, #110	; 0x6e
10002be4:	6259      	str	r1, [r3, #36]	; 0x24
10002be6:	2094      	movs	r0, #148	; 0x94
10002be8:	6298      	str	r0, [r3, #40]	; 0x28
10002bea:	3009      	adds	r0, #9
10002bec:	62d8      	str	r0, [r3, #44]	; 0x2c
10002bee:	3847      	subs	r0, #71	; 0x47
10002bf0:	6318      	str	r0, [r3, #48]	; 0x30
10002bf2:	301d      	adds	r0, #29
10002bf4:	6358      	str	r0, [r3, #52]	; 0x34
10002bf6:	3007      	adds	r0, #7
10002bf8:	6398      	str	r0, [r3, #56]	; 0x38
10002bfa:	3860      	subs	r0, #96	; 0x60
10002bfc:	63d8      	str	r0, [r3, #60]	; 0x3c
10002bfe:	3009      	adds	r0, #9
10002c00:	6418      	str	r0, [r3, #64]	; 0x40
10002c02:	3002      	adds	r0, #2
10002c04:	6458      	str	r0, [r3, #68]	; 0x44
10002c06:	3030      	adds	r0, #48	; 0x30
10002c08:	6498      	str	r0, [r3, #72]	; 0x48
10002c0a:	301d      	adds	r0, #29
10002c0c:	64d8      	str	r0, [r3, #76]	; 0x4c
10002c0e:	3007      	adds	r0, #7
10002c10:	6518      	str	r0, [r3, #80]	; 0x50
10002c12:	6559      	str	r1, [r3, #84]	; 0x54
10002c14:	3127      	adds	r1, #39	; 0x27
10002c16:	6599      	str	r1, [r3, #88]	; 0x58
10002c18:	3109      	adds	r1, #9
10002c1a:	65d9      	str	r1, [r3, #92]	; 0x5c
10002c1c:	398d      	subs	r1, #141	; 0x8d
10002c1e:	6619      	str	r1, [r3, #96]	; 0x60
10002c20:	3106      	adds	r1, #6
10002c22:	6659      	str	r1, [r3, #100]	; 0x64
10002c24:	669a      	str	r2, [r3, #104]	; 0x68
10002c26:	66de      	str	r6, [r3, #108]	; 0x6c
10002c28:	671e      	str	r6, [r3, #112]	; 0x70
10002c2a:	675e      	str	r6, [r3, #116]	; 0x74
10002c2c:	679e      	str	r6, [r3, #120]	; 0x78
10002c2e:	67de      	str	r6, [r3, #124]	; 0x7c
10002c30:	3268      	adds	r2, #104	; 0x68
10002c32:	509e      	str	r6, [r3, r2]
10002c34:	21df      	movs	r1, #223	; 0xdf
10002c36:	00c9      	lsls	r1, r1, #3
10002c38:	4469      	add	r1, sp
10002c3a:	600b      	str	r3, [r1, #0]
10002c3c:	230b      	movs	r3, #11
10002c3e:	604b      	str	r3, [r1, #4]
10002c40:	27a6      	movs	r7, #166	; 0xa6
10002c42:	00ff      	lsls	r7, r7, #3
10002c44:	446f      	add	r7, sp
10002c46:	2208      	movs	r2, #8
10002c48:	0038      	movs	r0, r7
10002c4a:	f009 ffd9 	bl	1000cc00 <__wrap___aeabi_memcpy>
10002c4e:	6626      	str	r6, [r4, #96]	; 0x60
10002c50:	6666      	str	r6, [r4, #100]	; 0x64
10002c52:	66a6      	str	r6, [r4, #104]	; 0x68
10002c54:	683c      	ldr	r4, [r7, #0]
10002c56:	687b      	ldr	r3, [r7, #4]
10002c58:	005f      	lsls	r7, r3, #1
10002c5a:	18ff      	adds	r7, r7, r3
10002c5c:	00bf      	lsls	r7, r7, #2
10002c5e:	19e6      	adds	r6, r4, r7
10002c60:	10ba      	asrs	r2, r7, #2
10002c62:	18bb      	adds	r3, r7, r2
10002c64:	0118      	lsls	r0, r3, #4
10002c66:	181b      	adds	r3, r3, r0
10002c68:	0218      	lsls	r0, r3, #8
10002c6a:	181b      	adds	r3, r3, r0
10002c6c:	0418      	lsls	r0, r3, #16
10002c6e:	1818      	adds	r0, r3, r0
10002c70:	0040      	lsls	r0, r0, #1
10002c72:	1880      	adds	r0, r0, r2
10002c74:	4a4f      	ldr	r2, [pc, #316]	; (10002db4 <_ZN7Genshin9loadIconsEv+0x15e8>)
10002c76:	4297      	cmp	r7, r2
10002c78:	d811      	bhi.n	10002c9e <_ZN7Genshin9loadIconsEv+0x14d2>
10002c7a:	2800      	cmp	r0, #0
10002c7c:	d014      	beq.n	10002ca8 <_ZN7Genshin9loadIconsEv+0x14dc>
10002c7e:	4a4e      	ldr	r2, [pc, #312]	; (10002db8 <_ZN7Genshin9loadIconsEv+0x15ec>)
10002c80:	4290      	cmp	r0, r2
10002c82:	d80f      	bhi.n	10002ca4 <_ZN7Genshin9loadIconsEv+0x14d8>
10002c84:	0043      	lsls	r3, r0, #1
10002c86:	1818      	adds	r0, r3, r0
10002c88:	0080      	lsls	r0, r0, #2
10002c8a:	f009 ffbf 	bl	1000cc0c <_Znwj>
10002c8e:	4b4c      	ldr	r3, [pc, #304]	; (10002dc0 <_ZN7Genshin9loadIconsEv+0x15f4>)
10002c90:	446b      	add	r3, sp
10002c92:	6018      	str	r0, [r3, #0]
10002c94:	19c7      	adds	r7, r0, r7
10002c96:	4b4b      	ldr	r3, [pc, #300]	; (10002dc4 <_ZN7Genshin9loadIconsEv+0x15f8>)
10002c98:	446b      	add	r3, sp
10002c9a:	601f      	str	r7, [r3, #0]
10002c9c:	e00a      	b.n	10002cb4 <_ZN7Genshin9loadIconsEv+0x14e8>
10002c9e:	4847      	ldr	r0, [pc, #284]	; (10002dbc <_ZN7Genshin9loadIconsEv+0x15f0>)
10002ca0:	f010 f97c 	bl	10012f9c <_ZSt20__throw_length_errorPKc>
10002ca4:	f010 f952 	bl	10012f4c <_ZSt17__throw_bad_allocv>
10002ca8:	2000      	movs	r0, #0
10002caa:	e7f0      	b.n	10002c8e <_ZN7Genshin9loadIconsEv+0x14c2>
10002cac:	0003      	movs	r3, r0
10002cae:	cc07      	ldmia	r4!, {r0, r1, r2}
10002cb0:	c307      	stmia	r3!, {r0, r1, r2}
10002cb2:	0018      	movs	r0, r3
10002cb4:	42a6      	cmp	r6, r4
10002cb6:	d1f9      	bne.n	10002cac <_ZN7Genshin9loadIconsEv+0x14e0>
10002cb8:	4c3d      	ldr	r4, [pc, #244]	; (10002db0 <_ZN7Genshin9loadIconsEv+0x15e4>)
10002cba:	446c      	add	r4, sp
10002cbc:	6660      	str	r0, [r4, #100]	; 0x64
10002cbe:	abff      	add	r3, sp, #1020	; 0x3fc
10002cc0:	33b0      	adds	r3, #176	; 0xb0
10002cc2:	2600      	movs	r6, #0
10002cc4:	601e      	str	r6, [r3, #0]
10002cc6:	605e      	str	r6, [r3, #4]
10002cc8:	609e      	str	r6, [r3, #8]
10002cca:	60de      	str	r6, [r3, #12]
10002ccc:	611e      	str	r6, [r3, #16]
10002cce:	615e      	str	r6, [r3, #20]
10002cd0:	210e      	movs	r1, #14
10002cd2:	6199      	str	r1, [r3, #24]
10002cd4:	2213      	movs	r2, #19
10002cd6:	61da      	str	r2, [r3, #28]
10002cd8:	3201      	adds	r2, #1
10002cda:	621a      	str	r2, [r3, #32]
10002cdc:	2043      	movs	r0, #67	; 0x43
10002cde:	6258      	str	r0, [r3, #36]	; 0x24
10002ce0:	3017      	adds	r0, #23
10002ce2:	6298      	str	r0, [r3, #40]	; 0x28
10002ce4:	3006      	adds	r0, #6
10002ce6:	62d8      	str	r0, [r3, #44]	; 0x2c
10002ce8:	384e      	subs	r0, #78	; 0x4e
10002cea:	6318      	str	r0, [r3, #48]	; 0x30
10002cec:	3006      	adds	r0, #6
10002cee:	6358      	str	r0, [r3, #52]	; 0x34
10002cf0:	2719      	movs	r7, #25
10002cf2:	639f      	str	r7, [r3, #56]	; 0x38
10002cf4:	63de      	str	r6, [r3, #60]	; 0x3c
10002cf6:	641e      	str	r6, [r3, #64]	; 0x40
10002cf8:	645e      	str	r6, [r3, #68]	; 0x44
10002cfa:	3f08      	subs	r7, #8
10002cfc:	649f      	str	r7, [r3, #72]	; 0x48
10002cfe:	3706      	adds	r7, #6
10002d00:	64df      	str	r7, [r3, #76]	; 0x4c
10002d02:	6518      	str	r0, [r3, #80]	; 0x50
10002d04:	302a      	adds	r0, #42	; 0x2a
10002d06:	6558      	str	r0, [r3, #84]	; 0x54
10002d08:	3017      	adds	r0, #23
10002d0a:	6598      	str	r0, [r3, #88]	; 0x58
10002d0c:	3006      	adds	r0, #6
10002d0e:	65d8      	str	r0, [r3, #92]	; 0x5c
10002d10:	6619      	str	r1, [r3, #96]	; 0x60
10002d12:	665a      	str	r2, [r3, #100]	; 0x64
10002d14:	3201      	adds	r2, #1
10002d16:	669a      	str	r2, [r3, #104]	; 0x68
10002d18:	66de      	str	r6, [r3, #108]	; 0x6c
10002d1a:	671e      	str	r6, [r3, #112]	; 0x70
10002d1c:	675e      	str	r6, [r3, #116]	; 0x74
10002d1e:	679e      	str	r6, [r3, #120]	; 0x78
10002d20:	67de      	str	r6, [r3, #124]	; 0x7c
10002d22:	326b      	adds	r2, #107	; 0x6b
10002d24:	509e      	str	r6, [r3, r2]
10002d26:	21e0      	movs	r1, #224	; 0xe0
10002d28:	00c9      	lsls	r1, r1, #3
10002d2a:	4469      	add	r1, sp
10002d2c:	600b      	str	r3, [r1, #0]
10002d2e:	230b      	movs	r3, #11
10002d30:	604b      	str	r3, [r1, #4]
10002d32:	27a6      	movs	r7, #166	; 0xa6
10002d34:	00ff      	lsls	r7, r7, #3
10002d36:	446f      	add	r7, sp
10002d38:	2208      	movs	r2, #8
10002d3a:	0038      	movs	r0, r7
10002d3c:	f009 ff60 	bl	1000cc00 <__wrap___aeabi_memcpy>
10002d40:	66e6      	str	r6, [r4, #108]	; 0x6c
10002d42:	6726      	str	r6, [r4, #112]	; 0x70
10002d44:	6766      	str	r6, [r4, #116]	; 0x74
10002d46:	683c      	ldr	r4, [r7, #0]
10002d48:	687b      	ldr	r3, [r7, #4]
10002d4a:	005f      	lsls	r7, r3, #1
10002d4c:	18ff      	adds	r7, r7, r3
10002d4e:	00bf      	lsls	r7, r7, #2
10002d50:	19e6      	adds	r6, r4, r7
10002d52:	10ba      	asrs	r2, r7, #2
10002d54:	18bb      	adds	r3, r7, r2
10002d56:	0118      	lsls	r0, r3, #4
10002d58:	181b      	adds	r3, r3, r0
10002d5a:	0218      	lsls	r0, r3, #8
10002d5c:	181b      	adds	r3, r3, r0
10002d5e:	0418      	lsls	r0, r3, #16
10002d60:	1818      	adds	r0, r3, r0
10002d62:	0040      	lsls	r0, r0, #1
10002d64:	1880      	adds	r0, r0, r2
10002d66:	4a13      	ldr	r2, [pc, #76]	; (10002db4 <_ZN7Genshin9loadIconsEv+0x15e8>)
10002d68:	4297      	cmp	r7, r2
10002d6a:	d819      	bhi.n	10002da0 <_ZN7Genshin9loadIconsEv+0x15d4>
10002d6c:	2800      	cmp	r0, #0
10002d6e:	d01c      	beq.n	10002daa <_ZN7Genshin9loadIconsEv+0x15de>
10002d70:	4a11      	ldr	r2, [pc, #68]	; (10002db8 <_ZN7Genshin9loadIconsEv+0x15ec>)
10002d72:	4290      	cmp	r0, r2
10002d74:	d817      	bhi.n	10002da6 <_ZN7Genshin9loadIconsEv+0x15da>
10002d76:	0043      	lsls	r3, r0, #1
10002d78:	1818      	adds	r0, r3, r0
10002d7a:	0080      	lsls	r0, r0, #2
10002d7c:	f009 ff46 	bl	1000cc0c <_Znwj>
10002d80:	23c4      	movs	r3, #196	; 0xc4
10002d82:	00db      	lsls	r3, r3, #3
10002d84:	446b      	add	r3, sp
10002d86:	6018      	str	r0, [r3, #0]
10002d88:	19c7      	adds	r7, r0, r7
10002d8a:	23c5      	movs	r3, #197	; 0xc5
10002d8c:	00db      	lsls	r3, r3, #3
10002d8e:	446b      	add	r3, sp
10002d90:	601f      	str	r7, [r3, #0]
10002d92:	42a6      	cmp	r6, r4
10002d94:	d018      	beq.n	10002dc8 <_ZN7Genshin9loadIconsEv+0x15fc>
10002d96:	0003      	movs	r3, r0
10002d98:	cc07      	ldmia	r4!, {r0, r1, r2}
10002d9a:	c307      	stmia	r3!, {r0, r1, r2}
10002d9c:	0018      	movs	r0, r3
10002d9e:	e7f8      	b.n	10002d92 <_ZN7Genshin9loadIconsEv+0x15c6>
10002da0:	4806      	ldr	r0, [pc, #24]	; (10002dbc <_ZN7Genshin9loadIconsEv+0x15f0>)
10002da2:	f010 f8fb 	bl	10012f9c <_ZSt20__throw_length_errorPKc>
10002da6:	f010 f8d1 	bl	10012f4c <_ZSt17__throw_bad_allocv>
10002daa:	2000      	movs	r0, #0
10002dac:	e7e8      	b.n	10002d80 <_ZN7Genshin9loadIconsEv+0x15b4>
10002dae:	46c0      	nop			; (mov r8, r8)
10002db0:	000005b4 	.word	0x000005b4
10002db4:	7ffffff8 	.word	0x7ffffff8
10002db8:	0aaaaaaa 	.word	0x0aaaaaaa
10002dbc:	1001c394 	.word	0x1001c394
10002dc0:	00000614 	.word	0x00000614
10002dc4:	0000061c 	.word	0x0000061c
10002dc8:	4cd3      	ldr	r4, [pc, #844]	; (10003118 <_ZN7Genshin9loadIconsEv+0x194c>)
10002dca:	446c      	add	r4, sp
10002dcc:	6720      	str	r0, [r4, #112]	; 0x70
10002dce:	23a6      	movs	r3, #166	; 0xa6
10002dd0:	00db      	lsls	r3, r3, #3
10002dd2:	446b      	add	r3, sp
10002dd4:	2600      	movs	r6, #0
10002dd6:	601e      	str	r6, [r3, #0]
10002dd8:	605e      	str	r6, [r3, #4]
10002dda:	609e      	str	r6, [r3, #8]
10002ddc:	60de      	str	r6, [r3, #12]
10002dde:	611e      	str	r6, [r3, #16]
10002de0:	615e      	str	r6, [r3, #20]
10002de2:	2201      	movs	r2, #1
10002de4:	619a      	str	r2, [r3, #24]
10002de6:	61da      	str	r2, [r3, #28]
10002de8:	621a      	str	r2, [r3, #32]
10002dea:	625e      	str	r6, [r3, #36]	; 0x24
10002dec:	629e      	str	r6, [r3, #40]	; 0x28
10002dee:	62de      	str	r6, [r3, #44]	; 0x2c
10002df0:	631e      	str	r6, [r3, #48]	; 0x30
10002df2:	635e      	str	r6, [r3, #52]	; 0x34
10002df4:	639e      	str	r6, [r3, #56]	; 0x38
10002df6:	63de      	str	r6, [r3, #60]	; 0x3c
10002df8:	641e      	str	r6, [r3, #64]	; 0x40
10002dfa:	645e      	str	r6, [r3, #68]	; 0x44
10002dfc:	649e      	str	r6, [r3, #72]	; 0x48
10002dfe:	64de      	str	r6, [r3, #76]	; 0x4c
10002e00:	651e      	str	r6, [r3, #80]	; 0x50
10002e02:	655e      	str	r6, [r3, #84]	; 0x54
10002e04:	659e      	str	r6, [r3, #88]	; 0x58
10002e06:	65de      	str	r6, [r3, #92]	; 0x5c
10002e08:	661a      	str	r2, [r3, #96]	; 0x60
10002e0a:	665a      	str	r2, [r3, #100]	; 0x64
10002e0c:	669a      	str	r2, [r3, #104]	; 0x68
10002e0e:	66de      	str	r6, [r3, #108]	; 0x6c
10002e10:	671e      	str	r6, [r3, #112]	; 0x70
10002e12:	675e      	str	r6, [r3, #116]	; 0x74
10002e14:	679e      	str	r6, [r3, #120]	; 0x78
10002e16:	67de      	str	r6, [r3, #124]	; 0x7c
10002e18:	2780      	movs	r7, #128	; 0x80
10002e1a:	51de      	str	r6, [r3, r7]
10002e1c:	21e1      	movs	r1, #225	; 0xe1
10002e1e:	00c9      	lsls	r1, r1, #3
10002e20:	4469      	add	r1, sp
10002e22:	23a6      	movs	r3, #166	; 0xa6
10002e24:	00db      	lsls	r3, r3, #3
10002e26:	446b      	add	r3, sp
10002e28:	600b      	str	r3, [r1, #0]
10002e2a:	230b      	movs	r3, #11
10002e2c:	604b      	str	r3, [r1, #4]
10002e2e:	2208      	movs	r2, #8
10002e30:	4668      	mov	r0, sp
10002e32:	f009 fee5 	bl	1000cc00 <__wrap___aeabi_memcpy>
10002e36:	67a6      	str	r6, [r4, #120]	; 0x78
10002e38:	67e6      	str	r6, [r4, #124]	; 0x7c
10002e3a:	51e6      	str	r6, [r4, r7]
10002e3c:	9c00      	ldr	r4, [sp, #0]
10002e3e:	9b01      	ldr	r3, [sp, #4]
10002e40:	005f      	lsls	r7, r3, #1
10002e42:	18ff      	adds	r7, r7, r3
10002e44:	00bf      	lsls	r7, r7, #2
10002e46:	19e6      	adds	r6, r4, r7
10002e48:	10ba      	asrs	r2, r7, #2
10002e4a:	18bb      	adds	r3, r7, r2
10002e4c:	0118      	lsls	r0, r3, #4
10002e4e:	181b      	adds	r3, r3, r0
10002e50:	0218      	lsls	r0, r3, #8
10002e52:	181b      	adds	r3, r3, r0
10002e54:	0418      	lsls	r0, r3, #16
10002e56:	1818      	adds	r0, r3, r0
10002e58:	0040      	lsls	r0, r0, #1
10002e5a:	1880      	adds	r0, r0, r2
10002e5c:	4aaf      	ldr	r2, [pc, #700]	; (1000311c <_ZN7Genshin9loadIconsEv+0x1950>)
10002e5e:	4297      	cmp	r7, r2
10002e60:	d813      	bhi.n	10002e8a <_ZN7Genshin9loadIconsEv+0x16be>
10002e62:	2800      	cmp	r0, #0
10002e64:	d016      	beq.n	10002e94 <_ZN7Genshin9loadIconsEv+0x16c8>
10002e66:	4aae      	ldr	r2, [pc, #696]	; (10003120 <_ZN7Genshin9loadIconsEv+0x1954>)
10002e68:	4290      	cmp	r0, r2
10002e6a:	d811      	bhi.n	10002e90 <_ZN7Genshin9loadIconsEv+0x16c4>
10002e6c:	0043      	lsls	r3, r0, #1
10002e6e:	1818      	adds	r0, r3, r0
10002e70:	0080      	lsls	r0, r0, #2
10002e72:	f009 fecb 	bl	1000cc0c <_Znwj>
10002e76:	4bab      	ldr	r3, [pc, #684]	; (10003124 <_ZN7Genshin9loadIconsEv+0x1958>)
10002e78:	446b      	add	r3, sp
10002e7a:	6018      	str	r0, [r3, #0]
10002e7c:	19c7      	adds	r7, r0, r7
10002e7e:	2380      	movs	r3, #128	; 0x80
10002e80:	466a      	mov	r2, sp
10002e82:	49a5      	ldr	r1, [pc, #660]	; (10003118 <_ZN7Genshin9loadIconsEv+0x194c>)
10002e84:	1852      	adds	r2, r2, r1
10002e86:	50d7      	str	r7, [r2, r3]
10002e88:	e00a      	b.n	10002ea0 <_ZN7Genshin9loadIconsEv+0x16d4>
10002e8a:	48a7      	ldr	r0, [pc, #668]	; (10003128 <_ZN7Genshin9loadIconsEv+0x195c>)
10002e8c:	f010 f886 	bl	10012f9c <_ZSt20__throw_length_errorPKc>
10002e90:	f010 f85c 	bl	10012f4c <_ZSt17__throw_bad_allocv>
10002e94:	2000      	movs	r0, #0
10002e96:	e7ee      	b.n	10002e76 <_ZN7Genshin9loadIconsEv+0x16aa>
10002e98:	0003      	movs	r3, r0
10002e9a:	cc07      	ldmia	r4!, {r0, r1, r2}
10002e9c:	c307      	stmia	r3!, {r0, r1, r2}
10002e9e:	0018      	movs	r0, r3
10002ea0:	42a6      	cmp	r6, r4
10002ea2:	d1f9      	bne.n	10002e98 <_ZN7Genshin9loadIconsEv+0x16cc>
10002ea4:	23c6      	movs	r3, #198	; 0xc6
10002ea6:	00db      	lsls	r3, r3, #3
10002ea8:	446b      	add	r3, sp
10002eaa:	6018      	str	r0, [r3, #0]
10002eac:	24d6      	movs	r4, #214	; 0xd6
10002eae:	00e4      	lsls	r4, r4, #3
10002eb0:	446c      	add	r4, sp
10002eb2:	4f99      	ldr	r7, [pc, #612]	; (10003118 <_ZN7Genshin9loadIconsEv+0x194c>)
10002eb4:	446f      	add	r7, sp
10002eb6:	6027      	str	r7, [r4, #0]
10002eb8:	230b      	movs	r3, #11
10002eba:	6063      	str	r3, [r4, #4]
10002ebc:	26e3      	movs	r6, #227	; 0xe3
10002ebe:	00f6      	lsls	r6, r6, #3
10002ec0:	446e      	add	r6, sp
10002ec2:	23e2      	movs	r3, #226	; 0xe2
10002ec4:	00db      	lsls	r3, r3, #3
10002ec6:	446b      	add	r3, sp
10002ec8:	601e      	str	r6, [r3, #0]
10002eca:	4a98      	ldr	r2, [pc, #608]	; (1000312c <_ZN7Genshin9loadIconsEv+0x1960>)
10002ecc:	1f11      	subs	r1, r2, #4
10002ece:	2300      	movs	r3, #0
10002ed0:	20e2      	movs	r0, #226	; 0xe2
10002ed2:	00c0      	lsls	r0, r0, #3
10002ed4:	4468      	add	r0, sp
10002ed6:	f7fd fa19 	bl	1000030c <_ZNSt7__cxx1112basic_stringIcSt11char_traitsIcESaIcEE12_M_constructIPKcEEvT_S8_St20forward_iterator_tag>
10002eda:	23e2      	movs	r3, #226	; 0xe2
10002edc:	00db      	lsls	r3, r3, #3
10002ede:	446b      	add	r3, sp
10002ee0:	0019      	movs	r1, r3
10002ee2:	0028      	movs	r0, r5
10002ee4:	f7fe f838 	bl	10000f58 <_ZNSt8__detail9_Map_baseINSt7__cxx1112basic_stringIcSt11char_traitsIcESaIcEEESt4pairIKS6_St6vectorIS9_I5ColorSaISA_EESaISC_EEESaISF_ENS_10_Select1stESt8equal_toIS6_ESt4hashIS6_ENS_18_Mod_range_hashingENS_20_Default_ranged_hashENS_20_Prime_rehash_policyENS_17_Hashtable_traitsILb1ELb0ELb1EEELb1EEixEOS6_>
10002ee8:	4680      	mov	r8, r0
10002eea:	2208      	movs	r2, #8
10002eec:	0021      	movs	r1, r4
10002eee:	4668      	mov	r0, sp
10002ef0:	f009 fe86 	bl	1000cc00 <__wrap___aeabi_memcpy>
10002ef4:	2300      	movs	r3, #0
10002ef6:	22c7      	movs	r2, #199	; 0xc7
10002ef8:	00d2      	lsls	r2, r2, #3
10002efa:	446a      	add	r2, sp
10002efc:	0039      	movs	r1, r7
10002efe:	4640      	mov	r0, r8
10002f00:	f7fe fb32 	bl	10001568 <_ZNSt6vectorIS_I5ColorSaIS0_EESaIS2_EE13_M_assign_auxIPKS2_EEvT_S8_St20forward_iterator_tag>
10002f04:	23e2      	movs	r3, #226	; 0xe2
10002f06:	00db      	lsls	r3, r3, #3
10002f08:	446b      	add	r3, sp
10002f0a:	6818      	ldr	r0, [r3, #0]
10002f0c:	42b0      	cmp	r0, r6
10002f0e:	d003      	beq.n	10002f18 <_ZN7Genshin9loadIconsEv+0x174c>
10002f10:	6833      	ldr	r3, [r6, #0]
10002f12:	1c59      	adds	r1, r3, #1
10002f14:	f009 fe86 	bl	1000cc24 <_ZdlPvj>
10002f18:	24c7      	movs	r4, #199	; 0xc7
10002f1a:	00e4      	lsls	r4, r4, #3
10002f1c:	446c      	add	r4, sp
10002f1e:	4b7e      	ldr	r3, [pc, #504]	; (10003118 <_ZN7Genshin9loadIconsEv+0x194c>)
10002f20:	446b      	add	r3, sp
10002f22:	429c      	cmp	r4, r3
10002f24:	d008      	beq.n	10002f38 <_ZN7Genshin9loadIconsEv+0x176c>
10002f26:	3c0c      	subs	r4, #12
10002f28:	6820      	ldr	r0, [r4, #0]
10002f2a:	68a3      	ldr	r3, [r4, #8]
10002f2c:	1a19      	subs	r1, r3, r0
10002f2e:	2800      	cmp	r0, #0
10002f30:	d0f5      	beq.n	10002f1e <_ZN7Genshin9loadIconsEv+0x1752>
10002f32:	f009 fe77 	bl	1000cc24 <_ZdlPvj>
10002f36:	e7f2      	b.n	10002f1e <_ZN7Genshin9loadIconsEv+0x1752>
10002f38:	2400      	movs	r4, #0
10002f3a:	9402      	str	r4, [sp, #8]
10002f3c:	9403      	str	r4, [sp, #12]
10002f3e:	9404      	str	r4, [sp, #16]
10002f40:	9405      	str	r4, [sp, #20]
10002f42:	9406      	str	r4, [sp, #24]
10002f44:	9407      	str	r4, [sp, #28]
10002f46:	2304      	movs	r3, #4
10002f48:	9308      	str	r3, [sp, #32]
10002f4a:	9309      	str	r3, [sp, #36]	; 0x24
10002f4c:	2202      	movs	r2, #2
10002f4e:	920a      	str	r2, [sp, #40]	; 0x28
10002f50:	3b03      	subs	r3, #3
10002f52:	930b      	str	r3, [sp, #44]	; 0x2c
10002f54:	930c      	str	r3, [sp, #48]	; 0x30
10002f56:	940d      	str	r4, [sp, #52]	; 0x34
10002f58:	940e      	str	r4, [sp, #56]	; 0x38
10002f5a:	940f      	str	r4, [sp, #60]	; 0x3c
10002f5c:	9410      	str	r4, [sp, #64]	; 0x40
10002f5e:	3305      	adds	r3, #5
10002f60:	9311      	str	r3, [sp, #68]	; 0x44
10002f62:	3302      	adds	r3, #2
10002f64:	9312      	str	r3, [sp, #72]	; 0x48
10002f66:	9213      	str	r2, [sp, #76]	; 0x4c
10002f68:	3215      	adds	r2, #21
10002f6a:	9214      	str	r2, [sp, #80]	; 0x50
10002f6c:	3204      	adds	r2, #4
10002f6e:	9215      	str	r2, [sp, #84]	; 0x54
10002f70:	9316      	str	r3, [sp, #88]	; 0x58
10002f72:	9417      	str	r4, [sp, #92]	; 0x5c
10002f74:	9418      	str	r4, [sp, #96]	; 0x60
10002f76:	9419      	str	r4, [sp, #100]	; 0x64
10002f78:	941a      	str	r4, [sp, #104]	; 0x68
10002f7a:	941b      	str	r4, [sp, #108]	; 0x6c
10002f7c:	941c      	str	r4, [sp, #112]	; 0x70
10002f7e:	941d      	str	r4, [sp, #116]	; 0x74
10002f80:	941e      	str	r4, [sp, #120]	; 0x78
10002f82:	941f      	str	r4, [sp, #124]	; 0x7c
10002f84:	9420      	str	r4, [sp, #128]	; 0x80
10002f86:	9421      	str	r4, [sp, #132]	; 0x84
10002f88:	3378      	adds	r3, #120	; 0x78
10002f8a:	466a      	mov	r2, sp
10002f8c:	2108      	movs	r1, #8
10002f8e:	1852      	adds	r2, r2, r1
10002f90:	50d4      	str	r4, [r2, r3]
10002f92:	21e6      	movs	r1, #230	; 0xe6
10002f94:	00c9      	lsls	r1, r1, #3
10002f96:	4469      	add	r1, sp
10002f98:	600a      	str	r2, [r1, #0]
10002f9a:	230b      	movs	r3, #11
10002f9c:	604b      	str	r3, [r1, #4]
10002f9e:	26a6      	movs	r6, #166	; 0xa6
10002fa0:	00f6      	lsls	r6, r6, #3
10002fa2:	446e      	add	r6, sp
10002fa4:	2208      	movs	r2, #8
10002fa6:	0030      	movs	r0, r6
10002fa8:	f009 fe2a 	bl	1000cc00 <__wrap___aeabi_memcpy>
10002fac:	4b5a      	ldr	r3, [pc, #360]	; (10003118 <_ZN7Genshin9loadIconsEv+0x194c>)
10002fae:	446b      	add	r3, sp
10002fb0:	601c      	str	r4, [r3, #0]
10002fb2:	23b7      	movs	r3, #183	; 0xb7
10002fb4:	00db      	lsls	r3, r3, #3
10002fb6:	446b      	add	r3, sp
10002fb8:	601c      	str	r4, [r3, #0]
10002fba:	4b5d      	ldr	r3, [pc, #372]	; (10003130 <_ZN7Genshin9loadIconsEv+0x1964>)
10002fbc:	446b      	add	r3, sp
10002fbe:	601c      	str	r4, [r3, #0]
10002fc0:	6834      	ldr	r4, [r6, #0]
10002fc2:	6873      	ldr	r3, [r6, #4]
10002fc4:	005f      	lsls	r7, r3, #1
10002fc6:	18ff      	adds	r7, r7, r3
10002fc8:	00bf      	lsls	r7, r7, #2
10002fca:	19e6      	adds	r6, r4, r7
10002fcc:	10ba      	asrs	r2, r7, #2
10002fce:	18bb      	adds	r3, r7, r2
10002fd0:	0118      	lsls	r0, r3, #4
10002fd2:	181b      	adds	r3, r3, r0
10002fd4:	0218      	lsls	r0, r3, #8
10002fd6:	181b      	adds	r3, r3, r0
10002fd8:	0418      	lsls	r0, r3, #16
10002fda:	1818      	adds	r0, r3, r0
10002fdc:	0040      	lsls	r0, r0, #1
10002fde:	1880      	adds	r0, r0, r2
10002fe0:	4a4e      	ldr	r2, [pc, #312]	; (1000311c <_ZN7Genshin9loadIconsEv+0x1950>)
10002fe2:	4297      	cmp	r7, r2
10002fe4:	d817      	bhi.n	10003016 <_ZN7Genshin9loadIconsEv+0x184a>
10002fe6:	2800      	cmp	r0, #0
10002fe8:	d01a      	beq.n	10003020 <_ZN7Genshin9loadIconsEv+0x1854>
10002fea:	4a4d      	ldr	r2, [pc, #308]	; (10003120 <_ZN7Genshin9loadIconsEv+0x1954>)
10002fec:	4290      	cmp	r0, r2
10002fee:	d815      	bhi.n	1000301c <_ZN7Genshin9loadIconsEv+0x1850>
10002ff0:	0043      	lsls	r3, r0, #1
10002ff2:	1818      	adds	r0, r3, r0
10002ff4:	0080      	lsls	r0, r0, #2
10002ff6:	f009 fe09 	bl	1000cc0c <_Znwj>
10002ffa:	4b47      	ldr	r3, [pc, #284]	; (10003118 <_ZN7Genshin9loadIconsEv+0x194c>)
10002ffc:	446b      	add	r3, sp
10002ffe:	6018      	str	r0, [r3, #0]
10003000:	19c7      	adds	r7, r0, r7
10003002:	4b4b      	ldr	r3, [pc, #300]	; (10003130 <_ZN7Genshin9loadIconsEv+0x1964>)
10003004:	446b      	add	r3, sp
10003006:	601f      	str	r7, [r3, #0]
10003008:	42a6      	cmp	r6, r4
1000300a:	d00b      	beq.n	10003024 <_ZN7Genshin9loadIconsEv+0x1858>
1000300c:	0003      	movs	r3, r0
1000300e:	cc07      	ldmia	r4!, {r0, r1, r2}
10003010:	c307      	stmia	r3!, {r0, r1, r2}
10003012:	0018      	movs	r0, r3
10003014:	e7f8      	b.n	10003008 <_ZN7Genshin9loadIconsEv+0x183c>
10003016:	4844      	ldr	r0, [pc, #272]	; (10003128 <_ZN7Genshin9loadIconsEv+0x195c>)
10003018:	f00f ffc0 	bl	10012f9c <_ZSt20__throw_length_errorPKc>
1000301c:	f00f ff96 	bl	10012f4c <_ZSt17__throw_bad_allocv>
10003020:	2000      	movs	r0, #0
10003022:	e7ea      	b.n	10002ffa <_ZN7Genshin9loadIconsEv+0x182e>
10003024:	4e3c      	ldr	r6, [pc, #240]	; (10003118 <_ZN7Genshin9loadIconsEv+0x194c>)
10003026:	446e      	add	r6, sp
10003028:	6070      	str	r0, [r6, #4]
1000302a:	2400      	movs	r4, #0
1000302c:	9423      	str	r4, [sp, #140]	; 0x8c
1000302e:	9424      	str	r4, [sp, #144]	; 0x90
10003030:	9425      	str	r4, [sp, #148]	; 0x94
10003032:	9426      	str	r4, [sp, #152]	; 0x98
10003034:	9427      	str	r4, [sp, #156]	; 0x9c
10003036:	9428      	str	r4, [sp, #160]	; 0xa0
10003038:	2225      	movs	r2, #37	; 0x25
1000303a:	9229      	str	r2, [sp, #164]	; 0xa4
1000303c:	232d      	movs	r3, #45	; 0x2d
1000303e:	932a      	str	r3, [sp, #168]	; 0xa8
10003040:	3b21      	subs	r3, #33	; 0x21
10003042:	932b      	str	r3, [sp, #172]	; 0xac
10003044:	2168      	movs	r1, #104	; 0x68
10003046:	912c      	str	r1, [sp, #176]	; 0xb0
10003048:	3117      	adds	r1, #23
1000304a:	912d      	str	r1, [sp, #180]	; 0xb4
1000304c:	922e      	str	r2, [sp, #184]	; 0xb8
1000304e:	3a04      	subs	r2, #4
10003050:	922f      	str	r2, [sp, #188]	; 0xbc
10003052:	3207      	adds	r2, #7
10003054:	9230      	str	r2, [sp, #192]	; 0xc0
10003056:	9331      	str	r3, [sp, #196]	; 0xc4
10003058:	333d      	adds	r3, #61	; 0x3d
1000305a:	9332      	str	r3, [sp, #200]	; 0xc8
1000305c:	3310      	adds	r3, #16
1000305e:	9333      	str	r3, [sp, #204]	; 0xcc
10003060:	3b3f      	subs	r3, #63	; 0x3f
10003062:	9334      	str	r3, [sp, #208]	; 0xd0
10003064:	3324      	adds	r3, #36	; 0x24
10003066:	9335      	str	r3, [sp, #212]	; 0xd4
10003068:	330c      	adds	r3, #12
1000306a:	9336      	str	r3, [sp, #216]	; 0xd8
1000306c:	3b35      	subs	r3, #53	; 0x35
1000306e:	9337      	str	r3, [sp, #220]	; 0xdc
10003070:	9438      	str	r4, [sp, #224]	; 0xe0
10003072:	9439      	str	r4, [sp, #228]	; 0xe4
10003074:	943a      	str	r4, [sp, #232]	; 0xe8
10003076:	943b      	str	r4, [sp, #236]	; 0xec
10003078:	943c      	str	r4, [sp, #240]	; 0xf0
1000307a:	943d      	str	r4, [sp, #244]	; 0xf4
1000307c:	943e      	str	r4, [sp, #248]	; 0xf8
1000307e:	943f      	str	r4, [sp, #252]	; 0xfc
10003080:	9440      	str	r4, [sp, #256]	; 0x100
10003082:	9441      	str	r4, [sp, #260]	; 0x104
10003084:	9442      	str	r4, [sp, #264]	; 0x108
10003086:	336b      	adds	r3, #107	; 0x6b
10003088:	466a      	mov	r2, sp
1000308a:	310d      	adds	r1, #13
1000308c:	1852      	adds	r2, r2, r1
1000308e:	50d4      	str	r4, [r2, r3]
10003090:	21e7      	movs	r1, #231	; 0xe7
10003092:	00c9      	lsls	r1, r1, #3
10003094:	4469      	add	r1, sp
10003096:	600a      	str	r2, [r1, #0]
10003098:	230b      	movs	r3, #11
1000309a:	604b      	str	r3, [r1, #4]
1000309c:	27a6      	movs	r7, #166	; 0xa6
1000309e:	00ff      	lsls	r7, r7, #3
100030a0:	446f      	add	r7, sp
100030a2:	2208      	movs	r2, #8
100030a4:	0038      	movs	r0, r7
100030a6:	f009 fdab 	bl	1000cc00 <__wrap___aeabi_memcpy>
100030aa:	60f4      	str	r4, [r6, #12]
100030ac:	6134      	str	r4, [r6, #16]
100030ae:	6174      	str	r4, [r6, #20]
100030b0:	683c      	ldr	r4, [r7, #0]
100030b2:	687b      	ldr	r3, [r7, #4]
100030b4:	005f      	lsls	r7, r3, #1
100030b6:	18ff      	adds	r7, r7, r3
100030b8:	00bf      	lsls	r7, r7, #2
100030ba:	19e6      	adds	r6, r4, r7
100030bc:	10ba      	asrs	r2, r7, #2
100030be:	18bb      	adds	r3, r7, r2
100030c0:	0118      	lsls	r0, r3, #4
100030c2:	181b      	adds	r3, r3, r0
100030c4:	0218      	lsls	r0, r3, #8
100030c6:	181b      	adds	r3, r3, r0
100030c8:	0418      	lsls	r0, r3, #16
100030ca:	1818      	adds	r0, r3, r0
100030cc:	0040      	lsls	r0, r0, #1
100030ce:	1880      	adds	r0, r0, r2
100030d0:	4a12      	ldr	r2, [pc, #72]	; (1000311c <_ZN7Genshin9loadIconsEv+0x1950>)
100030d2:	4297      	cmp	r7, r2
100030d4:	d819      	bhi.n	1000310a <_ZN7Genshin9loadIconsEv+0x193e>
100030d6:	2800      	cmp	r0, #0
100030d8:	d01c      	beq.n	10003114 <_ZN7Genshin9loadIconsEv+0x1948>
100030da:	4a11      	ldr	r2, [pc, #68]	; (10003120 <_ZN7Genshin9loadIconsEv+0x1954>)
100030dc:	4290      	cmp	r0, r2
100030de:	d817      	bhi.n	10003110 <_ZN7Genshin9loadIconsEv+0x1944>
100030e0:	0043      	lsls	r3, r0, #1
100030e2:	1818      	adds	r0, r3, r0
100030e4:	0080      	lsls	r0, r0, #2
100030e6:	f009 fd91 	bl	1000cc0c <_Znwj>
100030ea:	23b8      	movs	r3, #184	; 0xb8
100030ec:	00db      	lsls	r3, r3, #3
100030ee:	446b      	add	r3, sp
100030f0:	6018      	str	r0, [r3, #0]
100030f2:	19c7      	adds	r7, r0, r7
100030f4:	23b9      	movs	r3, #185	; 0xb9
100030f6:	00db      	lsls	r3, r3, #3
100030f8:	446b      	add	r3, sp
100030fa:	601f      	str	r7, [r3, #0]
100030fc:	42a6      	cmp	r6, r4
100030fe:	d019      	beq.n	10003134 <_ZN7Genshin9loadIconsEv+0x1968>
10003100:	0003      	movs	r3, r0
10003102:	cc07      	ldmia	r4!, {r0, r1, r2}
10003104:	c307      	stmia	r3!, {r0, r1, r2}
10003106:	0018      	movs	r0, r3
10003108:	e7f8      	b.n	100030fc <_ZN7Genshin9loadIconsEv+0x1930>
1000310a:	4807      	ldr	r0, [pc, #28]	; (10003128 <_ZN7Genshin9loadIconsEv+0x195c>)
1000310c:	f00f ff46 	bl	10012f9c <_ZSt20__throw_length_errorPKc>
10003110:	f00f ff1c 	bl	10012f4c <_ZSt17__throw_bad_allocv>
10003114:	2000      	movs	r0, #0
10003116:	e7e8      	b.n	100030ea <_ZN7Genshin9loadIconsEv+0x191e>
10003118:	000005b4 	.word	0x000005b4
1000311c:	7ffffff8 	.word	0x7ffffff8
10003120:	0aaaaaaa 	.word	0x0aaaaaaa
10003124:	0000062c 	.word	0x0000062c
10003128:	1001c394 	.word	0x1001c394
1000312c:	1001c378 	.word	0x1001c378
10003130:	000005bc 	.word	0x000005bc
10003134:	4ebc      	ldr	r6, [pc, #752]	; (10003428 <_ZN7Genshin9loadIconsEv+0x1c5c>)
10003136:	446e      	add	r6, sp
10003138:	6130      	str	r0, [r6, #16]
1000313a:	2400      	movs	r4, #0
1000313c:	9444      	str	r4, [sp, #272]	; 0x110
1000313e:	9445      	str	r4, [sp, #276]	; 0x114
10003140:	9446      	str	r4, [sp, #280]	; 0x118
10003142:	9447      	str	r4, [sp, #284]	; 0x11c
10003144:	9448      	str	r4, [sp, #288]	; 0x120
10003146:	9449      	str	r4, [sp, #292]	; 0x124
10003148:	944a      	str	r4, [sp, #296]	; 0x128
1000314a:	944b      	str	r4, [sp, #300]	; 0x12c
1000314c:	944c      	str	r4, [sp, #304]	; 0x130
1000314e:	234b      	movs	r3, #75	; 0x4b
10003150:	934d      	str	r3, [sp, #308]	; 0x134
10003152:	225a      	movs	r2, #90	; 0x5a
10003154:	924e      	str	r2, [sp, #312]	; 0x138
10003156:	3b31      	subs	r3, #49	; 0x31
10003158:	934f      	str	r3, [sp, #316]	; 0x13c
1000315a:	2132      	movs	r1, #50	; 0x32
1000315c:	9150      	str	r1, [sp, #320]	; 0x140
1000315e:	3109      	adds	r1, #9
10003160:	9151      	str	r1, [sp, #324]	; 0x144
10003162:	392b      	subs	r1, #43	; 0x2b
10003164:	9152      	str	r1, [sp, #328]	; 0x148
10003166:	3106      	adds	r1, #6
10003168:	9153      	str	r1, [sp, #332]	; 0x14c
1000316a:	3106      	adds	r1, #6
1000316c:	9154      	str	r1, [sp, #336]	; 0x150
1000316e:	3914      	subs	r1, #20
10003170:	9155      	str	r1, [sp, #340]	; 0x154
10003172:	3141      	adds	r1, #65	; 0x41
10003174:	9156      	str	r1, [sp, #344]	; 0x158
10003176:	9257      	str	r2, [sp, #348]	; 0x15c
10003178:	9358      	str	r3, [sp, #352]	; 0x160
1000317a:	3343      	adds	r3, #67	; 0x43
1000317c:	9359      	str	r3, [sp, #356]	; 0x164
1000317e:	3313      	adds	r3, #19
10003180:	935a      	str	r3, [sp, #360]	; 0x168
10003182:	3b50      	subs	r3, #80	; 0x50
10003184:	935b      	str	r3, [sp, #364]	; 0x16c
10003186:	945c      	str	r4, [sp, #368]	; 0x170
10003188:	945d      	str	r4, [sp, #372]	; 0x174
1000318a:	945e      	str	r4, [sp, #376]	; 0x178
1000318c:	945f      	str	r4, [sp, #380]	; 0x17c
1000318e:	9460      	str	r4, [sp, #384]	; 0x180
10003190:	9461      	str	r4, [sp, #388]	; 0x184
10003192:	9462      	str	r4, [sp, #392]	; 0x188
10003194:	9463      	str	r4, [sp, #396]	; 0x18c
10003196:	3360      	adds	r3, #96	; 0x60
10003198:	466a      	mov	r2, sp
1000319a:	31c7      	adds	r1, #199	; 0xc7
1000319c:	1852      	adds	r2, r2, r1
1000319e:	50d4      	str	r4, [r2, r3]
100031a0:	21e8      	movs	r1, #232	; 0xe8
100031a2:	00c9      	lsls	r1, r1, #3
100031a4:	4469      	add	r1, sp
100031a6:	600a      	str	r2, [r1, #0]
100031a8:	230b      	movs	r3, #11
100031aa:	604b      	str	r3, [r1, #4]
100031ac:	27a6      	movs	r7, #166	; 0xa6
100031ae:	00ff      	lsls	r7, r7, #3
100031b0:	446f      	add	r7, sp
100031b2:	2208      	movs	r2, #8
100031b4:	0038      	movs	r0, r7
100031b6:	f009 fd23 	bl	1000cc00 <__wrap___aeabi_memcpy>
100031ba:	61b4      	str	r4, [r6, #24]
100031bc:	61f4      	str	r4, [r6, #28]
100031be:	6234      	str	r4, [r6, #32]
100031c0:	683c      	ldr	r4, [r7, #0]
100031c2:	687b      	ldr	r3, [r7, #4]
100031c4:	005f      	lsls	r7, r3, #1
100031c6:	18ff      	adds	r7, r7, r3
100031c8:	00bf      	lsls	r7, r7, #2
100031ca:	19e6      	adds	r6, r4, r7
100031cc:	10ba      	asrs	r2, r7, #2
100031ce:	18bb      	adds	r3, r7, r2
100031d0:	0118      	lsls	r0, r3, #4
100031d2:	181b      	adds	r3, r3, r0
100031d4:	0218      	lsls	r0, r3, #8
100031d6:	181b      	adds	r3, r3, r0
100031d8:	0418      	lsls	r0, r3, #16
100031da:	1818      	adds	r0, r3, r0
100031dc:	0040      	lsls	r0, r0, #1
100031de:	1880      	adds	r0, r0, r2
100031e0:	4a92      	ldr	r2, [pc, #584]	; (1000342c <_ZN7Genshin9loadIconsEv+0x1c60>)
100031e2:	4297      	cmp	r7, r2
100031e4:	d817      	bhi.n	10003216 <_ZN7Genshin9loadIconsEv+0x1a4a>
100031e6:	2800      	cmp	r0, #0
100031e8:	d01a      	beq.n	10003220 <_ZN7Genshin9loadIconsEv+0x1a54>
100031ea:	4a91      	ldr	r2, [pc, #580]	; (10003430 <_ZN7Genshin9loadIconsEv+0x1c64>)
100031ec:	4290      	cmp	r0, r2
100031ee:	d815      	bhi.n	1000321c <_ZN7Genshin9loadIconsEv+0x1a50>
100031f0:	0043      	lsls	r3, r0, #1
100031f2:	1818      	adds	r0, r3, r0
100031f4:	0080      	lsls	r0, r0, #2
100031f6:	f009 fd09 	bl	1000cc0c <_Znwj>
100031fa:	4b8e      	ldr	r3, [pc, #568]	; (10003434 <_ZN7Genshin9loadIconsEv+0x1c68>)
100031fc:	446b      	add	r3, sp
100031fe:	6018      	str	r0, [r3, #0]
10003200:	19c7      	adds	r7, r0, r7
10003202:	4b8d      	ldr	r3, [pc, #564]	; (10003438 <_ZN7Genshin9loadIconsEv+0x1c6c>)
10003204:	446b      	add	r3, sp
10003206:	601f      	str	r7, [r3, #0]
10003208:	42a6      	cmp	r6, r4
1000320a:	d00b      	beq.n	10003224 <_ZN7Genshin9loadIconsEv+0x1a58>
1000320c:	0003      	movs	r3, r0
1000320e:	cc07      	ldmia	r4!, {r0, r1, r2}
10003210:	c307      	stmia	r3!, {r0, r1, r2}
10003212:	0018      	movs	r0, r3
10003214:	e7f8      	b.n	10003208 <_ZN7Genshin9loadIconsEv+0x1a3c>
10003216:	4889      	ldr	r0, [pc, #548]	; (1000343c <_ZN7Genshin9loadIconsEv+0x1c70>)
10003218:	f00f fec0 	bl	10012f9c <_ZSt20__throw_length_errorPKc>
1000321c:	f00f fe96 	bl	10012f4c <_ZSt17__throw_bad_allocv>
10003220:	2000      	movs	r0, #0
10003222:	e7ea      	b.n	100031fa <_ZN7Genshin9loadIconsEv+0x1a2e>
10003224:	4e80      	ldr	r6, [pc, #512]	; (10003428 <_ZN7Genshin9loadIconsEv+0x1c5c>)
10003226:	446e      	add	r6, sp
10003228:	61f0      	str	r0, [r6, #28]
1000322a:	2400      	movs	r4, #0
1000322c:	9465      	str	r4, [sp, #404]	; 0x194
1000322e:	9466      	str	r4, [sp, #408]	; 0x198
10003230:	9467      	str	r4, [sp, #412]	; 0x19c
10003232:	9468      	str	r4, [sp, #416]	; 0x1a0
10003234:	9469      	str	r4, [sp, #420]	; 0x1a4
10003236:	946a      	str	r4, [sp, #424]	; 0x1a8
10003238:	2302      	movs	r3, #2
1000323a:	936b      	str	r3, [sp, #428]	; 0x1ac
1000323c:	936c      	str	r3, [sp, #432]	; 0x1b0
1000323e:	3b01      	subs	r3, #1
10003240:	936d      	str	r3, [sp, #436]	; 0x1b4
10003242:	3351      	adds	r3, #81	; 0x51
10003244:	936e      	str	r3, [sp, #440]	; 0x1b8
10003246:	3311      	adds	r3, #17
10003248:	936f      	str	r3, [sp, #444]	; 0x1bc
1000324a:	3b45      	subs	r3, #69	; 0x45
1000324c:	9370      	str	r3, [sp, #448]	; 0x1c0
1000324e:	3348      	adds	r3, #72	; 0x48
10003250:	9371      	str	r3, [sp, #452]	; 0x1c4
10003252:	3315      	adds	r3, #21
10003254:	9372      	str	r3, [sp, #456]	; 0x1c8
10003256:	3b58      	subs	r3, #88	; 0x58
10003258:	9373      	str	r3, [sp, #460]	; 0x1cc
1000325a:	3354      	adds	r3, #84	; 0x54
1000325c:	9374      	str	r3, [sp, #464]	; 0x1d0
1000325e:	3319      	adds	r3, #25
10003260:	9375      	str	r3, [sp, #468]	; 0x1d4
10003262:	3b65      	subs	r3, #101	; 0x65
10003264:	9376      	str	r3, [sp, #472]	; 0x1d8
10003266:	330e      	adds	r3, #14
10003268:	9377      	str	r3, [sp, #476]	; 0x1dc
1000326a:	330d      	adds	r3, #13
1000326c:	9378      	str	r3, [sp, #480]	; 0x1e0
1000326e:	3b32      	subs	r3, #50	; 0x32
10003270:	9379      	str	r3, [sp, #484]	; 0x1e4
10003272:	3333      	adds	r3, #51	; 0x33
10003274:	937a      	str	r3, [sp, #488]	; 0x1e8
10003276:	3310      	adds	r3, #16
10003278:	937b      	str	r3, [sp, #492]	; 0x1ec
1000327a:	3b3d      	subs	r3, #61	; 0x3d
1000327c:	937c      	str	r3, [sp, #496]	; 0x1f0
1000327e:	3317      	adds	r3, #23
10003280:	937d      	str	r3, [sp, #500]	; 0x1f4
10003282:	330b      	adds	r3, #11
10003284:	937e      	str	r3, [sp, #504]	; 0x1f8
10003286:	3b2a      	subs	r3, #42	; 0x2a
10003288:	937f      	str	r3, [sp, #508]	; 0x1fc
1000328a:	9480      	str	r4, [sp, #512]	; 0x200
1000328c:	9481      	str	r4, [sp, #516]	; 0x204
1000328e:	9482      	str	r4, [sp, #520]	; 0x208
10003290:	9483      	str	r4, [sp, #524]	; 0x20c
10003292:	9484      	str	r4, [sp, #528]	; 0x210
10003294:	336e      	adds	r3, #110	; 0x6e
10003296:	466a      	mov	r2, sp
10003298:	21ca      	movs	r1, #202	; 0xca
1000329a:	0049      	lsls	r1, r1, #1
1000329c:	1852      	adds	r2, r2, r1
1000329e:	50d4      	str	r4, [r2, r3]
100032a0:	21e9      	movs	r1, #233	; 0xe9
100032a2:	00c9      	lsls	r1, r1, #3
100032a4:	4469      	add	r1, sp
100032a6:	600a      	str	r2, [r1, #0]
100032a8:	230b      	movs	r3, #11
100032aa:	604b      	str	r3, [r1, #4]
100032ac:	27a6      	movs	r7, #166	; 0xa6
100032ae:	00ff      	lsls	r7, r7, #3
100032b0:	446f      	add	r7, sp
100032b2:	2208      	movs	r2, #8
100032b4:	0038      	movs	r0, r7
100032b6:	f009 fca3 	bl	1000cc00 <__wrap___aeabi_memcpy>
100032ba:	6274      	str	r4, [r6, #36]	; 0x24
100032bc:	62b4      	str	r4, [r6, #40]	; 0x28
100032be:	62f4      	str	r4, [r6, #44]	; 0x2c
100032c0:	683c      	ldr	r4, [r7, #0]
100032c2:	687b      	ldr	r3, [r7, #4]
100032c4:	005f      	lsls	r7, r3, #1
100032c6:	18ff      	adds	r7, r7, r3
100032c8:	00bf      	lsls	r7, r7, #2
100032ca:	19e6      	adds	r6, r4, r7
100032cc:	10ba      	asrs	r2, r7, #2
100032ce:	18bb      	adds	r3, r7, r2
100032d0:	0118      	lsls	r0, r3, #4
100032d2:	181b      	adds	r3, r3, r0
100032d4:	0218      	lsls	r0, r3, #8
100032d6:	181b      	adds	r3, r3, r0
100032d8:	0418      	lsls	r0, r3, #16
100032da:	1818      	adds	r0, r3, r0
100032dc:	0040      	lsls	r0, r0, #1
100032de:	1880      	adds	r0, r0, r2
100032e0:	4a52      	ldr	r2, [pc, #328]	; (1000342c <_ZN7Genshin9loadIconsEv+0x1c60>)
100032e2:	4297      	cmp	r7, r2
100032e4:	d813      	bhi.n	1000330e <_ZN7Genshin9loadIconsEv+0x1b42>
100032e6:	2800      	cmp	r0, #0
100032e8:	d016      	beq.n	10003318 <_ZN7Genshin9loadIconsEv+0x1b4c>
100032ea:	4a51      	ldr	r2, [pc, #324]	; (10003430 <_ZN7Genshin9loadIconsEv+0x1c64>)
100032ec:	4290      	cmp	r0, r2
100032ee:	d811      	bhi.n	10003314 <_ZN7Genshin9loadIconsEv+0x1b48>
100032f0:	0043      	lsls	r3, r0, #1
100032f2:	1818      	adds	r0, r3, r0
100032f4:	0080      	lsls	r0, r0, #2
100032f6:	f009 fc89 	bl	1000cc0c <_Znwj>
100032fa:	23bb      	movs	r3, #187	; 0xbb
100032fc:	00db      	lsls	r3, r3, #3
100032fe:	446b      	add	r3, sp
10003300:	6018      	str	r0, [r3, #0]
10003302:	19c7      	adds	r7, r0, r7
10003304:	23bc      	movs	r3, #188	; 0xbc
10003306:	00db      	lsls	r3, r3, #3
10003308:	446b      	add	r3, sp
1000330a:	601f      	str	r7, [r3, #0]
1000330c:	e00a      	b.n	10003324 <_ZN7Genshin9loadIconsEv+0x1b58>
1000330e:	484b      	ldr	r0, [pc, #300]	; (1000343c <_ZN7Genshin9loadIconsEv+0x1c70>)
10003310:	f00f fe44 	bl	10012f9c <_ZSt20__throw_length_errorPKc>
10003314:	f00f fe1a 	bl	10012f4c <_ZSt17__throw_bad_allocv>
10003318:	2000      	movs	r0, #0
1000331a:	e7ee      	b.n	100032fa <_ZN7Genshin9loadIconsEv+0x1b2e>
1000331c:	0003      	movs	r3, r0
1000331e:	cc07      	ldmia	r4!, {r0, r1, r2}
10003320:	c307      	stmia	r3!, {r0, r1, r2}
10003322:	0018      	movs	r0, r3
10003324:	42a6      	cmp	r6, r4
10003326:	d1f9      	bne.n	1000331c <_ZN7Genshin9loadIconsEv+0x1b50>
10003328:	4e3f      	ldr	r6, [pc, #252]	; (10003428 <_ZN7Genshin9loadIconsEv+0x1c5c>)
1000332a:	446e      	add	r6, sp
1000332c:	62b0      	str	r0, [r6, #40]	; 0x28
1000332e:	2400      	movs	r4, #0
10003330:	9486      	str	r4, [sp, #536]	; 0x218
10003332:	9487      	str	r4, [sp, #540]	; 0x21c
10003334:	9488      	str	r4, [sp, #544]	; 0x220
10003336:	2306      	movs	r3, #6
10003338:	9389      	str	r3, [sp, #548]	; 0x224
1000333a:	2109      	movs	r1, #9
1000333c:	918a      	str	r1, [sp, #552]	; 0x228
1000333e:	2203      	movs	r2, #3
10003340:	928b      	str	r2, [sp, #556]	; 0x22c
10003342:	330d      	adds	r3, #13
10003344:	938c      	str	r3, [sp, #560]	; 0x230
10003346:	2718      	movs	r7, #24
10003348:	978d      	str	r7, [sp, #564]	; 0x234
1000334a:	3b0c      	subs	r3, #12
1000334c:	4698      	mov	r8, r3
1000334e:	938e      	str	r3, [sp, #568]	; 0x238
10003350:	205b      	movs	r0, #91	; 0x5b
10003352:	908f      	str	r0, [sp, #572]	; 0x23c
10003354:	3012      	adds	r0, #18
10003356:	9090      	str	r0, [sp, #576]	; 0x240
10003358:	384e      	subs	r0, #78	; 0x4e
1000335a:	9091      	str	r0, [sp, #580]	; 0x244
1000335c:	331b      	adds	r3, #27
1000335e:	9392      	str	r3, [sp, #584]	; 0x248
10003360:	3306      	adds	r3, #6
10003362:	9393      	str	r3, [sp, #588]	; 0x24c
10003364:	3b1c      	subs	r3, #28
10003366:	9394      	str	r3, [sp, #592]	; 0x250
10003368:	9495      	str	r4, [sp, #596]	; 0x254
1000336a:	9496      	str	r4, [sp, #600]	; 0x258
1000336c:	9497      	str	r4, [sp, #604]	; 0x25c
1000336e:	9798      	str	r7, [sp, #608]	; 0x260
10003370:	9099      	str	r0, [sp, #612]	; 0x264
10003372:	919a      	str	r1, [sp, #616]	; 0x268
10003374:	4643      	mov	r3, r8
10003376:	939b      	str	r3, [sp, #620]	; 0x26c
10003378:	3301      	adds	r3, #1
1000337a:	939c      	str	r3, [sp, #624]	; 0x270
1000337c:	3907      	subs	r1, #7
1000337e:	919d      	str	r1, [sp, #628]	; 0x274
10003380:	3178      	adds	r1, #120	; 0x78
10003382:	919e      	str	r1, [sp, #632]	; 0x278
10003384:	311b      	adds	r1, #27
10003386:	919f      	str	r1, [sp, #636]	; 0x27c
10003388:	396a      	subs	r1, #106	; 0x6a
1000338a:	91a0      	str	r1, [sp, #640]	; 0x280
1000338c:	93a1      	str	r3, [sp, #644]	; 0x284
1000338e:	93a2      	str	r3, [sp, #648]	; 0x288
10003390:	92a3      	str	r2, [sp, #652]	; 0x28c
10003392:	94a4      	str	r4, [sp, #656]	; 0x290
10003394:	94a5      	str	r4, [sp, #660]	; 0x294
10003396:	3378      	adds	r3, #120	; 0x78
10003398:	466a      	mov	r2, sp
1000339a:	31ee      	adds	r1, #238	; 0xee
1000339c:	31ff      	adds	r1, #255	; 0xff
1000339e:	1852      	adds	r2, r2, r1
100033a0:	50d4      	str	r4, [r2, r3]
100033a2:	21ea      	movs	r1, #234	; 0xea
100033a4:	00c9      	lsls	r1, r1, #3
100033a6:	4469      	add	r1, sp
100033a8:	600a      	str	r2, [r1, #0]
100033aa:	230b      	movs	r3, #11
100033ac:	604b      	str	r3, [r1, #4]
100033ae:	27a6      	movs	r7, #166	; 0xa6
100033b0:	00ff      	lsls	r7, r7, #3
100033b2:	446f      	add	r7, sp
100033b4:	2208      	movs	r2, #8
100033b6:	0038      	movs	r0, r7
100033b8:	f009 fc22 	bl	1000cc00 <__wrap___aeabi_memcpy>
100033bc:	6334      	str	r4, [r6, #48]	; 0x30
100033be:	6374      	str	r4, [r6, #52]	; 0x34
100033c0:	63b4      	str	r4, [r6, #56]	; 0x38
100033c2:	683c      	ldr	r4, [r7, #0]
100033c4:	687b      	ldr	r3, [r7, #4]
100033c6:	005f      	lsls	r7, r3, #1
100033c8:	18ff      	adds	r7, r7, r3
100033ca:	00bf      	lsls	r7, r7, #2
100033cc:	19e6      	adds	r6, r4, r7
100033ce:	10ba      	asrs	r2, r7, #2
100033d0:	18bb      	adds	r3, r7, r2
100033d2:	0118      	lsls	r0, r3, #4
100033d4:	181b      	adds	r3, r3, r0
100033d6:	0218      	lsls	r0, r3, #8
100033d8:	181b      	adds	r3, r3, r0
100033da:	0418      	lsls	r0, r3, #16
100033dc:	1818      	adds	r0, r3, r0
100033de:	0040      	lsls	r0, r0, #1
100033e0:	1880      	adds	r0, r0, r2
100033e2:	4a12      	ldr	r2, [pc, #72]	; (1000342c <_ZN7Genshin9loadIconsEv+0x1c60>)
100033e4:	4297      	cmp	r7, r2
100033e6:	d817      	bhi.n	10003418 <_ZN7Genshin9loadIconsEv+0x1c4c>
100033e8:	2800      	cmp	r0, #0
100033ea:	d01a      	beq.n	10003422 <_ZN7Genshin9loadIconsEv+0x1c56>
100033ec:	4a10      	ldr	r2, [pc, #64]	; (10003430 <_ZN7Genshin9loadIconsEv+0x1c64>)
100033ee:	4290      	cmp	r0, r2
100033f0:	d815      	bhi.n	1000341e <_ZN7Genshin9loadIconsEv+0x1c52>
100033f2:	0043      	lsls	r3, r0, #1
100033f4:	1818      	adds	r0, r3, r0
100033f6:	0080      	lsls	r0, r0, #2
100033f8:	f009 fc08 	bl	1000cc0c <_Znwj>
100033fc:	4b10      	ldr	r3, [pc, #64]	; (10003440 <_ZN7Genshin9loadIconsEv+0x1c74>)
100033fe:	446b      	add	r3, sp
10003400:	6018      	str	r0, [r3, #0]
10003402:	19c7      	adds	r7, r0, r7
10003404:	4b0f      	ldr	r3, [pc, #60]	; (10003444 <_ZN7Genshin9loadIconsEv+0x1c78>)
10003406:	446b      	add	r3, sp
10003408:	601f      	str	r7, [r3, #0]
1000340a:	42a6      	cmp	r6, r4
1000340c:	d01c      	beq.n	10003448 <_ZN7Genshin9loadIconsEv+0x1c7c>
1000340e:	0003      	movs	r3, r0
10003410:	cc07      	ldmia	r4!, {r0, r1, r2}
10003412:	c307      	stmia	r3!, {r0, r1, r2}
10003414:	0018      	movs	r0, r3
10003416:	e7f8      	b.n	1000340a <_ZN7Genshin9loadIconsEv+0x1c3e>
10003418:	4808      	ldr	r0, [pc, #32]	; (1000343c <_ZN7Genshin9loadIconsEv+0x1c70>)
1000341a:	f00f fdbf 	bl	10012f9c <_ZSt20__throw_length_errorPKc>
1000341e:	f00f fd95 	bl	10012f4c <_ZSt17__throw_bad_allocv>
10003422:	2000      	movs	r0, #0
10003424:	e7ea      	b.n	100033fc <_ZN7Genshin9loadIconsEv+0x1c30>
10003426:	46c0      	nop			; (mov r8, r8)
10003428:	000005b4 	.word	0x000005b4
1000342c:	7ffffff8 	.word	0x7ffffff8
10003430:	0aaaaaaa 	.word	0x0aaaaaaa
10003434:	000005cc 	.word	0x000005cc
10003438:	000005d4 	.word	0x000005d4
1000343c:	1001c394 	.word	0x1001c394
10003440:	000005e4 	.word	0x000005e4
10003444:	000005ec 	.word	0x000005ec
10003448:	4ebd      	ldr	r6, [pc, #756]	; (10003740 <_ZN7Genshin9loadIconsEv+0x1f74>)
1000344a:	446e      	add	r6, sp
1000344c:	6370      	str	r0, [r6, #52]	; 0x34
1000344e:	2304      	movs	r3, #4
10003450:	93a7      	str	r3, [sp, #668]	; 0x29c
10003452:	93a8      	str	r3, [sp, #672]	; 0x2a0
10003454:	3b02      	subs	r3, #2
10003456:	93a9      	str	r3, [sp, #676]	; 0x2a4
10003458:	2280      	movs	r2, #128	; 0x80
1000345a:	92aa      	str	r2, [sp, #680]	; 0x2a8
1000345c:	219c      	movs	r1, #156	; 0x9c
1000345e:	91ab      	str	r1, [sp, #684]	; 0x2ac
10003460:	202e      	movs	r0, #46	; 0x2e
10003462:	90ac      	str	r0, [sp, #688]	; 0x2b0
10003464:	3102      	adds	r1, #2
10003466:	91ad      	str	r1, [sp, #692]	; 0x2b4
10003468:	3122      	adds	r1, #34	; 0x22
1000346a:	91ae      	str	r1, [sp, #696]	; 0x2b8
1000346c:	3988      	subs	r1, #136	; 0x88
1000346e:	91af      	str	r1, [sp, #700]	; 0x2bc
10003470:	2435      	movs	r4, #53	; 0x35
10003472:	94b0      	str	r4, [sp, #704]	; 0x2c0
10003474:	340a      	adds	r4, #10
10003476:	94b1      	str	r4, [sp, #708]	; 0x2c4
10003478:	3c2e      	subs	r4, #46	; 0x2e
1000347a:	94b2      	str	r4, [sp, #712]	; 0x2c8
1000347c:	2400      	movs	r4, #0
1000347e:	94b3      	str	r4, [sp, #716]	; 0x2cc
10003480:	94b4      	str	r4, [sp, #720]	; 0x2d0
10003482:	94b5      	str	r4, [sp, #724]	; 0x2d4
10003484:	94b6      	str	r4, [sp, #728]	; 0x2d8
10003486:	94b7      	str	r4, [sp, #732]	; 0x2dc
10003488:	94b8      	str	r4, [sp, #736]	; 0x2e0
1000348a:	94b9      	str	r4, [sp, #740]	; 0x2e4
1000348c:	94ba      	str	r4, [sp, #744]	; 0x2e8
1000348e:	94bb      	str	r4, [sp, #748]	; 0x2ec
10003490:	94bc      	str	r4, [sp, #752]	; 0x2f0
10003492:	94bd      	str	r4, [sp, #756]	; 0x2f4
10003494:	94be      	str	r4, [sp, #760]	; 0x2f8
10003496:	90bf      	str	r0, [sp, #764]	; 0x2fc
10003498:	91c0      	str	r1, [sp, #768]	; 0x300
1000349a:	3928      	subs	r1, #40	; 0x28
1000349c:	91c1      	str	r1, [sp, #772]	; 0x304
1000349e:	3158      	adds	r1, #88	; 0x58
100034a0:	91c2      	str	r1, [sp, #776]	; 0x308
100034a2:	3114      	adds	r1, #20
100034a4:	91c3      	str	r1, [sp, #780]	; 0x30c
100034a6:	3957      	subs	r1, #87	; 0x57
100034a8:	91c4      	str	r1, [sp, #784]	; 0x310
100034aa:	93c5      	str	r3, [sp, #788]	; 0x314
100034ac:	93c6      	str	r3, [sp, #792]	; 0x318
100034ae:	3b01      	subs	r3, #1
100034b0:	4669      	mov	r1, sp
100034b2:	20a7      	movs	r0, #167	; 0xa7
100034b4:	0080      	lsls	r0, r0, #2
100034b6:	1809      	adds	r1, r1, r0
100034b8:	508b      	str	r3, [r1, r2]
100034ba:	21eb      	movs	r1, #235	; 0xeb
100034bc:	00c9      	lsls	r1, r1, #3
100034be:	4469      	add	r1, sp
100034c0:	aba7      	add	r3, sp, #668	; 0x29c
100034c2:	600b      	str	r3, [r1, #0]
100034c4:	230b      	movs	r3, #11
100034c6:	604b      	str	r3, [r1, #4]
100034c8:	27a6      	movs	r7, #166	; 0xa6
100034ca:	00ff      	lsls	r7, r7, #3
100034cc:	446f      	add	r7, sp
100034ce:	2208      	movs	r2, #8
100034d0:	0038      	movs	r0, r7
100034d2:	f009 fb95 	bl	1000cc00 <__wrap___aeabi_memcpy>
100034d6:	63f4      	str	r4, [r6, #60]	; 0x3c
100034d8:	6434      	str	r4, [r6, #64]	; 0x40
100034da:	6474      	str	r4, [r6, #68]	; 0x44
100034dc:	683c      	ldr	r4, [r7, #0]
100034de:	687b      	ldr	r3, [r7, #4]
100034e0:	005f      	lsls	r7, r3, #1
100034e2:	18ff      	adds	r7, r7, r3
100034e4:	00bf      	lsls	r7, r7, #2
100034e6:	19e6      	adds	r6, r4, r7
100034e8:	10ba      	asrs	r2, r7, #2
100034ea:	18bb      	adds	r3, r7, r2
100034ec:	0118      	lsls	r0, r3, #4
100034ee:	181b      	adds	r3, r3, r0
100034f0:	0218      	lsls	r0, r3, #8
100034f2:	181b      	adds	r3, r3, r0
100034f4:	0418      	lsls	r0, r3, #16
100034f6:	1818      	adds	r0, r3, r0
100034f8:	0040      	lsls	r0, r0, #1
100034fa:	1880      	adds	r0, r0, r2
100034fc:	4a91      	ldr	r2, [pc, #580]	; (10003744 <_ZN7Genshin9loadIconsEv+0x1f78>)
100034fe:	4297      	cmp	r7, r2
10003500:	d819      	bhi.n	10003536 <_ZN7Genshin9loadIconsEv+0x1d6a>
10003502:	2800      	cmp	r0, #0
10003504:	d01c      	beq.n	10003540 <_ZN7Genshin9loadIconsEv+0x1d74>
10003506:	4a90      	ldr	r2, [pc, #576]	; (10003748 <_ZN7Genshin9loadIconsEv+0x1f7c>)
10003508:	4290      	cmp	r0, r2
1000350a:	d817      	bhi.n	1000353c <_ZN7Genshin9loadIconsEv+0x1d70>
1000350c:	0043      	lsls	r3, r0, #1
1000350e:	1818      	adds	r0, r3, r0
10003510:	0080      	lsls	r0, r0, #2
10003512:	f009 fb7b 	bl	1000cc0c <_Znwj>
10003516:	23be      	movs	r3, #190	; 0xbe
10003518:	00db      	lsls	r3, r3, #3
1000351a:	446b      	add	r3, sp
1000351c:	6018      	str	r0, [r3, #0]
1000351e:	19c7      	adds	r7, r0, r7
10003520:	23bf      	movs	r3, #191	; 0xbf
10003522:	00db      	lsls	r3, r3, #3
10003524:	446b      	add	r3, sp
10003526:	601f      	str	r7, [r3, #0]
10003528:	42a6      	cmp	r6, r4
1000352a:	d00b      	beq.n	10003544 <_ZN7Genshin9loadIconsEv+0x1d78>
1000352c:	0003      	movs	r3, r0
1000352e:	cc07      	ldmia	r4!, {r0, r1, r2}
10003530:	c307      	stmia	r3!, {r0, r1, r2}
10003532:	0018      	movs	r0, r3
10003534:	e7f8      	b.n	10003528 <_ZN7Genshin9loadIconsEv+0x1d5c>
10003536:	4885      	ldr	r0, [pc, #532]	; (1000374c <_ZN7Genshin9loadIconsEv+0x1f80>)
10003538:	f00f fd30 	bl	10012f9c <_ZSt20__throw_length_errorPKc>
1000353c:	f00f fd06 	bl	10012f4c <_ZSt17__throw_bad_allocv>
10003540:	2000      	movs	r0, #0
10003542:	e7e8      	b.n	10003516 <_ZN7Genshin9loadIconsEv+0x1d4a>
10003544:	4e7e      	ldr	r6, [pc, #504]	; (10003740 <_ZN7Genshin9loadIconsEv+0x1f74>)
10003546:	446e      	add	r6, sp
10003548:	6430      	str	r0, [r6, #64]	; 0x40
1000354a:	2400      	movs	r4, #0
1000354c:	94c8      	str	r4, [sp, #800]	; 0x320
1000354e:	94c9      	str	r4, [sp, #804]	; 0x324
10003550:	94ca      	str	r4, [sp, #808]	; 0x328
10003552:	2306      	movs	r3, #6
10003554:	93cb      	str	r3, [sp, #812]	; 0x32c
10003556:	3303      	adds	r3, #3
10003558:	93cc      	str	r3, [sp, #816]	; 0x330
1000355a:	2203      	movs	r2, #3
1000355c:	92cd      	str	r2, [sp, #820]	; 0x334
1000355e:	2113      	movs	r1, #19
10003560:	91ce      	str	r1, [sp, #824]	; 0x338
10003562:	3105      	adds	r1, #5
10003564:	91cf      	str	r1, [sp, #828]	; 0x33c
10003566:	3911      	subs	r1, #17
10003568:	91d0      	str	r1, [sp, #832]	; 0x340
1000356a:	3154      	adds	r1, #84	; 0x54
1000356c:	91d1      	str	r1, [sp, #836]	; 0x344
1000356e:	3112      	adds	r1, #18
10003570:	91d2      	str	r1, [sp, #840]	; 0x348
10003572:	394e      	subs	r1, #78	; 0x4e
10003574:	91d3      	str	r1, [sp, #844]	; 0x34c
10003576:	3103      	adds	r1, #3
10003578:	91d4      	str	r1, [sp, #848]	; 0x350
1000357a:	2029      	movs	r0, #41	; 0x29
1000357c:	90d5      	str	r0, [sp, #852]	; 0x354
1000357e:	381d      	subs	r0, #29
10003580:	90d6      	str	r0, [sp, #856]	; 0x358
10003582:	94d7      	str	r4, [sp, #860]	; 0x35c
10003584:	94d8      	str	r4, [sp, #864]	; 0x360
10003586:	94d9      	str	r4, [sp, #868]	; 0x364
10003588:	300f      	adds	r0, #15
1000358a:	90da      	str	r0, [sp, #872]	; 0x368
1000358c:	91db      	str	r1, [sp, #876]	; 0x36c
1000358e:	93dc      	str	r3, [sp, #880]	; 0x370
10003590:	3b01      	subs	r3, #1
10003592:	93dd      	str	r3, [sp, #884]	; 0x374
10003594:	3918      	subs	r1, #24
10003596:	91de      	str	r1, [sp, #888]	; 0x378
10003598:	3908      	subs	r1, #8
1000359a:	91df      	str	r1, [sp, #892]	; 0x37c
1000359c:	317a      	adds	r1, #122	; 0x7a
1000359e:	91e0      	str	r1, [sp, #896]	; 0x380
100035a0:	3119      	adds	r1, #25
100035a2:	91e1      	str	r1, [sp, #900]	; 0x384
100035a4:	3969      	subs	r1, #105	; 0x69
100035a6:	91e2      	str	r1, [sp, #904]	; 0x388
100035a8:	93e3      	str	r3, [sp, #908]	; 0x38c
100035aa:	93e4      	str	r3, [sp, #912]	; 0x390
100035ac:	92e5      	str	r2, [sp, #916]	; 0x394
100035ae:	94e6      	str	r4, [sp, #920]	; 0x398
100035b0:	94e7      	str	r4, [sp, #924]	; 0x39c
100035b2:	3378      	adds	r3, #120	; 0x78
100035b4:	466a      	mov	r2, sp
100035b6:	21c8      	movs	r1, #200	; 0xc8
100035b8:	0089      	lsls	r1, r1, #2
100035ba:	1852      	adds	r2, r2, r1
100035bc:	50d4      	str	r4, [r2, r3]
100035be:	21ec      	movs	r1, #236	; 0xec
100035c0:	00c9      	lsls	r1, r1, #3
100035c2:	4469      	add	r1, sp
100035c4:	600a      	str	r2, [r1, #0]
100035c6:	230b      	movs	r3, #11
100035c8:	604b      	str	r3, [r1, #4]
100035ca:	27a6      	movs	r7, #166	; 0xa6
100035cc:	00ff      	lsls	r7, r7, #3
100035ce:	446f      	add	r7, sp
100035d0:	2208      	movs	r2, #8
100035d2:	0038      	movs	r0, r7
100035d4:	f009 fb14 	bl	1000cc00 <__wrap___aeabi_memcpy>
100035d8:	64b4      	str	r4, [r6, #72]	; 0x48
100035da:	64f4      	str	r4, [r6, #76]	; 0x4c
100035dc:	6534      	str	r4, [r6, #80]	; 0x50
100035de:	683c      	ldr	r4, [r7, #0]
100035e0:	687b      	ldr	r3, [r7, #4]
100035e2:	005f      	lsls	r7, r3, #1
100035e4:	18ff      	adds	r7, r7, r3
100035e6:	00bf      	lsls	r7, r7, #2
100035e8:	19e6      	adds	r6, r4, r7
100035ea:	10ba      	asrs	r2, r7, #2
100035ec:	18bb      	adds	r3, r7, r2
100035ee:	0118      	lsls	r0, r3, #4
100035f0:	181b      	adds	r3, r3, r0
100035f2:	0218      	lsls	r0, r3, #8
100035f4:	181b      	adds	r3, r3, r0
100035f6:	0418      	lsls	r0, r3, #16
100035f8:	1818      	adds	r0, r3, r0
100035fa:	0040      	lsls	r0, r0, #1
100035fc:	1880      	adds	r0, r0, r2
100035fe:	4a51      	ldr	r2, [pc, #324]	; (10003744 <_ZN7Genshin9loadIconsEv+0x1f78>)
10003600:	4297      	cmp	r7, r2
10003602:	d817      	bhi.n	10003634 <_ZN7Genshin9loadIconsEv+0x1e68>
10003604:	2800      	cmp	r0, #0
10003606:	d01a      	beq.n	1000363e <_ZN7Genshin9loadIconsEv+0x1e72>
10003608:	4a4f      	ldr	r2, [pc, #316]	; (10003748 <_ZN7Genshin9loadIconsEv+0x1f7c>)
1000360a:	4290      	cmp	r0, r2
1000360c:	d815      	bhi.n	1000363a <_ZN7Genshin9loadIconsEv+0x1e6e>
1000360e:	0043      	lsls	r3, r0, #1
10003610:	1818      	adds	r0, r3, r0
10003612:	0080      	lsls	r0, r0, #2
10003614:	f009 fafa 	bl	1000cc0c <_Znwj>
10003618:	4b4d      	ldr	r3, [pc, #308]	; (10003750 <_ZN7Genshin9loadIconsEv+0x1f84>)
1000361a:	446b      	add	r3, sp
1000361c:	6018      	str	r0, [r3, #0]
1000361e:	19c7      	adds	r7, r0, r7
10003620:	4b4c      	ldr	r3, [pc, #304]	; (10003754 <_ZN7Genshin9loadIconsEv+0x1f88>)
10003622:	446b      	add	r3, sp
10003624:	601f      	str	r7, [r3, #0]
10003626:	42a6      	cmp	r6, r4
10003628:	d00b      	beq.n	10003642 <_ZN7Genshin9loadIconsEv+0x1e76>
1000362a:	0003      	movs	r3, r0
1000362c:	cc07      	ldmia	r4!, {r0, r1, r2}
1000362e:	c307      	stmia	r3!, {r0, r1, r2}
10003630:	0018      	movs	r0, r3
10003632:	e7f8      	b.n	10003626 <_ZN7Genshin9loadIconsEv+0x1e5a>
10003634:	4845      	ldr	r0, [pc, #276]	; (1000374c <_ZN7Genshin9loadIconsEv+0x1f80>)
10003636:	f00f fcb1 	bl	10012f9c <_ZSt20__throw_length_errorPKc>
1000363a:	f00f fc87 	bl	10012f4c <_ZSt17__throw_bad_allocv>
1000363e:	2000      	movs	r0, #0
10003640:	e7ea      	b.n	10003618 <_ZN7Genshin9loadIconsEv+0x1e4c>
10003642:	4c3f      	ldr	r4, [pc, #252]	; (10003740 <_ZN7Genshin9loadIconsEv+0x1f74>)
10003644:	446c      	add	r4, sp
10003646:	64e0      	str	r0, [r4, #76]	; 0x4c
10003648:	abe9      	add	r3, sp, #932	; 0x3a4
1000364a:	2600      	movs	r6, #0
1000364c:	96e9      	str	r6, [sp, #932]	; 0x3a4
1000364e:	605e      	str	r6, [r3, #4]
10003650:	609e      	str	r6, [r3, #8]
10003652:	60de      	str	r6, [r3, #12]
10003654:	611e      	str	r6, [r3, #16]
10003656:	615e      	str	r6, [r3, #20]
10003658:	2202      	movs	r2, #2
1000365a:	619a      	str	r2, [r3, #24]
1000365c:	61da      	str	r2, [r3, #28]
1000365e:	3a01      	subs	r2, #1
10003660:	621a      	str	r2, [r3, #32]
10003662:	3251      	adds	r2, #81	; 0x51
10003664:	625a      	str	r2, [r3, #36]	; 0x24
10003666:	3211      	adds	r2, #17
10003668:	629a      	str	r2, [r3, #40]	; 0x28
1000366a:	3a45      	subs	r2, #69	; 0x45
1000366c:	62da      	str	r2, [r3, #44]	; 0x2c
1000366e:	3248      	adds	r2, #72	; 0x48
10003670:	631a      	str	r2, [r3, #48]	; 0x30
10003672:	3215      	adds	r2, #21
10003674:	635a      	str	r2, [r3, #52]	; 0x34
10003676:	3a56      	subs	r2, #86	; 0x56
10003678:	639a      	str	r2, [r3, #56]	; 0x38
1000367a:	3252      	adds	r2, #82	; 0x52
1000367c:	63da      	str	r2, [r3, #60]	; 0x3c
1000367e:	321a      	adds	r2, #26
10003680:	641a      	str	r2, [r3, #64]	; 0x40
10003682:	3a67      	subs	r2, #103	; 0x67
10003684:	645a      	str	r2, [r3, #68]	; 0x44
10003686:	3210      	adds	r2, #16
10003688:	649a      	str	r2, [r3, #72]	; 0x48
1000368a:	320d      	adds	r2, #13
1000368c:	64da      	str	r2, [r3, #76]	; 0x4c
1000368e:	3a32      	subs	r2, #50	; 0x32
10003690:	651a      	str	r2, [r3, #80]	; 0x50
10003692:	3233      	adds	r2, #51	; 0x33
10003694:	655a      	str	r2, [r3, #84]	; 0x54
10003696:	320f      	adds	r2, #15
10003698:	659a      	str	r2, [r3, #88]	; 0x58
1000369a:	3a3e      	subs	r2, #62	; 0x3e
1000369c:	65da      	str	r2, [r3, #92]	; 0x5c
1000369e:	3219      	adds	r2, #25
100036a0:	661a      	str	r2, [r3, #96]	; 0x60
100036a2:	320a      	adds	r2, #10
100036a4:	665a      	str	r2, [r3, #100]	; 0x64
100036a6:	3a2a      	subs	r2, #42	; 0x2a
100036a8:	669a      	str	r2, [r3, #104]	; 0x68
100036aa:	66de      	str	r6, [r3, #108]	; 0x6c
100036ac:	671e      	str	r6, [r3, #112]	; 0x70
100036ae:	675e      	str	r6, [r3, #116]	; 0x74
100036b0:	679e      	str	r6, [r3, #120]	; 0x78
100036b2:	67de      	str	r6, [r3, #124]	; 0x7c
100036b4:	326e      	adds	r2, #110	; 0x6e
100036b6:	509e      	str	r6, [r3, r2]
100036b8:	21ed      	movs	r1, #237	; 0xed
100036ba:	00c9      	lsls	r1, r1, #3
100036bc:	4469      	add	r1, sp
100036be:	600b      	str	r3, [r1, #0]
100036c0:	230b      	movs	r3, #11
100036c2:	604b      	str	r3, [r1, #4]
100036c4:	27a6      	movs	r7, #166	; 0xa6
100036c6:	00ff      	lsls	r7, r7, #3
100036c8:	446f      	add	r7, sp
100036ca:	2208      	movs	r2, #8
100036cc:	0038      	movs	r0, r7
100036ce:	f009 fa97 	bl	1000cc00 <__wrap___aeabi_memcpy>
100036d2:	6566      	str	r6, [r4, #84]	; 0x54
100036d4:	65a6      	str	r6, [r4, #88]	; 0x58
100036d6:	65e6      	str	r6, [r4, #92]	; 0x5c
100036d8:	683c      	ldr	r4, [r7, #0]
100036da:	687b      	ldr	r3, [r7, #4]
100036dc:	005f      	lsls	r7, r3, #1
100036de:	18ff      	adds	r7, r7, r3
100036e0:	00bf      	lsls	r7, r7, #2
100036e2:	19e6      	adds	r6, r4, r7
100036e4:	10ba      	asrs	r2, r7, #2
100036e6:	18bb      	adds	r3, r7, r2
100036e8:	0118      	lsls	r0, r3, #4
100036ea:	181b      	adds	r3, r3, r0
100036ec:	0218      	lsls	r0, r3, #8
100036ee:	181b      	adds	r3, r3, r0
100036f0:	0418      	lsls	r0, r3, #16
100036f2:	1818      	adds	r0, r3, r0
100036f4:	0040      	lsls	r0, r0, #1
100036f6:	1880      	adds	r0, r0, r2
100036f8:	4a12      	ldr	r2, [pc, #72]	; (10003744 <_ZN7Genshin9loadIconsEv+0x1f78>)
100036fa:	4297      	cmp	r7, r2
100036fc:	d819      	bhi.n	10003732 <_ZN7Genshin9loadIconsEv+0x1f66>
100036fe:	2800      	cmp	r0, #0
10003700:	d01c      	beq.n	1000373c <_ZN7Genshin9loadIconsEv+0x1f70>
10003702:	4a11      	ldr	r2, [pc, #68]	; (10003748 <_ZN7Genshin9loadIconsEv+0x1f7c>)
10003704:	4290      	cmp	r0, r2
10003706:	d817      	bhi.n	10003738 <_ZN7Genshin9loadIconsEv+0x1f6c>
10003708:	0043      	lsls	r3, r0, #1
1000370a:	1818      	adds	r0, r3, r0
1000370c:	0080      	lsls	r0, r0, #2
1000370e:	f009 fa7d 	bl	1000cc0c <_Znwj>
10003712:	23c1      	movs	r3, #193	; 0xc1
10003714:	00db      	lsls	r3, r3, #3
10003716:	446b      	add	r3, sp
10003718:	6018      	str	r0, [r3, #0]
1000371a:	19c7      	adds	r7, r0, r7
1000371c:	23c2      	movs	r3, #194	; 0xc2
1000371e:	00db      	lsls	r3, r3, #3
10003720:	446b      	add	r3, sp
10003722:	601f      	str	r7, [r3, #0]
10003724:	42a6      	cmp	r6, r4
10003726:	d017      	beq.n	10003758 <_ZN7Genshin9loadIconsEv+0x1f8c>
10003728:	0003      	movs	r3, r0
1000372a:	cc07      	ldmia	r4!, {r0, r1, r2}
1000372c:	c307      	stmia	r3!, {r0, r1, r2}
1000372e:	0018      	movs	r0, r3
10003730:	e7f8      	b.n	10003724 <_ZN7Genshin9loadIconsEv+0x1f58>
10003732:	4806      	ldr	r0, [pc, #24]	; (1000374c <_ZN7Genshin9loadIconsEv+0x1f80>)
10003734:	f00f fc32 	bl	10012f9c <_ZSt20__throw_length_errorPKc>
10003738:	f00f fc08 	bl	10012f4c <_ZSt17__throw_bad_allocv>
1000373c:	2000      	movs	r0, #0
1000373e:	e7e8      	b.n	10003712 <_ZN7Genshin9loadIconsEv+0x1f46>
10003740:	000005b4 	.word	0x000005b4
10003744:	7ffffff8 	.word	0x7ffffff8
10003748:	0aaaaaaa 	.word	0x0aaaaaaa
1000374c:	1001c394 	.word	0x1001c394
10003750:	000005fc 	.word	0x000005fc
10003754:	00000604 	.word	0x00000604
10003758:	4cd8      	ldr	r4, [pc, #864]	; (10003abc <_ZN7Genshin9loadIconsEv+0x22f0>)
1000375a:	446c      	add	r4, sp
1000375c:	65a0      	str	r0, [r4, #88]	; 0x58
1000375e:	abff      	add	r3, sp, #1020	; 0x3fc
10003760:	332c      	adds	r3, #44	; 0x2c
10003762:	2600      	movs	r6, #0
10003764:	601e      	str	r6, [r3, #0]
10003766:	605e      	str	r6, [r3, #4]
10003768:	609e      	str	r6, [r3, #8]
1000376a:	60de      	str	r6, [r3, #12]
1000376c:	611e      	str	r6, [r3, #16]
1000376e:	615e      	str	r6, [r3, #20]
10003770:	619e      	str	r6, [r3, #24]
10003772:	61de      	str	r6, [r3, #28]
10003774:	621e      	str	r6, [r3, #32]
10003776:	224a      	movs	r2, #74	; 0x4a
10003778:	625a      	str	r2, [r3, #36]	; 0x24
1000377a:	3211      	adds	r2, #17
1000377c:	629a      	str	r2, [r3, #40]	; 0x28
1000377e:	3a40      	subs	r2, #64	; 0x40
10003780:	62da      	str	r2, [r3, #44]	; 0x2c
10003782:	3218      	adds	r2, #24
10003784:	631a      	str	r2, [r3, #48]	; 0x30
10003786:	3209      	adds	r2, #9
10003788:	635a      	str	r2, [r3, #52]	; 0x34
1000378a:	3a2a      	subs	r2, #42	; 0x2a
1000378c:	639a      	str	r2, [r3, #56]	; 0x38
1000378e:	3205      	adds	r2, #5
10003790:	63da      	str	r2, [r3, #60]	; 0x3c
10003792:	3205      	adds	r2, #5
10003794:	641a      	str	r2, [r3, #64]	; 0x40
10003796:	3a15      	subs	r2, #21
10003798:	645a      	str	r2, [r3, #68]	; 0x44
1000379a:	3244      	adds	r2, #68	; 0x44
1000379c:	649a      	str	r2, [r3, #72]	; 0x48
1000379e:	320f      	adds	r2, #15
100037a0:	64da      	str	r2, [r3, #76]	; 0x4c
100037a2:	3a40      	subs	r2, #64	; 0x40
100037a4:	651a      	str	r2, [r3, #80]	; 0x50
100037a6:	3243      	adds	r2, #67	; 0x43
100037a8:	655a      	str	r2, [r3, #84]	; 0x54
100037aa:	3213      	adds	r2, #19
100037ac:	659a      	str	r2, [r3, #88]	; 0x58
100037ae:	3a50      	subs	r2, #80	; 0x50
100037b0:	65da      	str	r2, [r3, #92]	; 0x5c
100037b2:	661e      	str	r6, [r3, #96]	; 0x60
100037b4:	665e      	str	r6, [r3, #100]	; 0x64
100037b6:	669e      	str	r6, [r3, #104]	; 0x68
100037b8:	66de      	str	r6, [r3, #108]	; 0x6c
100037ba:	671e      	str	r6, [r3, #112]	; 0x70
100037bc:	675e      	str	r6, [r3, #116]	; 0x74
100037be:	679e      	str	r6, [r3, #120]	; 0x78
100037c0:	67de      	str	r6, [r3, #124]	; 0x7c
100037c2:	3260      	adds	r2, #96	; 0x60
100037c4:	509e      	str	r6, [r3, r2]
100037c6:	21ee      	movs	r1, #238	; 0xee
100037c8:	00c9      	lsls	r1, r1, #3
100037ca:	4469      	add	r1, sp
100037cc:	600b      	str	r3, [r1, #0]
100037ce:	230b      	movs	r3, #11
100037d0:	604b      	str	r3, [r1, #4]
100037d2:	27a6      	movs	r7, #166	; 0xa6
100037d4:	00ff      	lsls	r7, r7, #3
100037d6:	446f      	add	r7, sp
100037d8:	2208      	movs	r2, #8
100037da:	0038      	movs	r0, r7
100037dc:	f009 fa10 	bl	1000cc00 <__wrap___aeabi_memcpy>
100037e0:	6626      	str	r6, [r4, #96]	; 0x60
100037e2:	6666      	str	r6, [r4, #100]	; 0x64
100037e4:	66a6      	str	r6, [r4, #104]	; 0x68
100037e6:	683c      	ldr	r4, [r7, #0]
100037e8:	687b      	ldr	r3, [r7, #4]
100037ea:	005f      	lsls	r7, r3, #1
100037ec:	18ff      	adds	r7, r7, r3
100037ee:	00bf      	lsls	r7, r7, #2
100037f0:	19e6      	adds	r6, r4, r7
100037f2:	10ba      	asrs	r2, r7, #2
100037f4:	18bb      	adds	r3, r7, r2
100037f6:	0118      	lsls	r0, r3, #4
100037f8:	181b      	adds	r3, r3, r0
100037fa:	0218      	lsls	r0, r3, #8
100037fc:	181b      	adds	r3, r3, r0
100037fe:	0418      	lsls	r0, r3, #16
10003800:	1818      	adds	r0, r3, r0
10003802:	0040      	lsls	r0, r0, #1
10003804:	1880      	adds	r0, r0, r2
10003806:	4aae      	ldr	r2, [pc, #696]	; (10003ac0 <_ZN7Genshin9loadIconsEv+0x22f4>)
10003808:	4297      	cmp	r7, r2
1000380a:	d817      	bhi.n	1000383c <_ZN7Genshin9loadIconsEv+0x2070>
1000380c:	2800      	cmp	r0, #0
1000380e:	d01a      	beq.n	10003846 <_ZN7Genshin9loadIconsEv+0x207a>
10003810:	4aac      	ldr	r2, [pc, #688]	; (10003ac4 <_ZN7Genshin9loadIconsEv+0x22f8>)
10003812:	4290      	cmp	r0, r2
10003814:	d815      	bhi.n	10003842 <_ZN7Genshin9loadIconsEv+0x2076>
10003816:	0043      	lsls	r3, r0, #1
10003818:	1818      	adds	r0, r3, r0
1000381a:	0080      	lsls	r0, r0, #2
1000381c:	f009 f9f6 	bl	1000cc0c <_Znwj>
10003820:	4ba9      	ldr	r3, [pc, #676]	; (10003ac8 <_ZN7Genshin9loadIconsEv+0x22fc>)
10003822:	446b      	add	r3, sp
10003824:	6018      	str	r0, [r3, #0]
10003826:	19c7      	adds	r7, r0, r7
10003828:	4ba8      	ldr	r3, [pc, #672]	; (10003acc <_ZN7Genshin9loadIconsEv+0x2300>)
1000382a:	446b      	add	r3, sp
1000382c:	601f      	str	r7, [r3, #0]
1000382e:	42a6      	cmp	r6, r4
10003830:	d00b      	beq.n	1000384a <_ZN7Genshin9loadIconsEv+0x207e>
10003832:	0003      	movs	r3, r0
10003834:	cc07      	ldmia	r4!, {r0, r1, r2}
10003836:	c307      	stmia	r3!, {r0, r1, r2}
10003838:	0018      	movs	r0, r3
1000383a:	e7f8      	b.n	1000382e <_ZN7Genshin9loadIconsEv+0x2062>
1000383c:	48a4      	ldr	r0, [pc, #656]	; (10003ad0 <_ZN7Genshin9loadIconsEv+0x2304>)
1000383e:	f00f fbad 	bl	10012f9c <_ZSt20__throw_length_errorPKc>
10003842:	f00f fb83 	bl	10012f4c <_ZSt17__throw_bad_allocv>
10003846:	2000      	movs	r0, #0
10003848:	e7ea      	b.n	10003820 <_ZN7Genshin9loadIconsEv+0x2054>
1000384a:	4c9c      	ldr	r4, [pc, #624]	; (10003abc <_ZN7Genshin9loadIconsEv+0x22f0>)
1000384c:	446c      	add	r4, sp
1000384e:	6660      	str	r0, [r4, #100]	; 0x64
10003850:	abff      	add	r3, sp, #1020	; 0x3fc
10003852:	33b0      	adds	r3, #176	; 0xb0
10003854:	2600      	movs	r6, #0
10003856:	601e      	str	r6, [r3, #0]
10003858:	605e      	str	r6, [r3, #4]
1000385a:	609e      	str	r6, [r3, #8]
1000385c:	60de      	str	r6, [r3, #12]
1000385e:	611e      	str	r6, [r3, #16]
10003860:	615e      	str	r6, [r3, #20]
10003862:	2225      	movs	r2, #37	; 0x25
10003864:	619a      	str	r2, [r3, #24]
10003866:	212d      	movs	r1, #45	; 0x2d
10003868:	61d9      	str	r1, [r3, #28]
1000386a:	3921      	subs	r1, #33	; 0x21
1000386c:	6219      	str	r1, [r3, #32]
1000386e:	315c      	adds	r1, #92	; 0x5c
10003870:	6259      	str	r1, [r3, #36]	; 0x24
10003872:	3117      	adds	r1, #23
10003874:	6299      	str	r1, [r3, #40]	; 0x28
10003876:	62da      	str	r2, [r3, #44]	; 0x2c
10003878:	3a06      	subs	r2, #6
1000387a:	631a      	str	r2, [r3, #48]	; 0x30
1000387c:	3208      	adds	r2, #8
1000387e:	635a      	str	r2, [r3, #52]	; 0x34
10003880:	3a1c      	subs	r2, #28
10003882:	639a      	str	r2, [r3, #56]	; 0x38
10003884:	3936      	subs	r1, #54	; 0x36
10003886:	63d9      	str	r1, [r3, #60]	; 0x3c
10003888:	3110      	adds	r1, #16
1000388a:	6419      	str	r1, [r3, #64]	; 0x40
1000388c:	393f      	subs	r1, #63	; 0x3f
1000388e:	6459      	str	r1, [r3, #68]	; 0x44
10003890:	3123      	adds	r1, #35	; 0x23
10003892:	6499      	str	r1, [r3, #72]	; 0x48
10003894:	310d      	adds	r1, #13
10003896:	64d9      	str	r1, [r3, #76]	; 0x4c
10003898:	3935      	subs	r1, #53	; 0x35
1000389a:	6519      	str	r1, [r3, #80]	; 0x50
1000389c:	655e      	str	r6, [r3, #84]	; 0x54
1000389e:	659e      	str	r6, [r3, #88]	; 0x58
100038a0:	65de      	str	r6, [r3, #92]	; 0x5c
100038a2:	661e      	str	r6, [r3, #96]	; 0x60
100038a4:	665e      	str	r6, [r3, #100]	; 0x64
100038a6:	669e      	str	r6, [r3, #104]	; 0x68
100038a8:	66de      	str	r6, [r3, #108]	; 0x6c
100038aa:	671e      	str	r6, [r3, #112]	; 0x70
100038ac:	675e      	str	r6, [r3, #116]	; 0x74
100038ae:	679e      	str	r6, [r3, #120]	; 0x78
100038b0:	67de      	str	r6, [r3, #124]	; 0x7c
100038b2:	316b      	adds	r1, #107	; 0x6b
100038b4:	505e      	str	r6, [r3, r1]
100038b6:	21ef      	movs	r1, #239	; 0xef
100038b8:	00c9      	lsls	r1, r1, #3
100038ba:	4469      	add	r1, sp
100038bc:	600b      	str	r3, [r1, #0]
100038be:	604a      	str	r2, [r1, #4]
100038c0:	27a6      	movs	r7, #166	; 0xa6
100038c2:	00ff      	lsls	r7, r7, #3
100038c4:	446f      	add	r7, sp
100038c6:	3a03      	subs	r2, #3
100038c8:	0038      	movs	r0, r7
100038ca:	f009 f999 	bl	1000cc00 <__wrap___aeabi_memcpy>
100038ce:	66e6      	str	r6, [r4, #108]	; 0x6c
100038d0:	6726      	str	r6, [r4, #112]	; 0x70
100038d2:	6766      	str	r6, [r4, #116]	; 0x74
100038d4:	683c      	ldr	r4, [r7, #0]
100038d6:	687b      	ldr	r3, [r7, #4]
100038d8:	005f      	lsls	r7, r3, #1
100038da:	18ff      	adds	r7, r7, r3
100038dc:	00bf      	lsls	r7, r7, #2
100038de:	19e6      	adds	r6, r4, r7
100038e0:	10ba      	asrs	r2, r7, #2
100038e2:	18bb      	adds	r3, r7, r2
100038e4:	0118      	lsls	r0, r3, #4
100038e6:	181b      	adds	r3, r3, r0
100038e8:	0218      	lsls	r0, r3, #8
100038ea:	181b      	adds	r3, r3, r0
100038ec:	0418      	lsls	r0, r3, #16
100038ee:	1818      	adds	r0, r3, r0
100038f0:	0040      	lsls	r0, r0, #1
100038f2:	1880      	adds	r0, r0, r2
100038f4:	4a72      	ldr	r2, [pc, #456]	; (10003ac0 <_ZN7Genshin9loadIconsEv+0x22f4>)
100038f6:	4297      	cmp	r7, r2
100038f8:	d819      	bhi.n	1000392e <_ZN7Genshin9loadIconsEv+0x2162>
100038fa:	2800      	cmp	r0, #0
100038fc:	d01c      	beq.n	10003938 <_ZN7Genshin9loadIconsEv+0x216c>
100038fe:	4a71      	ldr	r2, [pc, #452]	; (10003ac4 <_ZN7Genshin9loadIconsEv+0x22f8>)
10003900:	4290      	cmp	r0, r2
10003902:	d817      	bhi.n	10003934 <_ZN7Genshin9loadIconsEv+0x2168>
10003904:	0043      	lsls	r3, r0, #1
10003906:	1818      	adds	r0, r3, r0
10003908:	0080      	lsls	r0, r0, #2
1000390a:	f009 f97f 	bl	1000cc0c <_Znwj>
1000390e:	23c4      	movs	r3, #196	; 0xc4
10003910:	00db      	lsls	r3, r3, #3
10003912:	446b      	add	r3, sp
10003914:	6018      	str	r0, [r3, #0]
10003916:	19c7      	adds	r7, r0, r7
10003918:	23c5      	movs	r3, #197	; 0xc5
1000391a:	00db      	lsls	r3, r3, #3
1000391c:	446b      	add	r3, sp
1000391e:	601f      	str	r7, [r3, #0]
10003920:	42a6      	cmp	r6, r4
10003922:	d00b      	beq.n	1000393c <_ZN7Genshin9loadIconsEv+0x2170>
10003924:	0003      	movs	r3, r0
10003926:	cc07      	ldmia	r4!, {r0, r1, r2}
10003928:	c307      	stmia	r3!, {r0, r1, r2}
1000392a:	0018      	movs	r0, r3
1000392c:	e7f8      	b.n	10003920 <_ZN7Genshin9loadIconsEv+0x2154>
1000392e:	4868      	ldr	r0, [pc, #416]	; (10003ad0 <_ZN7Genshin9loadIconsEv+0x2304>)
10003930:	f00f fb34 	bl	10012f9c <_ZSt20__throw_length_errorPKc>
10003934:	f00f fb0a 	bl	10012f4c <_ZSt17__throw_bad_allocv>
10003938:	2000      	movs	r0, #0
1000393a:	e7e8      	b.n	1000390e <_ZN7Genshin9loadIconsEv+0x2142>
1000393c:	4c5f      	ldr	r4, [pc, #380]	; (10003abc <_ZN7Genshin9loadIconsEv+0x22f0>)
1000393e:	446c      	add	r4, sp
10003940:	6720      	str	r0, [r4, #112]	; 0x70
10003942:	23a6      	movs	r3, #166	; 0xa6
10003944:	00db      	lsls	r3, r3, #3
10003946:	446b      	add	r3, sp
10003948:	2600      	movs	r6, #0
1000394a:	601e      	str	r6, [r3, #0]
1000394c:	605e      	str	r6, [r3, #4]
1000394e:	609e      	str	r6, [r3, #8]
10003950:	60de      	str	r6, [r3, #12]
10003952:	611e      	str	r6, [r3, #16]
10003954:	615e      	str	r6, [r3, #20]
10003956:	2204      	movs	r2, #4
10003958:	619a      	str	r2, [r3, #24]
1000395a:	61da      	str	r2, [r3, #28]
1000395c:	3a02      	subs	r2, #2
1000395e:	621a      	str	r2, [r3, #32]
10003960:	2101      	movs	r1, #1
10003962:	6259      	str	r1, [r3, #36]	; 0x24
10003964:	6299      	str	r1, [r3, #40]	; 0x28
10003966:	62de      	str	r6, [r3, #44]	; 0x2c
10003968:	631e      	str	r6, [r3, #48]	; 0x30
1000396a:	635e      	str	r6, [r3, #52]	; 0x34
1000396c:	639e      	str	r6, [r3, #56]	; 0x38
1000396e:	3105      	adds	r1, #5
10003970:	63d9      	str	r1, [r3, #60]	; 0x3c
10003972:	3102      	adds	r1, #2
10003974:	6419      	str	r1, [r3, #64]	; 0x40
10003976:	645a      	str	r2, [r3, #68]	; 0x44
10003978:	3215      	adds	r2, #21
1000397a:	649a      	str	r2, [r3, #72]	; 0x48
1000397c:	3204      	adds	r2, #4
1000397e:	64da      	str	r2, [r3, #76]	; 0x4c
10003980:	3a14      	subs	r2, #20
10003982:	651a      	str	r2, [r3, #80]	; 0x50
10003984:	655e      	str	r6, [r3, #84]	; 0x54
10003986:	659e      	str	r6, [r3, #88]	; 0x58
10003988:	65de      	str	r6, [r3, #92]	; 0x5c
1000398a:	661e      	str	r6, [r3, #96]	; 0x60
1000398c:	665e      	str	r6, [r3, #100]	; 0x64
1000398e:	669e      	str	r6, [r3, #104]	; 0x68
10003990:	66de      	str	r6, [r3, #108]	; 0x6c
10003992:	671e      	str	r6, [r3, #112]	; 0x70
10003994:	675e      	str	r6, [r3, #116]	; 0x74
10003996:	679e      	str	r6, [r3, #120]	; 0x78
10003998:	67de      	str	r6, [r3, #124]	; 0x7c
1000399a:	2780      	movs	r7, #128	; 0x80
1000399c:	51de      	str	r6, [r3, r7]
1000399e:	21f0      	movs	r1, #240	; 0xf0
100039a0:	00c9      	lsls	r1, r1, #3
100039a2:	4469      	add	r1, sp
100039a4:	23a6      	movs	r3, #166	; 0xa6
100039a6:	00db      	lsls	r3, r3, #3
100039a8:	446b      	add	r3, sp
100039aa:	600b      	str	r3, [r1, #0]
100039ac:	230b      	movs	r3, #11
100039ae:	604b      	str	r3, [r1, #4]
100039b0:	2208      	movs	r2, #8
100039b2:	4668      	mov	r0, sp
100039b4:	f009 f924 	bl	1000cc00 <__wrap___aeabi_memcpy>
100039b8:	67a6      	str	r6, [r4, #120]	; 0x78
100039ba:	67e6      	str	r6, [r4, #124]	; 0x7c
100039bc:	51e6      	str	r6, [r4, r7]
100039be:	9c00      	ldr	r4, [sp, #0]
100039c0:	9b01      	ldr	r3, [sp, #4]
100039c2:	005f      	lsls	r7, r3, #1
100039c4:	18ff      	adds	r7, r7, r3
100039c6:	00bf      	lsls	r7, r7, #2
100039c8:	19e6      	adds	r6, r4, r7
100039ca:	10ba      	asrs	r2, r7, #2
100039cc:	18bb      	adds	r3, r7, r2
100039ce:	0118      	lsls	r0, r3, #4
100039d0:	181b      	adds	r3, r3, r0
100039d2:	0218      	lsls	r0, r3, #8
100039d4:	181b      	adds	r3, r3, r0
100039d6:	0418      	lsls	r0, r3, #16
100039d8:	1818      	adds	r0, r3, r0
100039da:	0040      	lsls	r0, r0, #1
100039dc:	1880      	adds	r0, r0, r2
100039de:	4a38      	ldr	r2, [pc, #224]	; (10003ac0 <_ZN7Genshin9loadIconsEv+0x22f4>)
100039e0:	4297      	cmp	r7, r2
100039e2:	d819      	bhi.n	10003a18 <_ZN7Genshin9loadIconsEv+0x224c>
100039e4:	2800      	cmp	r0, #0
100039e6:	d01c      	beq.n	10003a22 <_ZN7Genshin9loadIconsEv+0x2256>
100039e8:	4a36      	ldr	r2, [pc, #216]	; (10003ac4 <_ZN7Genshin9loadIconsEv+0x22f8>)
100039ea:	4290      	cmp	r0, r2
100039ec:	d817      	bhi.n	10003a1e <_ZN7Genshin9loadIconsEv+0x2252>
100039ee:	0043      	lsls	r3, r0, #1
100039f0:	1818      	adds	r0, r3, r0
100039f2:	0080      	lsls	r0, r0, #2
100039f4:	f009 f90a 	bl	1000cc0c <_Znwj>
100039f8:	4b36      	ldr	r3, [pc, #216]	; (10003ad4 <_ZN7Genshin9loadIconsEv+0x2308>)
100039fa:	446b      	add	r3, sp
100039fc:	6018      	str	r0, [r3, #0]
100039fe:	19c7      	adds	r7, r0, r7
10003a00:	2380      	movs	r3, #128	; 0x80
10003a02:	466a      	mov	r2, sp
10003a04:	492d      	ldr	r1, [pc, #180]	; (10003abc <_ZN7Genshin9loadIconsEv+0x22f0>)
10003a06:	1852      	adds	r2, r2, r1
10003a08:	50d7      	str	r7, [r2, r3]
10003a0a:	42a6      	cmp	r6, r4
10003a0c:	d00b      	beq.n	10003a26 <_ZN7Genshin9loadIconsEv+0x225a>
10003a0e:	0003      	movs	r3, r0
10003a10:	cc07      	ldmia	r4!, {r0, r1, r2}
10003a12:	c307      	stmia	r3!, {r0, r1, r2}
10003a14:	0018      	movs	r0, r3
10003a16:	e7f8      	b.n	10003a0a <_ZN7Genshin9loadIconsEv+0x223e>
10003a18:	482d      	ldr	r0, [pc, #180]	; (10003ad0 <_ZN7Genshin9loadIconsEv+0x2304>)
10003a1a:	f00f fabf 	bl	10012f9c <_ZSt20__throw_length_errorPKc>
10003a1e:	f00f fa95 	bl	10012f4c <_ZSt17__throw_bad_allocv>
10003a22:	2000      	movs	r0, #0
10003a24:	e7e8      	b.n	100039f8 <_ZN7Genshin9loadIconsEv+0x222c>
10003a26:	23c6      	movs	r3, #198	; 0xc6
10003a28:	00db      	lsls	r3, r3, #3
10003a2a:	446b      	add	r3, sp
10003a2c:	6018      	str	r0, [r3, #0]
10003a2e:	24e5      	movs	r4, #229	; 0xe5
10003a30:	00e4      	lsls	r4, r4, #3
10003a32:	446c      	add	r4, sp
10003a34:	4f21      	ldr	r7, [pc, #132]	; (10003abc <_ZN7Genshin9loadIconsEv+0x22f0>)
10003a36:	446f      	add	r7, sp
10003a38:	6027      	str	r7, [r4, #0]
10003a3a:	230b      	movs	r3, #11
10003a3c:	6063      	str	r3, [r4, #4]
10003a3e:	26f2      	movs	r6, #242	; 0xf2
10003a40:	00f6      	lsls	r6, r6, #3
10003a42:	446e      	add	r6, sp
10003a44:	23f1      	movs	r3, #241	; 0xf1
10003a46:	00db      	lsls	r3, r3, #3
10003a48:	446b      	add	r3, sp
10003a4a:	601e      	str	r6, [r3, #0]
10003a4c:	4a22      	ldr	r2, [pc, #136]	; (10003ad8 <_ZN7Genshin9loadIconsEv+0x230c>)
10003a4e:	1f91      	subs	r1, r2, #6
10003a50:	2300      	movs	r3, #0
10003a52:	20f1      	movs	r0, #241	; 0xf1
10003a54:	00c0      	lsls	r0, r0, #3
10003a56:	4468      	add	r0, sp
10003a58:	f7fc fc58 	bl	1000030c <_ZNSt7__cxx1112basic_stringIcSt11char_traitsIcESaIcEE12_M_constructIPKcEEvT_S8_St20forward_iterator_tag>
10003a5c:	23f1      	movs	r3, #241	; 0xf1
10003a5e:	00db      	lsls	r3, r3, #3
10003a60:	446b      	add	r3, sp
10003a62:	0019      	movs	r1, r3
10003a64:	0028      	movs	r0, r5
10003a66:	f7fd fa77 	bl	10000f58 <_ZNSt8__detail9_Map_baseINSt7__cxx1112basic_stringIcSt11char_traitsIcESaIcEEESt4pairIKS6_St6vectorIS9_I5ColorSaISA_EESaISC_EEESaISF_ENS_10_Select1stESt8equal_toIS6_ESt4hashIS6_ENS_18_Mod_range_hashingENS_20_Default_ranged_hashENS_20_Prime_rehash_policyENS_17_Hashtable_traitsILb1ELb0ELb1EEELb1EEixEOS6_>
10003a6a:	4680      	mov	r8, r0
10003a6c:	2208      	movs	r2, #8
10003a6e:	0021      	movs	r1, r4
10003a70:	4668      	mov	r0, sp
10003a72:	f009 f8c5 	bl	1000cc00 <__wrap___aeabi_memcpy>
10003a76:	2300      	movs	r3, #0
10003a78:	22c7      	movs	r2, #199	; 0xc7
10003a7a:	00d2      	lsls	r2, r2, #3
10003a7c:	446a      	add	r2, sp
10003a7e:	0039      	movs	r1, r7
10003a80:	4640      	mov	r0, r8
10003a82:	f7fd fd71 	bl	10001568 <_ZNSt6vectorIS_I5ColorSaIS0_EESaIS2_EE13_M_assign_auxIPKS2_EEvT_S8_St20forward_iterator_tag>
10003a86:	23f1      	movs	r3, #241	; 0xf1
10003a88:	00db      	lsls	r3, r3, #3
10003a8a:	446b      	add	r3, sp
10003a8c:	6818      	ldr	r0, [r3, #0]
10003a8e:	42b0      	cmp	r0, r6
10003a90:	d003      	beq.n	10003a9a <_ZN7Genshin9loadIconsEv+0x22ce>
10003a92:	6833      	ldr	r3, [r6, #0]
10003a94:	1c59      	adds	r1, r3, #1
10003a96:	f009 f8c5 	bl	1000cc24 <_ZdlPvj>
10003a9a:	24c7      	movs	r4, #199	; 0xc7
10003a9c:	00e4      	lsls	r4, r4, #3
10003a9e:	446c      	add	r4, sp
10003aa0:	4b06      	ldr	r3, [pc, #24]	; (10003abc <_ZN7Genshin9loadIconsEv+0x22f0>)
10003aa2:	446b      	add	r3, sp
10003aa4:	429c      	cmp	r4, r3
10003aa6:	d019      	beq.n	10003adc <_ZN7Genshin9loadIconsEv+0x2310>
10003aa8:	3c0c      	subs	r4, #12
10003aaa:	6820      	ldr	r0, [r4, #0]
10003aac:	68a3      	ldr	r3, [r4, #8]
10003aae:	1a19      	subs	r1, r3, r0
10003ab0:	2800      	cmp	r0, #0
10003ab2:	d0f5      	beq.n	10003aa0 <_ZN7Genshin9loadIconsEv+0x22d4>
10003ab4:	f009 f8b6 	bl	1000cc24 <_ZdlPvj>
10003ab8:	e7f2      	b.n	10003aa0 <_ZN7Genshin9loadIconsEv+0x22d4>
10003aba:	46c0      	nop			; (mov r8, r8)
10003abc:	000005b4 	.word	0x000005b4
10003ac0:	7ffffff8 	.word	0x7ffffff8
10003ac4:	0aaaaaaa 	.word	0x0aaaaaaa
10003ac8:	00000614 	.word	0x00000614
10003acc:	0000061c 	.word	0x0000061c
10003ad0:	1001c394 	.word	0x1001c394
10003ad4:	0000062c 	.word	0x0000062c
10003ad8:	1001c372 	.word	0x1001c372
10003adc:	2400      	movs	r4, #0
10003ade:	9402      	str	r4, [sp, #8]
10003ae0:	9403      	str	r4, [sp, #12]
10003ae2:	9404      	str	r4, [sp, #16]
10003ae4:	9405      	str	r4, [sp, #20]
10003ae6:	9406      	str	r4, [sp, #24]
10003ae8:	9407      	str	r4, [sp, #28]
10003aea:	9408      	str	r4, [sp, #32]
10003aec:	9409      	str	r4, [sp, #36]	; 0x24
10003aee:	940a      	str	r4, [sp, #40]	; 0x28
10003af0:	940b      	str	r4, [sp, #44]	; 0x2c
10003af2:	940c      	str	r4, [sp, #48]	; 0x30
10003af4:	940d      	str	r4, [sp, #52]	; 0x34
10003af6:	940e      	str	r4, [sp, #56]	; 0x38
10003af8:	940f      	str	r4, [sp, #60]	; 0x3c
10003afa:	9410      	str	r4, [sp, #64]	; 0x40
10003afc:	9411      	str	r4, [sp, #68]	; 0x44
10003afe:	9412      	str	r4, [sp, #72]	; 0x48
10003b00:	9413      	str	r4, [sp, #76]	; 0x4c
10003b02:	9414      	str	r4, [sp, #80]	; 0x50
10003b04:	9415      	str	r4, [sp, #84]	; 0x54
10003b06:	9416      	str	r4, [sp, #88]	; 0x58
10003b08:	9417      	str	r4, [sp, #92]	; 0x5c
10003b0a:	9418      	str	r4, [sp, #96]	; 0x60
10003b0c:	9419      	str	r4, [sp, #100]	; 0x64
10003b0e:	941a      	str	r4, [sp, #104]	; 0x68
10003b10:	941b      	str	r4, [sp, #108]	; 0x6c
10003b12:	941c      	str	r4, [sp, #112]	; 0x70
10003b14:	941d      	str	r4, [sp, #116]	; 0x74
10003b16:	941e      	str	r4, [sp, #120]	; 0x78
10003b18:	941f      	str	r4, [sp, #124]	; 0x7c
10003b1a:	9420      	str	r4, [sp, #128]	; 0x80
10003b1c:	9421      	str	r4, [sp, #132]	; 0x84
10003b1e:	2380      	movs	r3, #128	; 0x80
10003b20:	466a      	mov	r2, sp
10003b22:	2108      	movs	r1, #8
10003b24:	1852      	adds	r2, r2, r1
10003b26:	50d4      	str	r4, [r2, r3]
10003b28:	21f5      	movs	r1, #245	; 0xf5
10003b2a:	00c9      	lsls	r1, r1, #3
10003b2c:	4469      	add	r1, sp
10003b2e:	600a      	str	r2, [r1, #0]
10003b30:	230b      	movs	r3, #11
10003b32:	604b      	str	r3, [r1, #4]
10003b34:	26a6      	movs	r6, #166	; 0xa6
10003b36:	00f6      	lsls	r6, r6, #3
10003b38:	446e      	add	r6, sp
10003b3a:	2208      	movs	r2, #8
10003b3c:	0030      	movs	r0, r6
10003b3e:	f009 f85f 	bl	1000cc00 <__wrap___aeabi_memcpy>
10003b42:	4bd6      	ldr	r3, [pc, #856]	; (10003e9c <_ZN7Genshin9loadIconsEv+0x26d0>)
10003b44:	446b      	add	r3, sp
10003b46:	601c      	str	r4, [r3, #0]
10003b48:	23b7      	movs	r3, #183	; 0xb7
10003b4a:	00db      	lsls	r3, r3, #3
10003b4c:	446b      	add	r3, sp
10003b4e:	601c      	str	r4, [r3, #0]
10003b50:	4bd3      	ldr	r3, [pc, #844]	; (10003ea0 <_ZN7Genshin9loadIconsEv+0x26d4>)
10003b52:	446b      	add	r3, sp
10003b54:	601c      	str	r4, [r3, #0]
10003b56:	6834      	ldr	r4, [r6, #0]
10003b58:	6873      	ldr	r3, [r6, #4]
10003b5a:	005f      	lsls	r7, r3, #1
10003b5c:	18ff      	adds	r7, r7, r3
10003b5e:	00bf      	lsls	r7, r7, #2
10003b60:	19e6      	adds	r6, r4, r7
10003b62:	10ba      	asrs	r2, r7, #2
10003b64:	18bb      	adds	r3, r7, r2
10003b66:	0118      	lsls	r0, r3, #4
10003b68:	181b      	adds	r3, r3, r0
10003b6a:	0218      	lsls	r0, r3, #8
10003b6c:	181b      	adds	r3, r3, r0
10003b6e:	0418      	lsls	r0, r3, #16
10003b70:	1818      	adds	r0, r3, r0
10003b72:	0040      	lsls	r0, r0, #1
10003b74:	1880      	adds	r0, r0, r2
10003b76:	4acb      	ldr	r2, [pc, #812]	; (10003ea4 <_ZN7Genshin9loadIconsEv+0x26d8>)
10003b78:	4297      	cmp	r7, r2
10003b7a:	d817      	bhi.n	10003bac <_ZN7Genshin9loadIconsEv+0x23e0>
10003b7c:	2800      	cmp	r0, #0
10003b7e:	d01a      	beq.n	10003bb6 <_ZN7Genshin9loadIconsEv+0x23ea>
10003b80:	4ac9      	ldr	r2, [pc, #804]	; (10003ea8 <_ZN7Genshin9loadIconsEv+0x26dc>)
10003b82:	4290      	cmp	r0, r2
10003b84:	d815      	bhi.n	10003bb2 <_ZN7Genshin9loadIconsEv+0x23e6>
10003b86:	0043      	lsls	r3, r0, #1
10003b88:	1818      	adds	r0, r3, r0
10003b8a:	0080      	lsls	r0, r0, #2
10003b8c:	f009 f83e 	bl	1000cc0c <_Znwj>
10003b90:	4bc2      	ldr	r3, [pc, #776]	; (10003e9c <_ZN7Genshin9loadIconsEv+0x26d0>)
10003b92:	446b      	add	r3, sp
10003b94:	6018      	str	r0, [r3, #0]
10003b96:	19c7      	adds	r7, r0, r7
10003b98:	4bc1      	ldr	r3, [pc, #772]	; (10003ea0 <_ZN7Genshin9loadIconsEv+0x26d4>)
10003b9a:	446b      	add	r3, sp
10003b9c:	601f      	str	r7, [r3, #0]
10003b9e:	42a6      	cmp	r6, r4
10003ba0:	d00b      	beq.n	10003bba <_ZN7Genshin9loadIconsEv+0x23ee>
10003ba2:	0003      	movs	r3, r0
10003ba4:	cc07      	ldmia	r4!, {r0, r1, r2}
10003ba6:	c307      	stmia	r3!, {r0, r1, r2}
10003ba8:	0018      	movs	r0, r3
10003baa:	e7f8      	b.n	10003b9e <_ZN7Genshin9loadIconsEv+0x23d2>
10003bac:	48bf      	ldr	r0, [pc, #764]	; (10003eac <_ZN7Genshin9loadIconsEv+0x26e0>)
10003bae:	f00f f9f5 	bl	10012f9c <_ZSt20__throw_length_errorPKc>
10003bb2:	f00f f9cb 	bl	10012f4c <_ZSt17__throw_bad_allocv>
10003bb6:	2000      	movs	r0, #0
10003bb8:	e7ea      	b.n	10003b90 <_ZN7Genshin9loadIconsEv+0x23c4>
10003bba:	4eb8      	ldr	r6, [pc, #736]	; (10003e9c <_ZN7Genshin9loadIconsEv+0x26d0>)
10003bbc:	446e      	add	r6, sp
10003bbe:	6070      	str	r0, [r6, #4]
10003bc0:	2400      	movs	r4, #0
10003bc2:	9423      	str	r4, [sp, #140]	; 0x8c
10003bc4:	9424      	str	r4, [sp, #144]	; 0x90
10003bc6:	9425      	str	r4, [sp, #148]	; 0x94
10003bc8:	9426      	str	r4, [sp, #152]	; 0x98
10003bca:	9427      	str	r4, [sp, #156]	; 0x9c
10003bcc:	9428      	str	r4, [sp, #160]	; 0xa0
10003bce:	2302      	movs	r3, #2
10003bd0:	9329      	str	r3, [sp, #164]	; 0xa4
10003bd2:	932a      	str	r3, [sp, #168]	; 0xa8
10003bd4:	932b      	str	r3, [sp, #172]	; 0xac
10003bd6:	3344      	adds	r3, #68	; 0x44
10003bd8:	932c      	str	r3, [sp, #176]	; 0xb0
10003bda:	2239      	movs	r2, #57	; 0x39
10003bdc:	922d      	str	r2, [sp, #180]	; 0xb4
10003bde:	3214      	adds	r2, #20
10003be0:	922e      	str	r2, [sp, #184]	; 0xb8
10003be2:	323a      	adds	r2, #58	; 0x3a
10003be4:	922f      	str	r2, [sp, #188]	; 0xbc
10003be6:	216d      	movs	r1, #109	; 0x6d
10003be8:	9130      	str	r1, [sp, #192]	; 0xc0
10003bea:	3127      	adds	r1, #39	; 0x27
10003bec:	9131      	str	r1, [sp, #196]	; 0xc4
10003bee:	9232      	str	r2, [sp, #200]	; 0xc8
10003bf0:	3a19      	subs	r2, #25
10003bf2:	9233      	str	r2, [sp, #204]	; 0xcc
10003bf4:	3227      	adds	r2, #39	; 0x27
10003bf6:	9234      	str	r2, [sp, #208]	; 0xd0
10003bf8:	3a3e      	subs	r2, #62	; 0x3e
10003bfa:	9235      	str	r2, [sp, #212]	; 0xd4
10003bfc:	9336      	str	r3, [sp, #216]	; 0xd8
10003bfe:	331a      	adds	r3, #26
10003c00:	9337      	str	r3, [sp, #220]	; 0xdc
10003c02:	3b48      	subs	r3, #72	; 0x48
10003c04:	9338      	str	r3, [sp, #224]	; 0xe0
10003c06:	3b06      	subs	r3, #6
10003c08:	9339      	str	r3, [sp, #228]	; 0xe4
10003c0a:	3307      	adds	r3, #7
10003c0c:	933a      	str	r3, [sp, #232]	; 0xe8
10003c0e:	943b      	str	r4, [sp, #236]	; 0xec
10003c10:	943c      	str	r4, [sp, #240]	; 0xf0
10003c12:	943d      	str	r4, [sp, #244]	; 0xf4
10003c14:	943e      	str	r4, [sp, #248]	; 0xf8
10003c16:	943f      	str	r4, [sp, #252]	; 0xfc
10003c18:	9440      	str	r4, [sp, #256]	; 0x100
10003c1a:	9441      	str	r4, [sp, #260]	; 0x104
10003c1c:	9442      	str	r4, [sp, #264]	; 0x108
10003c1e:	3367      	adds	r3, #103	; 0x67
10003c20:	466a      	mov	r2, sp
10003c22:	3908      	subs	r1, #8
10003c24:	1852      	adds	r2, r2, r1
10003c26:	50d4      	str	r4, [r2, r3]
10003c28:	21f6      	movs	r1, #246	; 0xf6
10003c2a:	00c9      	lsls	r1, r1, #3
10003c2c:	4469      	add	r1, sp
10003c2e:	600a      	str	r2, [r1, #0]
10003c30:	230b      	movs	r3, #11
10003c32:	604b      	str	r3, [r1, #4]
10003c34:	27a6      	movs	r7, #166	; 0xa6
10003c36:	00ff      	lsls	r7, r7, #3
10003c38:	446f      	add	r7, sp
10003c3a:	2208      	movs	r2, #8
10003c3c:	0038      	movs	r0, r7
10003c3e:	f008 ffdf 	bl	1000cc00 <__wrap___aeabi_memcpy>
10003c42:	60f4      	str	r4, [r6, #12]
10003c44:	6134      	str	r4, [r6, #16]
10003c46:	6174      	str	r4, [r6, #20]
10003c48:	683c      	ldr	r4, [r7, #0]
10003c4a:	687b      	ldr	r3, [r7, #4]
10003c4c:	005f      	lsls	r7, r3, #1
10003c4e:	18ff      	adds	r7, r7, r3
10003c50:	00bf      	lsls	r7, r7, #2
10003c52:	19e6      	adds	r6, r4, r7
10003c54:	10ba      	asrs	r2, r7, #2
10003c56:	18bb      	adds	r3, r7, r2
10003c58:	0118      	lsls	r0, r3, #4
10003c5a:	181b      	adds	r3, r3, r0
10003c5c:	0218      	lsls	r0, r3, #8
10003c5e:	181b      	adds	r3, r3, r0
10003c60:	0418      	lsls	r0, r3, #16
10003c62:	1818      	adds	r0, r3, r0
10003c64:	0040      	lsls	r0, r0, #1
10003c66:	1880      	adds	r0, r0, r2
10003c68:	4a8e      	ldr	r2, [pc, #568]	; (10003ea4 <_ZN7Genshin9loadIconsEv+0x26d8>)
10003c6a:	4297      	cmp	r7, r2
10003c6c:	d819      	bhi.n	10003ca2 <_ZN7Genshin9loadIconsEv+0x24d6>
10003c6e:	2800      	cmp	r0, #0
10003c70:	d01c      	beq.n	10003cac <_ZN7Genshin9loadIconsEv+0x24e0>
10003c72:	4a8d      	ldr	r2, [pc, #564]	; (10003ea8 <_ZN7Genshin9loadIconsEv+0x26dc>)
10003c74:	4290      	cmp	r0, r2
10003c76:	d817      	bhi.n	10003ca8 <_ZN7Genshin9loadIconsEv+0x24dc>
10003c78:	0043      	lsls	r3, r0, #1
10003c7a:	1818      	adds	r0, r3, r0
10003c7c:	0080      	lsls	r0, r0, #2
10003c7e:	f008 ffc5 	bl	1000cc0c <_Znwj>
10003c82:	23b8      	movs	r3, #184	; 0xb8
10003c84:	00db      	lsls	r3, r3, #3
10003c86:	446b      	add	r3, sp
10003c88:	6018      	str	r0, [r3, #0]
10003c8a:	19c7      	adds	r7, r0, r7
10003c8c:	23b9      	movs	r3, #185	; 0xb9
10003c8e:	00db      	lsls	r3, r3, #3
10003c90:	446b      	add	r3, sp
10003c92:	601f      	str	r7, [r3, #0]
10003c94:	42a6      	cmp	r6, r4
10003c96:	d00b      	beq.n	10003cb0 <_ZN7Genshin9loadIconsEv+0x24e4>
10003c98:	0003      	movs	r3, r0
10003c9a:	cc07      	ldmia	r4!, {r0, r1, r2}
10003c9c:	c307      	stmia	r3!, {r0, r1, r2}
10003c9e:	0018      	movs	r0, r3
10003ca0:	e7f8      	b.n	10003c94 <_ZN7Genshin9loadIconsEv+0x24c8>
10003ca2:	4882      	ldr	r0, [pc, #520]	; (10003eac <_ZN7Genshin9loadIconsEv+0x26e0>)
10003ca4:	f00f f97a 	bl	10012f9c <_ZSt20__throw_length_errorPKc>
10003ca8:	f00f f950 	bl	10012f4c <_ZSt17__throw_bad_allocv>
10003cac:	2000      	movs	r0, #0
10003cae:	e7e8      	b.n	10003c82 <_ZN7Genshin9loadIconsEv+0x24b6>
10003cb0:	4e7a      	ldr	r6, [pc, #488]	; (10003e9c <_ZN7Genshin9loadIconsEv+0x26d0>)
10003cb2:	446e      	add	r6, sp
10003cb4:	6130      	str	r0, [r6, #16]
10003cb6:	2400      	movs	r4, #0
10003cb8:	9444      	str	r4, [sp, #272]	; 0x110
10003cba:	9445      	str	r4, [sp, #276]	; 0x114
10003cbc:	9446      	str	r4, [sp, #280]	; 0x118
10003cbe:	9447      	str	r4, [sp, #284]	; 0x11c
10003cc0:	9448      	str	r4, [sp, #288]	; 0x120
10003cc2:	9449      	str	r4, [sp, #292]	; 0x124
10003cc4:	2325      	movs	r3, #37	; 0x25
10003cc6:	934a      	str	r3, [sp, #296]	; 0x128
10003cc8:	3b07      	subs	r3, #7
10003cca:	934b      	str	r3, [sp, #300]	; 0x12c
10003ccc:	330b      	adds	r3, #11
10003cce:	934c      	str	r3, [sp, #304]	; 0x130
10003cd0:	334a      	adds	r3, #74	; 0x4a
10003cd2:	934d      	str	r3, [sp, #308]	; 0x134
10003cd4:	3b15      	subs	r3, #21
10003cd6:	934e      	str	r3, [sp, #312]	; 0x138
10003cd8:	3321      	adds	r3, #33	; 0x21
10003cda:	934f      	str	r3, [sp, #316]	; 0x13c
10003cdc:	3b07      	subs	r3, #7
10003cde:	9350      	str	r3, [sp, #320]	; 0x140
10003ce0:	3b16      	subs	r3, #22
10003ce2:	9351      	str	r3, [sp, #324]	; 0x144
10003ce4:	3323      	adds	r3, #35	; 0x23
10003ce6:	9352      	str	r3, [sp, #328]	; 0x148
10003ce8:	3b81      	subs	r3, #129	; 0x81
10003cea:	9353      	str	r3, [sp, #332]	; 0x14c
10003cec:	9354      	str	r3, [sp, #336]	; 0x150
10003cee:	3301      	adds	r3, #1
10003cf0:	9355      	str	r3, [sp, #340]	; 0x154
10003cf2:	9456      	str	r4, [sp, #344]	; 0x158
10003cf4:	9457      	str	r4, [sp, #348]	; 0x15c
10003cf6:	9458      	str	r4, [sp, #352]	; 0x160
10003cf8:	9459      	str	r4, [sp, #356]	; 0x164
10003cfa:	945a      	str	r4, [sp, #360]	; 0x168
10003cfc:	945b      	str	r4, [sp, #364]	; 0x16c
10003cfe:	945c      	str	r4, [sp, #368]	; 0x170
10003d00:	945d      	str	r4, [sp, #372]	; 0x174
10003d02:	945e      	str	r4, [sp, #376]	; 0x178
10003d04:	945f      	str	r4, [sp, #380]	; 0x17c
10003d06:	9460      	str	r4, [sp, #384]	; 0x180
10003d08:	9461      	str	r4, [sp, #388]	; 0x184
10003d0a:	9462      	str	r4, [sp, #392]	; 0x188
10003d0c:	9463      	str	r4, [sp, #396]	; 0x18c
10003d0e:	337b      	adds	r3, #123	; 0x7b
10003d10:	466a      	mov	r2, sp
10003d12:	2188      	movs	r1, #136	; 0x88
10003d14:	0049      	lsls	r1, r1, #1
10003d16:	1852      	adds	r2, r2, r1
10003d18:	50d4      	str	r4, [r2, r3]
10003d1a:	21f7      	movs	r1, #247	; 0xf7
10003d1c:	00c9      	lsls	r1, r1, #3
10003d1e:	4469      	add	r1, sp
10003d20:	600a      	str	r2, [r1, #0]
10003d22:	230b      	movs	r3, #11
10003d24:	604b      	str	r3, [r1, #4]
10003d26:	27a6      	movs	r7, #166	; 0xa6
10003d28:	00ff      	lsls	r7, r7, #3
10003d2a:	446f      	add	r7, sp
10003d2c:	2208      	movs	r2, #8
10003d2e:	0038      	movs	r0, r7
10003d30:	f008 ff66 	bl	1000cc00 <__wrap___aeabi_memcpy>
10003d34:	61b4      	str	r4, [r6, #24]
10003d36:	61f4      	str	r4, [r6, #28]
10003d38:	6234      	str	r4, [r6, #32]
10003d3a:	683c      	ldr	r4, [r7, #0]
10003d3c:	687b      	ldr	r3, [r7, #4]
10003d3e:	005f      	lsls	r7, r3, #1
10003d40:	18ff      	adds	r7, r7, r3
10003d42:	00bf      	lsls	r7, r7, #2
10003d44:	19e6      	adds	r6, r4, r7
10003d46:	10ba      	asrs	r2, r7, #2
10003d48:	18bb      	adds	r3, r7, r2
10003d4a:	0118      	lsls	r0, r3, #4
10003d4c:	181b      	adds	r3, r3, r0
10003d4e:	0218      	lsls	r0, r3, #8
10003d50:	181b      	adds	r3, r3, r0
10003d52:	0418      	lsls	r0, r3, #16
10003d54:	1818      	adds	r0, r3, r0
10003d56:	0040      	lsls	r0, r0, #1
10003d58:	1880      	adds	r0, r0, r2
10003d5a:	4a52      	ldr	r2, [pc, #328]	; (10003ea4 <_ZN7Genshin9loadIconsEv+0x26d8>)
10003d5c:	4297      	cmp	r7, r2
10003d5e:	d811      	bhi.n	10003d84 <_ZN7Genshin9loadIconsEv+0x25b8>
10003d60:	2800      	cmp	r0, #0
10003d62:	d014      	beq.n	10003d8e <_ZN7Genshin9loadIconsEv+0x25c2>
10003d64:	4a50      	ldr	r2, [pc, #320]	; (10003ea8 <_ZN7Genshin9loadIconsEv+0x26dc>)
10003d66:	4290      	cmp	r0, r2
10003d68:	d80f      	bhi.n	10003d8a <_ZN7Genshin9loadIconsEv+0x25be>
10003d6a:	0043      	lsls	r3, r0, #1
10003d6c:	1818      	adds	r0, r3, r0
10003d6e:	0080      	lsls	r0, r0, #2
10003d70:	f008 ff4c 	bl	1000cc0c <_Znwj>
10003d74:	4b4e      	ldr	r3, [pc, #312]	; (10003eb0 <_ZN7Genshin9loadIconsEv+0x26e4>)
10003d76:	446b      	add	r3, sp
10003d78:	6018      	str	r0, [r3, #0]
10003d7a:	19c7      	adds	r7, r0, r7
10003d7c:	4b4d      	ldr	r3, [pc, #308]	; (10003eb4 <_ZN7Genshin9loadIconsEv+0x26e8>)
10003d7e:	446b      	add	r3, sp
10003d80:	601f      	str	r7, [r3, #0]
10003d82:	e00a      	b.n	10003d9a <_ZN7Genshin9loadIconsEv+0x25ce>
10003d84:	4849      	ldr	r0, [pc, #292]	; (10003eac <_ZN7Genshin9loadIconsEv+0x26e0>)
10003d86:	f00f f909 	bl	10012f9c <_ZSt20__throw_length_errorPKc>
10003d8a:	f00f f8df 	bl	10012f4c <_ZSt17__throw_bad_allocv>
10003d8e:	2000      	movs	r0, #0
10003d90:	e7f0      	b.n	10003d74 <_ZN7Genshin9loadIconsEv+0x25a8>
10003d92:	0003      	movs	r3, r0
10003d94:	cc07      	ldmia	r4!, {r0, r1, r2}
10003d96:	c307      	stmia	r3!, {r0, r1, r2}
10003d98:	0018      	movs	r0, r3
10003d9a:	42a6      	cmp	r6, r4
10003d9c:	d1f9      	bne.n	10003d92 <_ZN7Genshin9loadIconsEv+0x25c6>
10003d9e:	4e3f      	ldr	r6, [pc, #252]	; (10003e9c <_ZN7Genshin9loadIconsEv+0x26d0>)
10003da0:	446e      	add	r6, sp
10003da2:	61f0      	str	r0, [r6, #28]
10003da4:	2400      	movs	r4, #0
10003da6:	9465      	str	r4, [sp, #404]	; 0x194
10003da8:	9466      	str	r4, [sp, #408]	; 0x198
10003daa:	9467      	str	r4, [sp, #412]	; 0x19c
10003dac:	9468      	str	r4, [sp, #416]	; 0x1a0
10003dae:	9469      	str	r4, [sp, #420]	; 0x1a4
10003db0:	946a      	str	r4, [sp, #424]	; 0x1a8
10003db2:	2315      	movs	r3, #21
10003db4:	936b      	str	r3, [sp, #428]	; 0x1ac
10003db6:	2211      	movs	r2, #17
10003db8:	926c      	str	r2, [sp, #432]	; 0x1b0
10003dba:	3206      	adds	r2, #6
10003dbc:	926d      	str	r2, [sp, #436]	; 0x1b4
10003dbe:	3297      	adds	r2, #151	; 0x97
10003dc0:	926e      	str	r2, [sp, #440]	; 0x1b8
10003dc2:	3a21      	subs	r2, #33	; 0x21
10003dc4:	926f      	str	r2, [sp, #444]	; 0x1bc
10003dc6:	3233      	adds	r2, #51	; 0x33
10003dc8:	9270      	str	r2, [sp, #448]	; 0x1c0
10003dca:	3a8f      	subs	r2, #143	; 0x8f
10003dcc:	9271      	str	r2, [sp, #452]	; 0x1c4
10003dce:	3a09      	subs	r2, #9
10003dd0:	9272      	str	r2, [sp, #456]	; 0x1c8
10003dd2:	320e      	adds	r2, #14
10003dd4:	9273      	str	r2, [sp, #460]	; 0x1cc
10003dd6:	9474      	str	r4, [sp, #464]	; 0x1d0
10003dd8:	9475      	str	r4, [sp, #468]	; 0x1d4
10003dda:	9476      	str	r4, [sp, #472]	; 0x1d8
10003ddc:	3a1d      	subs	r2, #29
10003dde:	9277      	str	r2, [sp, #476]	; 0x1dc
10003de0:	9378      	str	r3, [sp, #480]	; 0x1e0
10003de2:	3308      	adds	r3, #8
10003de4:	9379      	str	r3, [sp, #484]	; 0x1e4
10003de6:	3322      	adds	r3, #34	; 0x22
10003de8:	937a      	str	r3, [sp, #488]	; 0x1e8
10003dea:	3b0b      	subs	r3, #11
10003dec:	937b      	str	r3, [sp, #492]	; 0x1ec
10003dee:	3312      	adds	r3, #18
10003df0:	937c      	str	r3, [sp, #496]	; 0x1f0
10003df2:	3b43      	subs	r3, #67	; 0x43
10003df4:	937d      	str	r3, [sp, #500]	; 0x1f4
10003df6:	937e      	str	r3, [sp, #504]	; 0x1f8
10003df8:	3301      	adds	r3, #1
10003dfa:	937f      	str	r3, [sp, #508]	; 0x1fc
10003dfc:	3b02      	subs	r3, #2
10003dfe:	9380      	str	r3, [sp, #512]	; 0x200
10003e00:	9381      	str	r3, [sp, #516]	; 0x204
10003e02:	9382      	str	r3, [sp, #520]	; 0x208
10003e04:	9483      	str	r4, [sp, #524]	; 0x20c
10003e06:	9484      	str	r4, [sp, #528]	; 0x210
10003e08:	337e      	adds	r3, #126	; 0x7e
10003e0a:	466a      	mov	r2, sp
10003e0c:	21ca      	movs	r1, #202	; 0xca
10003e0e:	0049      	lsls	r1, r1, #1
10003e10:	1852      	adds	r2, r2, r1
10003e12:	50d4      	str	r4, [r2, r3]
10003e14:	21f8      	movs	r1, #248	; 0xf8
10003e16:	00c9      	lsls	r1, r1, #3
10003e18:	4469      	add	r1, sp
10003e1a:	600a      	str	r2, [r1, #0]
10003e1c:	230b      	movs	r3, #11
10003e1e:	604b      	str	r3, [r1, #4]
10003e20:	27a6      	movs	r7, #166	; 0xa6
10003e22:	00ff      	lsls	r7, r7, #3
10003e24:	446f      	add	r7, sp
10003e26:	2208      	movs	r2, #8
10003e28:	0038      	movs	r0, r7
10003e2a:	f008 fee9 	bl	1000cc00 <__wrap___aeabi_memcpy>
10003e2e:	6274      	str	r4, [r6, #36]	; 0x24
10003e30:	62b4      	str	r4, [r6, #40]	; 0x28
10003e32:	62f4      	str	r4, [r6, #44]	; 0x2c
10003e34:	683c      	ldr	r4, [r7, #0]
10003e36:	687b      	ldr	r3, [r7, #4]
10003e38:	005f      	lsls	r7, r3, #1
10003e3a:	18ff      	adds	r7, r7, r3
10003e3c:	00bf      	lsls	r7, r7, #2
10003e3e:	19e6      	adds	r6, r4, r7
10003e40:	10ba      	asrs	r2, r7, #2
10003e42:	18bb      	adds	r3, r7, r2
10003e44:	0118      	lsls	r0, r3, #4
10003e46:	181b      	adds	r3, r3, r0
10003e48:	0218      	lsls	r0, r3, #8
10003e4a:	181b      	adds	r3, r3, r0
10003e4c:	0418      	lsls	r0, r3, #16
10003e4e:	1818      	adds	r0, r3, r0
10003e50:	0040      	lsls	r0, r0, #1
10003e52:	1880      	adds	r0, r0, r2
10003e54:	4a13      	ldr	r2, [pc, #76]	; (10003ea4 <_ZN7Genshin9loadIconsEv+0x26d8>)
10003e56:	4297      	cmp	r7, r2
10003e58:	d819      	bhi.n	10003e8e <_ZN7Genshin9loadIconsEv+0x26c2>
10003e5a:	2800      	cmp	r0, #0
10003e5c:	d01c      	beq.n	10003e98 <_ZN7Genshin9loadIconsEv+0x26cc>
10003e5e:	4a12      	ldr	r2, [pc, #72]	; (10003ea8 <_ZN7Genshin9loadIconsEv+0x26dc>)
10003e60:	4290      	cmp	r0, r2
10003e62:	d817      	bhi.n	10003e94 <_ZN7Genshin9loadIconsEv+0x26c8>
10003e64:	0043      	lsls	r3, r0, #1
10003e66:	1818      	adds	r0, r3, r0
10003e68:	0080      	lsls	r0, r0, #2
10003e6a:	f008 fecf 	bl	1000cc0c <_Znwj>
10003e6e:	23bb      	movs	r3, #187	; 0xbb
10003e70:	00db      	lsls	r3, r3, #3
10003e72:	446b      	add	r3, sp
10003e74:	6018      	str	r0, [r3, #0]
10003e76:	19c7      	adds	r7, r0, r7
10003e78:	23bc      	movs	r3, #188	; 0xbc
10003e7a:	00db      	lsls	r3, r3, #3
10003e7c:	446b      	add	r3, sp
10003e7e:	601f      	str	r7, [r3, #0]
10003e80:	42a6      	cmp	r6, r4
10003e82:	d019      	beq.n	10003eb8 <_ZN7Genshin9loadIconsEv+0x26ec>
10003e84:	0003      	movs	r3, r0
10003e86:	cc07      	ldmia	r4!, {r0, r1, r2}
10003e88:	c307      	stmia	r3!, {r0, r1, r2}
10003e8a:	0018      	movs	r0, r3
10003e8c:	e7f8      	b.n	10003e80 <_ZN7Genshin9loadIconsEv+0x26b4>
10003e8e:	4807      	ldr	r0, [pc, #28]	; (10003eac <_ZN7Genshin9loadIconsEv+0x26e0>)
10003e90:	f00f f884 	bl	10012f9c <_ZSt20__throw_length_errorPKc>
10003e94:	f00f f85a 	bl	10012f4c <_ZSt17__throw_bad_allocv>
10003e98:	2000      	movs	r0, #0
10003e9a:	e7e8      	b.n	10003e6e <_ZN7Genshin9loadIconsEv+0x26a2>
10003e9c:	000005b4 	.word	0x000005b4
10003ea0:	000005bc 	.word	0x000005bc
10003ea4:	7ffffff8 	.word	0x7ffffff8
10003ea8:	0aaaaaaa 	.word	0x0aaaaaaa
10003eac:	1001c394 	.word	0x1001c394
10003eb0:	000005cc 	.word	0x000005cc
10003eb4:	000005d4 	.word	0x000005d4
10003eb8:	4ebb      	ldr	r6, [pc, #748]	; (100041a8 <_ZN7Genshin9loadIconsEv+0x29dc>)
10003eba:	446e      	add	r6, sp
10003ebc:	62b0      	str	r0, [r6, #40]	; 0x28
10003ebe:	2400      	movs	r4, #0
10003ec0:	9486      	str	r4, [sp, #536]	; 0x218
10003ec2:	9487      	str	r4, [sp, #540]	; 0x21c
10003ec4:	9488      	str	r4, [sp, #544]	; 0x220
10003ec6:	9489      	str	r4, [sp, #548]	; 0x224
10003ec8:	948a      	str	r4, [sp, #552]	; 0x228
10003eca:	948b      	str	r4, [sp, #556]	; 0x22c
10003ecc:	231f      	movs	r3, #31
10003ece:	938c      	str	r3, [sp, #560]	; 0x230
10003ed0:	3b06      	subs	r3, #6
10003ed2:	938d      	str	r3, [sp, #564]	; 0x234
10003ed4:	3309      	adds	r3, #9
10003ed6:	938e      	str	r3, [sp, #568]	; 0x238
10003ed8:	3384      	adds	r3, #132	; 0x84
10003eda:	938f      	str	r3, [sp, #572]	; 0x23c
10003edc:	3b1f      	subs	r3, #31
10003ede:	9390      	str	r3, [sp, #576]	; 0x240
10003ee0:	3330      	adds	r3, #48	; 0x30
10003ee2:	9391      	str	r3, [sp, #580]	; 0x244
10003ee4:	3b5e      	subs	r3, #94	; 0x5e
10003ee6:	9392      	str	r3, [sp, #584]	; 0x248
10003ee8:	3b11      	subs	r3, #17
10003eea:	9393      	str	r3, [sp, #588]	; 0x24c
10003eec:	331b      	adds	r3, #27
10003eee:	9394      	str	r3, [sp, #592]	; 0x250
10003ef0:	3b62      	subs	r3, #98	; 0x62
10003ef2:	9395      	str	r3, [sp, #596]	; 0x254
10003ef4:	9396      	str	r3, [sp, #600]	; 0x258
10003ef6:	9397      	str	r3, [sp, #604]	; 0x25c
10003ef8:	331f      	adds	r3, #31
10003efa:	9398      	str	r3, [sp, #608]	; 0x260
10003efc:	3b06      	subs	r3, #6
10003efe:	9399      	str	r3, [sp, #612]	; 0x264
10003f00:	3309      	adds	r3, #9
10003f02:	939a      	str	r3, [sp, #616]	; 0x268
10003f04:	338c      	adds	r3, #140	; 0x8c
10003f06:	939b      	str	r3, [sp, #620]	; 0x26c
10003f08:	3b21      	subs	r3, #33	; 0x21
10003f0a:	939c      	str	r3, [sp, #624]	; 0x270
10003f0c:	3333      	adds	r3, #51	; 0x33
10003f0e:	939d      	str	r3, [sp, #628]	; 0x274
10003f10:	3b43      	subs	r3, #67	; 0x43
10003f12:	939e      	str	r3, [sp, #632]	; 0x278
10003f14:	3b19      	subs	r3, #25
10003f16:	939f      	str	r3, [sp, #636]	; 0x27c
10003f18:	3326      	adds	r3, #38	; 0x26
10003f1a:	93a0      	str	r3, [sp, #640]	; 0x280
10003f1c:	3b66      	subs	r3, #102	; 0x66
10003f1e:	93a1      	str	r3, [sp, #644]	; 0x284
10003f20:	3b07      	subs	r3, #7
10003f22:	93a2      	str	r3, [sp, #648]	; 0x288
10003f24:	330b      	adds	r3, #11
10003f26:	93a3      	str	r3, [sp, #652]	; 0x28c
10003f28:	94a4      	str	r4, [sp, #656]	; 0x290
10003f2a:	94a5      	str	r4, [sp, #660]	; 0x294
10003f2c:	3357      	adds	r3, #87	; 0x57
10003f2e:	466a      	mov	r2, sp
10003f30:	2186      	movs	r1, #134	; 0x86
10003f32:	0089      	lsls	r1, r1, #2
10003f34:	1852      	adds	r2, r2, r1
10003f36:	50d4      	str	r4, [r2, r3]
10003f38:	21f9      	movs	r1, #249	; 0xf9
10003f3a:	00c9      	lsls	r1, r1, #3
10003f3c:	4469      	add	r1, sp
10003f3e:	600a      	str	r2, [r1, #0]
10003f40:	230b      	movs	r3, #11
10003f42:	604b      	str	r3, [r1, #4]
10003f44:	27a6      	movs	r7, #166	; 0xa6
10003f46:	00ff      	lsls	r7, r7, #3
10003f48:	446f      	add	r7, sp
10003f4a:	2208      	movs	r2, #8
10003f4c:	0038      	movs	r0, r7
10003f4e:	f008 fe57 	bl	1000cc00 <__wrap___aeabi_memcpy>
10003f52:	6334      	str	r4, [r6, #48]	; 0x30
10003f54:	6374      	str	r4, [r6, #52]	; 0x34
10003f56:	63b4      	str	r4, [r6, #56]	; 0x38
10003f58:	683c      	ldr	r4, [r7, #0]
10003f5a:	687b      	ldr	r3, [r7, #4]
10003f5c:	005f      	lsls	r7, r3, #1
10003f5e:	18ff      	adds	r7, r7, r3
10003f60:	00bf      	lsls	r7, r7, #2
10003f62:	19e6      	adds	r6, r4, r7
10003f64:	10ba      	asrs	r2, r7, #2
10003f66:	18bb      	adds	r3, r7, r2
10003f68:	0118      	lsls	r0, r3, #4
10003f6a:	181b      	adds	r3, r3, r0
10003f6c:	0218      	lsls	r0, r3, #8
10003f6e:	181b      	adds	r3, r3, r0
10003f70:	0418      	lsls	r0, r3, #16
10003f72:	1818      	adds	r0, r3, r0
10003f74:	0040      	lsls	r0, r0, #1
10003f76:	1880      	adds	r0, r0, r2
10003f78:	4a8c      	ldr	r2, [pc, #560]	; (100041ac <_ZN7Genshin9loadIconsEv+0x29e0>)
10003f7a:	4297      	cmp	r7, r2
10003f7c:	d811      	bhi.n	10003fa2 <_ZN7Genshin9loadIconsEv+0x27d6>
10003f7e:	2800      	cmp	r0, #0
10003f80:	d014      	beq.n	10003fac <_ZN7Genshin9loadIconsEv+0x27e0>
10003f82:	4a8b      	ldr	r2, [pc, #556]	; (100041b0 <_ZN7Genshin9loadIconsEv+0x29e4>)
10003f84:	4290      	cmp	r0, r2
10003f86:	d80f      	bhi.n	10003fa8 <_ZN7Genshin9loadIconsEv+0x27dc>
10003f88:	0043      	lsls	r3, r0, #1
10003f8a:	1818      	adds	r0, r3, r0
10003f8c:	0080      	lsls	r0, r0, #2
10003f8e:	f008 fe3d 	bl	1000cc0c <_Znwj>
10003f92:	4b88      	ldr	r3, [pc, #544]	; (100041b4 <_ZN7Genshin9loadIconsEv+0x29e8>)
10003f94:	446b      	add	r3, sp
10003f96:	6018      	str	r0, [r3, #0]
10003f98:	19c7      	adds	r7, r0, r7
10003f9a:	4b87      	ldr	r3, [pc, #540]	; (100041b8 <_ZN7Genshin9loadIconsEv+0x29ec>)
10003f9c:	446b      	add	r3, sp
10003f9e:	601f      	str	r7, [r3, #0]
10003fa0:	e00a      	b.n	10003fb8 <_ZN7Genshin9loadIconsEv+0x27ec>
10003fa2:	4886      	ldr	r0, [pc, #536]	; (100041bc <_ZN7Genshin9loadIconsEv+0x29f0>)
10003fa4:	f00e fffa 	bl	10012f9c <_ZSt20__throw_length_errorPKc>
10003fa8:	f00e ffd0 	bl	10012f4c <_ZSt17__throw_bad_allocv>
10003fac:	2000      	movs	r0, #0
10003fae:	e7f0      	b.n	10003f92 <_ZN7Genshin9loadIconsEv+0x27c6>
10003fb0:	0003      	movs	r3, r0
10003fb2:	cc07      	ldmia	r4!, {r0, r1, r2}
10003fb4:	c307      	stmia	r3!, {r0, r1, r2}
10003fb6:	0018      	movs	r0, r3
10003fb8:	42a6      	cmp	r6, r4
10003fba:	d1f9      	bne.n	10003fb0 <_ZN7Genshin9loadIconsEv+0x27e4>
10003fbc:	4e7a      	ldr	r6, [pc, #488]	; (100041a8 <_ZN7Genshin9loadIconsEv+0x29dc>)
10003fbe:	446e      	add	r6, sp
10003fc0:	6370      	str	r0, [r6, #52]	; 0x34
10003fc2:	2400      	movs	r4, #0
10003fc4:	94a7      	str	r4, [sp, #668]	; 0x29c
10003fc6:	94a8      	str	r4, [sp, #672]	; 0x2a0
10003fc8:	94a9      	str	r4, [sp, #676]	; 0x2a4
10003fca:	2308      	movs	r3, #8
10003fcc:	93aa      	str	r3, [sp, #680]	; 0x2a8
10003fce:	2207      	movs	r2, #7
10003fd0:	92ab      	str	r2, [sp, #684]	; 0x2ac
10003fd2:	93ac      	str	r3, [sp, #688]	; 0x2b0
10003fd4:	3b07      	subs	r3, #7
10003fd6:	93ad      	str	r3, [sp, #692]	; 0x2b4
10003fd8:	93ae      	str	r3, [sp, #696]	; 0x2b8
10003fda:	3301      	adds	r3, #1
10003fdc:	93af      	str	r3, [sp, #700]	; 0x2bc
10003fde:	3322      	adds	r3, #34	; 0x22
10003fe0:	93b0      	str	r3, [sp, #704]	; 0x2c0
10003fe2:	3b08      	subs	r3, #8
10003fe4:	93b1      	str	r3, [sp, #708]	; 0x2c4
10003fe6:	330a      	adds	r3, #10
10003fe8:	93b2      	str	r3, [sp, #712]	; 0x2c8
10003fea:	3b17      	subs	r3, #23
10003fec:	93b3      	str	r3, [sp, #716]	; 0x2cc
10003fee:	3b03      	subs	r3, #3
10003ff0:	93b4      	str	r3, [sp, #720]	; 0x2d0
10003ff2:	3304      	adds	r3, #4
10003ff4:	93b5      	str	r3, [sp, #724]	; 0x2d4
10003ff6:	2176      	movs	r1, #118	; 0x76
10003ff8:	91b6      	str	r1, [sp, #728]	; 0x2d8
10003ffa:	3259      	adds	r2, #89	; 0x59
10003ffc:	92b7      	str	r2, [sp, #732]	; 0x2dc
10003ffe:	3373      	adds	r3, #115	; 0x73
10004000:	93b8      	str	r3, [sp, #736]	; 0x2e0
10004002:	2037      	movs	r0, #55	; 0x37
10004004:	90b9      	str	r0, [sp, #740]	; 0x2e4
10004006:	380a      	subs	r0, #10
10004008:	90ba      	str	r0, [sp, #744]	; 0x2e8
1000400a:	300f      	adds	r0, #15
1000400c:	90bb      	str	r0, [sp, #748]	; 0x2ec
1000400e:	3002      	adds	r0, #2
10004010:	90bc      	str	r0, [sp, #752]	; 0x2f0
10004012:	380b      	subs	r0, #11
10004014:	90bd      	str	r0, [sp, #756]	; 0x2f4
10004016:	3011      	adds	r0, #17
10004018:	90be      	str	r0, [sp, #760]	; 0x2f8
1000401a:	305e      	adds	r0, #94	; 0x5e
1000401c:	90bf      	str	r0, [sp, #764]	; 0x2fc
1000401e:	93c0      	str	r3, [sp, #768]	; 0x300
10004020:	3011      	adds	r0, #17
10004022:	90c1      	str	r0, [sp, #772]	; 0x304
10004024:	91c2      	str	r1, [sp, #776]	; 0x308
10004026:	92c3      	str	r2, [sp, #780]	; 0x30c
10004028:	93c4      	str	r3, [sp, #784]	; 0x310
1000402a:	94c5      	str	r4, [sp, #788]	; 0x314
1000402c:	94c6      	str	r4, [sp, #792]	; 0x318
1000402e:	3b03      	subs	r3, #3
10004030:	466a      	mov	r2, sp
10004032:	21a7      	movs	r1, #167	; 0xa7
10004034:	0089      	lsls	r1, r1, #2
10004036:	1852      	adds	r2, r2, r1
10004038:	50d4      	str	r4, [r2, r3]
1000403a:	21fa      	movs	r1, #250	; 0xfa
1000403c:	00c9      	lsls	r1, r1, #3
1000403e:	4469      	add	r1, sp
10004040:	600a      	str	r2, [r1, #0]
10004042:	230b      	movs	r3, #11
10004044:	604b      	str	r3, [r1, #4]
10004046:	27a6      	movs	r7, #166	; 0xa6
10004048:	00ff      	lsls	r7, r7, #3
1000404a:	446f      	add	r7, sp
1000404c:	2208      	movs	r2, #8
1000404e:	0038      	movs	r0, r7
10004050:	f008 fdd6 	bl	1000cc00 <__wrap___aeabi_memcpy>
10004054:	63f4      	str	r4, [r6, #60]	; 0x3c
10004056:	6434      	str	r4, [r6, #64]	; 0x40
10004058:	6474      	str	r4, [r6, #68]	; 0x44
1000405a:	683c      	ldr	r4, [r7, #0]
1000405c:	687b      	ldr	r3, [r7, #4]
1000405e:	005f      	lsls	r7, r3, #1
10004060:	18ff      	adds	r7, r7, r3
10004062:	00bf      	lsls	r7, r7, #2
10004064:	19e6      	adds	r6, r4, r7
10004066:	10ba      	asrs	r2, r7, #2
10004068:	18bb      	adds	r3, r7, r2
1000406a:	0118      	lsls	r0, r3, #4
1000406c:	181b      	adds	r3, r3, r0
1000406e:	0218      	lsls	r0, r3, #8
10004070:	181b      	adds	r3, r3, r0
10004072:	0418      	lsls	r0, r3, #16
10004074:	1818      	adds	r0, r3, r0
10004076:	0040      	lsls	r0, r0, #1
10004078:	1880      	adds	r0, r0, r2
1000407a:	4a4c      	ldr	r2, [pc, #304]	; (100041ac <_ZN7Genshin9loadIconsEv+0x29e0>)
1000407c:	4297      	cmp	r7, r2
1000407e:	d819      	bhi.n	100040b4 <_ZN7Genshin9loadIconsEv+0x28e8>
10004080:	2800      	cmp	r0, #0
10004082:	d01c      	beq.n	100040be <_ZN7Genshin9loadIconsEv+0x28f2>
10004084:	4a4a      	ldr	r2, [pc, #296]	; (100041b0 <_ZN7Genshin9loadIconsEv+0x29e4>)
10004086:	4290      	cmp	r0, r2
10004088:	d817      	bhi.n	100040ba <_ZN7Genshin9loadIconsEv+0x28ee>
1000408a:	0043      	lsls	r3, r0, #1
1000408c:	1818      	adds	r0, r3, r0
1000408e:	0080      	lsls	r0, r0, #2
10004090:	f008 fdbc 	bl	1000cc0c <_Znwj>
10004094:	23be      	movs	r3, #190	; 0xbe
10004096:	00db      	lsls	r3, r3, #3
10004098:	446b      	add	r3, sp
1000409a:	6018      	str	r0, [r3, #0]
1000409c:	19c7      	adds	r7, r0, r7
1000409e:	23bf      	movs	r3, #191	; 0xbf
100040a0:	00db      	lsls	r3, r3, #3
100040a2:	446b      	add	r3, sp
100040a4:	601f      	str	r7, [r3, #0]
100040a6:	42a6      	cmp	r6, r4
100040a8:	d00b      	beq.n	100040c2 <_ZN7Genshin9loadIconsEv+0x28f6>
100040aa:	0003      	movs	r3, r0
100040ac:	cc07      	ldmia	r4!, {r0, r1, r2}
100040ae:	c307      	stmia	r3!, {r0, r1, r2}
100040b0:	0018      	movs	r0, r3
100040b2:	e7f8      	b.n	100040a6 <_ZN7Genshin9loadIconsEv+0x28da>
100040b4:	4841      	ldr	r0, [pc, #260]	; (100041bc <_ZN7Genshin9loadIconsEv+0x29f0>)
100040b6:	f00e ff71 	bl	10012f9c <_ZSt20__throw_length_errorPKc>
100040ba:	f00e ff47 	bl	10012f4c <_ZSt17__throw_bad_allocv>
100040be:	2000      	movs	r0, #0
100040c0:	e7e8      	b.n	10004094 <_ZN7Genshin9loadIconsEv+0x28c8>
100040c2:	4e39      	ldr	r6, [pc, #228]	; (100041a8 <_ZN7Genshin9loadIconsEv+0x29dc>)
100040c4:	446e      	add	r6, sp
100040c6:	6430      	str	r0, [r6, #64]	; 0x40
100040c8:	2400      	movs	r4, #0
100040ca:	94c8      	str	r4, [sp, #800]	; 0x320
100040cc:	94c9      	str	r4, [sp, #804]	; 0x324
100040ce:	94ca      	str	r4, [sp, #808]	; 0x328
100040d0:	234a      	movs	r3, #74	; 0x4a
100040d2:	93cb      	str	r3, [sp, #812]	; 0x32c
100040d4:	3b0d      	subs	r3, #13
100040d6:	93cc      	str	r3, [sp, #816]	; 0x330
100040d8:	3315      	adds	r3, #21
100040da:	93cd      	str	r3, [sp, #820]	; 0x334
100040dc:	94ce      	str	r4, [sp, #824]	; 0x338
100040de:	94cf      	str	r4, [sp, #828]	; 0x33c
100040e0:	94d0      	str	r4, [sp, #832]	; 0x340
100040e2:	94d1      	str	r4, [sp, #836]	; 0x344
100040e4:	94d2      	str	r4, [sp, #840]	; 0x348
100040e6:	94d3      	str	r4, [sp, #844]	; 0x34c
100040e8:	94d4      	str	r4, [sp, #848]	; 0x350
100040ea:	94d5      	str	r4, [sp, #852]	; 0x354
100040ec:	94d6      	str	r4, [sp, #856]	; 0x358
100040ee:	3b16      	subs	r3, #22
100040f0:	93d7      	str	r3, [sp, #860]	; 0x35c
100040f2:	3b0c      	subs	r3, #12
100040f4:	93d8      	str	r3, [sp, #864]	; 0x360
100040f6:	3311      	adds	r3, #17
100040f8:	93d9      	str	r3, [sp, #868]	; 0x364
100040fa:	94da      	str	r4, [sp, #872]	; 0x368
100040fc:	94db      	str	r4, [sp, #876]	; 0x36c
100040fe:	94dc      	str	r4, [sp, #880]	; 0x370
10004100:	94dd      	str	r4, [sp, #884]	; 0x374
10004102:	94de      	str	r4, [sp, #888]	; 0x378
10004104:	94df      	str	r4, [sp, #892]	; 0x37c
10004106:	3314      	adds	r3, #20
10004108:	93e0      	str	r3, [sp, #896]	; 0x380
1000410a:	3b10      	subs	r3, #16
1000410c:	93e1      	str	r3, [sp, #900]	; 0x384
1000410e:	3318      	adds	r3, #24
10004110:	93e2      	str	r3, [sp, #904]	; 0x388
10004112:	332c      	adds	r3, #44	; 0x2c
10004114:	93e3      	str	r3, [sp, #908]	; 0x38c
10004116:	3b1a      	subs	r3, #26
10004118:	93e4      	str	r3, [sp, #912]	; 0x390
1000411a:	3328      	adds	r3, #40	; 0x28
1000411c:	93e5      	str	r3, [sp, #916]	; 0x394
1000411e:	94e6      	str	r4, [sp, #920]	; 0x398
10004120:	94e7      	str	r4, [sp, #924]	; 0x39c
10004122:	3b17      	subs	r3, #23
10004124:	466a      	mov	r2, sp
10004126:	21c8      	movs	r1, #200	; 0xc8
10004128:	0089      	lsls	r1, r1, #2
1000412a:	1852      	adds	r2, r2, r1
1000412c:	50d4      	str	r4, [r2, r3]
1000412e:	21fb      	movs	r1, #251	; 0xfb
10004130:	00c9      	lsls	r1, r1, #3
10004132:	4469      	add	r1, sp
10004134:	600a      	str	r2, [r1, #0]
10004136:	230b      	movs	r3, #11
10004138:	604b      	str	r3, [r1, #4]
1000413a:	27a6      	movs	r7, #166	; 0xa6
1000413c:	00ff      	lsls	r7, r7, #3
1000413e:	446f      	add	r7, sp
10004140:	2208      	movs	r2, #8
10004142:	0038      	movs	r0, r7
10004144:	f008 fd5c 	bl	1000cc00 <__wrap___aeabi_memcpy>
10004148:	64b4      	str	r4, [r6, #72]	; 0x48
1000414a:	64f4      	str	r4, [r6, #76]	; 0x4c
1000414c:	6534      	str	r4, [r6, #80]	; 0x50
1000414e:	683c      	ldr	r4, [r7, #0]
10004150:	687b      	ldr	r3, [r7, #4]
10004152:	005f      	lsls	r7, r3, #1
10004154:	18ff      	adds	r7, r7, r3
10004156:	00bf      	lsls	r7, r7, #2
10004158:	19e6      	adds	r6, r4, r7
1000415a:	10ba      	asrs	r2, r7, #2
1000415c:	18bb      	adds	r3, r7, r2
1000415e:	0118      	lsls	r0, r3, #4
10004160:	181b      	adds	r3, r3, r0
10004162:	0218      	lsls	r0, r3, #8
10004164:	181b      	adds	r3, r3, r0
10004166:	0418      	lsls	r0, r3, #16
10004168:	1818      	adds	r0, r3, r0
1000416a:	0040      	lsls	r0, r0, #1
1000416c:	1880      	adds	r0, r0, r2
1000416e:	4a0f      	ldr	r2, [pc, #60]	; (100041ac <_ZN7Genshin9loadIconsEv+0x29e0>)
10004170:	4297      	cmp	r7, r2
10004172:	d811      	bhi.n	10004198 <_ZN7Genshin9loadIconsEv+0x29cc>
10004174:	2800      	cmp	r0, #0
10004176:	d014      	beq.n	100041a2 <_ZN7Genshin9loadIconsEv+0x29d6>
10004178:	4a0d      	ldr	r2, [pc, #52]	; (100041b0 <_ZN7Genshin9loadIconsEv+0x29e4>)
1000417a:	4290      	cmp	r0, r2
1000417c:	d80f      	bhi.n	1000419e <_ZN7Genshin9loadIconsEv+0x29d2>
1000417e:	0043      	lsls	r3, r0, #1
10004180:	1818      	adds	r0, r3, r0
10004182:	0080      	lsls	r0, r0, #2
10004184:	f008 fd42 	bl	1000cc0c <_Znwj>
10004188:	4b0d      	ldr	r3, [pc, #52]	; (100041c0 <_ZN7Genshin9loadIconsEv+0x29f4>)
1000418a:	446b      	add	r3, sp
1000418c:	6018      	str	r0, [r3, #0]
1000418e:	19c7      	adds	r7, r0, r7
10004190:	4b0c      	ldr	r3, [pc, #48]	; (100041c4 <_ZN7Genshin9loadIconsEv+0x29f8>)
10004192:	446b      	add	r3, sp
10004194:	601f      	str	r7, [r3, #0]
10004196:	e01b      	b.n	100041d0 <_ZN7Genshin9loadIconsEv+0x2a04>
10004198:	4808      	ldr	r0, [pc, #32]	; (100041bc <_ZN7Genshin9loadIconsEv+0x29f0>)
1000419a:	f00e feff 	bl	10012f9c <_ZSt20__throw_length_errorPKc>
1000419e:	f00e fed5 	bl	10012f4c <_ZSt17__throw_bad_allocv>
100041a2:	2000      	movs	r0, #0
100041a4:	e7f0      	b.n	10004188 <_ZN7Genshin9loadIconsEv+0x29bc>
100041a6:	46c0      	nop			; (mov r8, r8)
100041a8:	000005b4 	.word	0x000005b4
100041ac:	7ffffff8 	.word	0x7ffffff8
100041b0:	0aaaaaaa 	.word	0x0aaaaaaa
100041b4:	000005e4 	.word	0x000005e4
100041b8:	000005ec 	.word	0x000005ec
100041bc:	1001c394 	.word	0x1001c394
100041c0:	000005fc 	.word	0x000005fc
100041c4:	00000604 	.word	0x00000604
100041c8:	0003      	movs	r3, r0
100041ca:	cc07      	ldmia	r4!, {r0, r1, r2}
100041cc:	c307      	stmia	r3!, {r0, r1, r2}
100041ce:	0018      	movs	r0, r3
100041d0:	42a6      	cmp	r6, r4
100041d2:	d1f9      	bne.n	100041c8 <_ZN7Genshin9loadIconsEv+0x29fc>
100041d4:	4cb9      	ldr	r4, [pc, #740]	; (100044bc <_ZN7Genshin9loadIconsEv+0x2cf0>)
100041d6:	446c      	add	r4, sp
100041d8:	64e0      	str	r0, [r4, #76]	; 0x4c
100041da:	abe9      	add	r3, sp, #932	; 0x3a4
100041dc:	2600      	movs	r6, #0
100041de:	96e9      	str	r6, [sp, #932]	; 0x3a4
100041e0:	605e      	str	r6, [r3, #4]
100041e2:	609e      	str	r6, [r3, #8]
100041e4:	224c      	movs	r2, #76	; 0x4c
100041e6:	60da      	str	r2, [r3, #12]
100041e8:	3a0f      	subs	r2, #15
100041ea:	611a      	str	r2, [r3, #16]
100041ec:	3217      	adds	r2, #23
100041ee:	615a      	str	r2, [r3, #20]
100041f0:	3215      	adds	r2, #21
100041f2:	619a      	str	r2, [r3, #24]
100041f4:	3a14      	subs	r2, #20
100041f6:	61da      	str	r2, [r3, #28]
100041f8:	2174      	movs	r1, #116	; 0x74
100041fa:	6219      	str	r1, [r3, #32]
100041fc:	394c      	subs	r1, #76	; 0x4c
100041fe:	6259      	str	r1, [r3, #36]	; 0x24
10004200:	3908      	subs	r1, #8
10004202:	6299      	str	r1, [r3, #40]	; 0x28
10004204:	310c      	adds	r1, #12
10004206:	62d9      	str	r1, [r3, #44]	; 0x2c
10004208:	631a      	str	r2, [r3, #48]	; 0x30
1000420a:	3a0f      	subs	r2, #15
1000420c:	635a      	str	r2, [r3, #52]	; 0x34
1000420e:	3218      	adds	r2, #24
10004210:	639a      	str	r2, [r3, #56]	; 0x38
10004212:	3236      	adds	r2, #54	; 0x36
10004214:	63da      	str	r2, [r3, #60]	; 0x3c
10004216:	3a1d      	subs	r2, #29
10004218:	641a      	str	r2, [r3, #64]	; 0x40
1000421a:	322b      	adds	r2, #43	; 0x2b
1000421c:	645a      	str	r2, [r3, #68]	; 0x44
1000421e:	3a75      	subs	r2, #117	; 0x75
10004220:	649a      	str	r2, [r3, #72]	; 0x48
10004222:	3a08      	subs	r2, #8
10004224:	64da      	str	r2, [r3, #76]	; 0x4c
10004226:	320d      	adds	r2, #13
10004228:	651a      	str	r2, [r3, #80]	; 0x50
1000422a:	655e      	str	r6, [r3, #84]	; 0x54
1000422c:	659e      	str	r6, [r3, #88]	; 0x58
1000422e:	65de      	str	r6, [r3, #92]	; 0x5c
10004230:	321e      	adds	r2, #30
10004232:	661a      	str	r2, [r3, #96]	; 0x60
10004234:	3116      	adds	r1, #22
10004236:	6659      	str	r1, [r3, #100]	; 0x64
10004238:	3116      	adds	r1, #22
1000423a:	6699      	str	r1, [r3, #104]	; 0x68
1000423c:	390f      	subs	r1, #15
1000423e:	66d9      	str	r1, [r3, #108]	; 0x6c
10004240:	390d      	subs	r1, #13
10004242:	6719      	str	r1, [r3, #112]	; 0x70
10004244:	675a      	str	r2, [r3, #116]	; 0x74
10004246:	679e      	str	r6, [r3, #120]	; 0x78
10004248:	67de      	str	r6, [r3, #124]	; 0x7c
1000424a:	3230      	adds	r2, #48	; 0x30
1000424c:	509e      	str	r6, [r3, r2]
1000424e:	21fc      	movs	r1, #252	; 0xfc
10004250:	00c9      	lsls	r1, r1, #3
10004252:	4469      	add	r1, sp
10004254:	600b      	str	r3, [r1, #0]
10004256:	230b      	movs	r3, #11
10004258:	604b      	str	r3, [r1, #4]
1000425a:	27a6      	movs	r7, #166	; 0xa6
1000425c:	00ff      	lsls	r7, r7, #3
1000425e:	446f      	add	r7, sp
10004260:	2208      	movs	r2, #8
10004262:	0038      	movs	r0, r7
10004264:	f008 fccc 	bl	1000cc00 <__wrap___aeabi_memcpy>
10004268:	6566      	str	r6, [r4, #84]	; 0x54
1000426a:	65a6      	str	r6, [r4, #88]	; 0x58
1000426c:	65e6      	str	r6, [r4, #92]	; 0x5c
1000426e:	683c      	ldr	r4, [r7, #0]
10004270:	687b      	ldr	r3, [r7, #4]
10004272:	005f      	lsls	r7, r3, #1
10004274:	18ff      	adds	r7, r7, r3
10004276:	00bf      	lsls	r7, r7, #2
10004278:	19e6      	adds	r6, r4, r7
1000427a:	10ba      	asrs	r2, r7, #2
1000427c:	18bb      	adds	r3, r7, r2
1000427e:	0118      	lsls	r0, r3, #4
10004280:	181b      	adds	r3, r3, r0
10004282:	0218      	lsls	r0, r3, #8
10004284:	181b      	adds	r3, r3, r0
10004286:	0418      	lsls	r0, r3, #16
10004288:	1818      	adds	r0, r3, r0
1000428a:	0040      	lsls	r0, r0, #1
1000428c:	1880      	adds	r0, r0, r2
1000428e:	4a8c      	ldr	r2, [pc, #560]	; (100044c0 <_ZN7Genshin9loadIconsEv+0x2cf4>)
10004290:	4297      	cmp	r7, r2
10004292:	d819      	bhi.n	100042c8 <_ZN7Genshin9loadIconsEv+0x2afc>
10004294:	2800      	cmp	r0, #0
10004296:	d01c      	beq.n	100042d2 <_ZN7Genshin9loadIconsEv+0x2b06>
10004298:	4a8a      	ldr	r2, [pc, #552]	; (100044c4 <_ZN7Genshin9loadIconsEv+0x2cf8>)
1000429a:	4290      	cmp	r0, r2
1000429c:	d817      	bhi.n	100042ce <_ZN7Genshin9loadIconsEv+0x2b02>
1000429e:	0043      	lsls	r3, r0, #1
100042a0:	1818      	adds	r0, r3, r0
100042a2:	0080      	lsls	r0, r0, #2
100042a4:	f008 fcb2 	bl	1000cc0c <_Znwj>
100042a8:	23c1      	movs	r3, #193	; 0xc1
100042aa:	00db      	lsls	r3, r3, #3
100042ac:	446b      	add	r3, sp
100042ae:	6018      	str	r0, [r3, #0]
100042b0:	19c7      	adds	r7, r0, r7
100042b2:	23c2      	movs	r3, #194	; 0xc2
100042b4:	00db      	lsls	r3, r3, #3
100042b6:	446b      	add	r3, sp
100042b8:	601f      	str	r7, [r3, #0]
100042ba:	42a6      	cmp	r6, r4
100042bc:	d00b      	beq.n	100042d6 <_ZN7Genshin9loadIconsEv+0x2b0a>
100042be:	0003      	movs	r3, r0
100042c0:	cc07      	ldmia	r4!, {r0, r1, r2}
100042c2:	c307      	stmia	r3!, {r0, r1, r2}
100042c4:	0018      	movs	r0, r3
100042c6:	e7f8      	b.n	100042ba <_ZN7Genshin9loadIconsEv+0x2aee>
100042c8:	487f      	ldr	r0, [pc, #508]	; (100044c8 <_ZN7Genshin9loadIconsEv+0x2cfc>)
100042ca:	f00e fe67 	bl	10012f9c <_ZSt20__throw_length_errorPKc>
100042ce:	f00e fe3d 	bl	10012f4c <_ZSt17__throw_bad_allocv>
100042d2:	2000      	movs	r0, #0
100042d4:	e7e8      	b.n	100042a8 <_ZN7Genshin9loadIconsEv+0x2adc>
100042d6:	4c79      	ldr	r4, [pc, #484]	; (100044bc <_ZN7Genshin9loadIconsEv+0x2cf0>)
100042d8:	446c      	add	r4, sp
100042da:	65a0      	str	r0, [r4, #88]	; 0x58
100042dc:	abff      	add	r3, sp, #1020	; 0x3fc
100042de:	332c      	adds	r3, #44	; 0x2c
100042e0:	2600      	movs	r6, #0
100042e2:	601e      	str	r6, [r3, #0]
100042e4:	605e      	str	r6, [r3, #4]
100042e6:	609e      	str	r6, [r3, #8]
100042e8:	2203      	movs	r2, #3
100042ea:	60da      	str	r2, [r3, #12]
100042ec:	611a      	str	r2, [r3, #16]
100042ee:	3201      	adds	r2, #1
100042f0:	615a      	str	r2, [r3, #20]
100042f2:	327b      	adds	r2, #123	; 0x7b
100042f4:	619a      	str	r2, [r3, #24]
100042f6:	3a17      	subs	r2, #23
100042f8:	61da      	str	r2, [r3, #28]
100042fa:	3224      	adds	r2, #36	; 0x24
100042fc:	621a      	str	r2, [r3, #32]
100042fe:	3208      	adds	r2, #8
10004300:	625a      	str	r2, [r3, #36]	; 0x24
10004302:	3a1c      	subs	r2, #28
10004304:	629a      	str	r2, [r3, #40]	; 0x28
10004306:	322a      	adds	r2, #42	; 0x2a
10004308:	62da      	str	r2, [r3, #44]	; 0x2c
1000430a:	3a12      	subs	r2, #18
1000430c:	631a      	str	r2, [r3, #48]	; 0x30
1000430e:	3a1a      	subs	r2, #26
10004310:	635a      	str	r2, [r3, #52]	; 0x34
10004312:	3229      	adds	r2, #41	; 0x29
10004314:	639a      	str	r2, [r3, #56]	; 0x38
10004316:	3a39      	subs	r2, #57	; 0x39
10004318:	63da      	str	r2, [r3, #60]	; 0x3c
1000431a:	2151      	movs	r1, #81	; 0x51
1000431c:	6419      	str	r1, [r3, #64]	; 0x40
1000431e:	320a      	adds	r2, #10
10004320:	645a      	str	r2, [r3, #68]	; 0x44
10004322:	3a68      	subs	r2, #104	; 0x68
10004324:	649a      	str	r2, [r3, #72]	; 0x48
10004326:	2007      	movs	r0, #7
10004328:	64d8      	str	r0, [r3, #76]	; 0x4c
1000432a:	651a      	str	r2, [r3, #80]	; 0x50
1000432c:	3a06      	subs	r2, #6
1000432e:	655a      	str	r2, [r3, #84]	; 0x54
10004330:	659a      	str	r2, [r3, #88]	; 0x58
10004332:	65da      	str	r2, [r3, #92]	; 0x5c
10004334:	305d      	adds	r0, #93	; 0x5d
10004336:	6618      	str	r0, [r3, #96]	; 0x60
10004338:	6659      	str	r1, [r3, #100]	; 0x64
1000433a:	311e      	adds	r1, #30
1000433c:	6699      	str	r1, [r3, #104]	; 0x68
1000433e:	66da      	str	r2, [r3, #108]	; 0x6c
10004340:	671a      	str	r2, [r3, #112]	; 0x70
10004342:	675a      	str	r2, [r3, #116]	; 0x74
10004344:	679e      	str	r6, [r3, #120]	; 0x78
10004346:	67de      	str	r6, [r3, #124]	; 0x7c
10004348:	327e      	adds	r2, #126	; 0x7e
1000434a:	509e      	str	r6, [r3, r2]
1000434c:	21fd      	movs	r1, #253	; 0xfd
1000434e:	00c9      	lsls	r1, r1, #3
10004350:	4469      	add	r1, sp
10004352:	600b      	str	r3, [r1, #0]
10004354:	230b      	movs	r3, #11
10004356:	604b      	str	r3, [r1, #4]
10004358:	27a6      	movs	r7, #166	; 0xa6
1000435a:	00ff      	lsls	r7, r7, #3
1000435c:	446f      	add	r7, sp
1000435e:	2208      	movs	r2, #8
10004360:	0038      	movs	r0, r7
10004362:	f008 fc4d 	bl	1000cc00 <__wrap___aeabi_memcpy>
10004366:	6626      	str	r6, [r4, #96]	; 0x60
10004368:	6666      	str	r6, [r4, #100]	; 0x64
1000436a:	66a6      	str	r6, [r4, #104]	; 0x68
1000436c:	683c      	ldr	r4, [r7, #0]
1000436e:	687b      	ldr	r3, [r7, #4]
10004370:	005f      	lsls	r7, r3, #1
10004372:	18ff      	adds	r7, r7, r3
10004374:	00bf      	lsls	r7, r7, #2
10004376:	19e6      	adds	r6, r4, r7
10004378:	10ba      	asrs	r2, r7, #2
1000437a:	18bb      	adds	r3, r7, r2
1000437c:	0118      	lsls	r0, r3, #4
1000437e:	181b      	adds	r3, r3, r0
10004380:	0218      	lsls	r0, r3, #8
10004382:	181b      	adds	r3, r3, r0
10004384:	0418      	lsls	r0, r3, #16
10004386:	1818      	adds	r0, r3, r0
10004388:	0040      	lsls	r0, r0, #1
1000438a:	1880      	adds	r0, r0, r2
1000438c:	4a4c      	ldr	r2, [pc, #304]	; (100044c0 <_ZN7Genshin9loadIconsEv+0x2cf4>)
1000438e:	4297      	cmp	r7, r2
10004390:	d817      	bhi.n	100043c2 <_ZN7Genshin9loadIconsEv+0x2bf6>
10004392:	2800      	cmp	r0, #0
10004394:	d01a      	beq.n	100043cc <_ZN7Genshin9loadIconsEv+0x2c00>
10004396:	4a4b      	ldr	r2, [pc, #300]	; (100044c4 <_ZN7Genshin9loadIconsEv+0x2cf8>)
10004398:	4290      	cmp	r0, r2
1000439a:	d815      	bhi.n	100043c8 <_ZN7Genshin9loadIconsEv+0x2bfc>
1000439c:	0043      	lsls	r3, r0, #1
1000439e:	1818      	adds	r0, r3, r0
100043a0:	0080      	lsls	r0, r0, #2
100043a2:	f008 fc33 	bl	1000cc0c <_Znwj>
100043a6:	4b49      	ldr	r3, [pc, #292]	; (100044cc <_ZN7Genshin9loadIconsEv+0x2d00>)
100043a8:	446b      	add	r3, sp
100043aa:	6018      	str	r0, [r3, #0]
100043ac:	19c7      	adds	r7, r0, r7
100043ae:	4b48      	ldr	r3, [pc, #288]	; (100044d0 <_ZN7Genshin9loadIconsEv+0x2d04>)
100043b0:	446b      	add	r3, sp
100043b2:	601f      	str	r7, [r3, #0]
100043b4:	42a6      	cmp	r6, r4
100043b6:	d00b      	beq.n	100043d0 <_ZN7Genshin9loadIconsEv+0x2c04>
100043b8:	0003      	movs	r3, r0
100043ba:	cc07      	ldmia	r4!, {r0, r1, r2}
100043bc:	c307      	stmia	r3!, {r0, r1, r2}
100043be:	0018      	movs	r0, r3
100043c0:	e7f8      	b.n	100043b4 <_ZN7Genshin9loadIconsEv+0x2be8>
100043c2:	4841      	ldr	r0, [pc, #260]	; (100044c8 <_ZN7Genshin9loadIconsEv+0x2cfc>)
100043c4:	f00e fdea 	bl	10012f9c <_ZSt20__throw_length_errorPKc>
100043c8:	f00e fdc0 	bl	10012f4c <_ZSt17__throw_bad_allocv>
100043cc:	2000      	movs	r0, #0
100043ce:	e7ea      	b.n	100043a6 <_ZN7Genshin9loadIconsEv+0x2bda>
100043d0:	4c3a      	ldr	r4, [pc, #232]	; (100044bc <_ZN7Genshin9loadIconsEv+0x2cf0>)
100043d2:	446c      	add	r4, sp
100043d4:	6660      	str	r0, [r4, #100]	; 0x64
100043d6:	abff      	add	r3, sp, #1020	; 0x3fc
100043d8:	33b0      	adds	r3, #176	; 0xb0
100043da:	2600      	movs	r6, #0
100043dc:	601e      	str	r6, [r3, #0]
100043de:	605e      	str	r6, [r3, #4]
100043e0:	609e      	str	r6, [r3, #8]
100043e2:	60de      	str	r6, [r3, #12]
100043e4:	611e      	str	r6, [r3, #16]
100043e6:	615e      	str	r6, [r3, #20]
100043e8:	2202      	movs	r2, #2
100043ea:	619a      	str	r2, [r3, #24]
100043ec:	61da      	str	r2, [r3, #28]
100043ee:	621a      	str	r2, [r3, #32]
100043f0:	3238      	adds	r2, #56	; 0x38
100043f2:	625a      	str	r2, [r3, #36]	; 0x24
100043f4:	3a0b      	subs	r2, #11
100043f6:	629a      	str	r2, [r3, #40]	; 0x28
100043f8:	3211      	adds	r2, #17
100043fa:	62da      	str	r2, [r3, #44]	; 0x2c
100043fc:	3a32      	subs	r2, #50	; 0x32
100043fe:	631a      	str	r2, [r3, #48]	; 0x30
10004400:	210a      	movs	r1, #10
10004402:	6359      	str	r1, [r3, #52]	; 0x34
10004404:	639a      	str	r2, [r3, #56]	; 0x38
10004406:	63de      	str	r6, [r3, #60]	; 0x3c
10004408:	641e      	str	r6, [r3, #64]	; 0x40
1000440a:	645e      	str	r6, [r3, #68]	; 0x44
1000440c:	649e      	str	r6, [r3, #72]	; 0x48
1000440e:	64de      	str	r6, [r3, #76]	; 0x4c
10004410:	651e      	str	r6, [r3, #80]	; 0x50
10004412:	3a02      	subs	r2, #2
10004414:	655a      	str	r2, [r3, #84]	; 0x54
10004416:	3901      	subs	r1, #1
10004418:	6599      	str	r1, [r3, #88]	; 0x58
1000441a:	65da      	str	r2, [r3, #92]	; 0x5c
1000441c:	3a08      	subs	r2, #8
1000441e:	661a      	str	r2, [r3, #96]	; 0x60
10004420:	665a      	str	r2, [r3, #100]	; 0x64
10004422:	669a      	str	r2, [r3, #104]	; 0x68
10004424:	66de      	str	r6, [r3, #108]	; 0x6c
10004426:	671e      	str	r6, [r3, #112]	; 0x70
10004428:	675e      	str	r6, [r3, #116]	; 0x74
1000442a:	679e      	str	r6, [r3, #120]	; 0x78
1000442c:	67de      	str	r6, [r3, #124]	; 0x7c
1000442e:	327c      	adds	r2, #124	; 0x7c
10004430:	509e      	str	r6, [r3, r2]
10004432:	21fe      	movs	r1, #254	; 0xfe
10004434:	00c9      	lsls	r1, r1, #3
10004436:	4469      	add	r1, sp
10004438:	600b      	str	r3, [r1, #0]
1000443a:	230b      	movs	r3, #11
1000443c:	604b      	str	r3, [r1, #4]
1000443e:	27a6      	movs	r7, #166	; 0xa6
10004440:	00ff      	lsls	r7, r7, #3
10004442:	446f      	add	r7, sp
10004444:	2208      	movs	r2, #8
10004446:	0038      	movs	r0, r7
10004448:	f008 fbda 	bl	1000cc00 <__wrap___aeabi_memcpy>
1000444c:	66e6      	str	r6, [r4, #108]	; 0x6c
1000444e:	6726      	str	r6, [r4, #112]	; 0x70
10004450:	6766      	str	r6, [r4, #116]	; 0x74
10004452:	683c      	ldr	r4, [r7, #0]
10004454:	687b      	ldr	r3, [r7, #4]
10004456:	005f      	lsls	r7, r3, #1
10004458:	18ff      	adds	r7, r7, r3
1000445a:	00bf      	lsls	r7, r7, #2
1000445c:	19e6      	adds	r6, r4, r7
1000445e:	10ba      	asrs	r2, r7, #2
10004460:	18bb      	adds	r3, r7, r2
10004462:	0118      	lsls	r0, r3, #4
10004464:	181b      	adds	r3, r3, r0
10004466:	0218      	lsls	r0, r3, #8
10004468:	181b      	adds	r3, r3, r0
1000446a:	0418      	lsls	r0, r3, #16
1000446c:	1818      	adds	r0, r3, r0
1000446e:	0040      	lsls	r0, r0, #1
10004470:	1880      	adds	r0, r0, r2
10004472:	4a13      	ldr	r2, [pc, #76]	; (100044c0 <_ZN7Genshin9loadIconsEv+0x2cf4>)
10004474:	4297      	cmp	r7, r2
10004476:	d819      	bhi.n	100044ac <_ZN7Genshin9loadIconsEv+0x2ce0>
10004478:	2800      	cmp	r0, #0
1000447a:	d01c      	beq.n	100044b6 <_ZN7Genshin9loadIconsEv+0x2cea>
1000447c:	4a11      	ldr	r2, [pc, #68]	; (100044c4 <_ZN7Genshin9loadIconsEv+0x2cf8>)
1000447e:	4290      	cmp	r0, r2
10004480:	d817      	bhi.n	100044b2 <_ZN7Genshin9loadIconsEv+0x2ce6>
10004482:	0043      	lsls	r3, r0, #1
10004484:	1818      	adds	r0, r3, r0
10004486:	0080      	lsls	r0, r0, #2
10004488:	f008 fbc0 	bl	1000cc0c <_Znwj>
1000448c:	23c4      	movs	r3, #196	; 0xc4
1000448e:	00db      	lsls	r3, r3, #3
10004490:	446b      	add	r3, sp
10004492:	6018      	str	r0, [r3, #0]
10004494:	19c7      	adds	r7, r0, r7
10004496:	23c5      	movs	r3, #197	; 0xc5
10004498:	00db      	lsls	r3, r3, #3
1000449a:	446b      	add	r3, sp
1000449c:	601f      	str	r7, [r3, #0]
1000449e:	42a6      	cmp	r6, r4
100044a0:	d018      	beq.n	100044d4 <_ZN7Genshin9loadIconsEv+0x2d08>
100044a2:	0003      	movs	r3, r0
100044a4:	cc07      	ldmia	r4!, {r0, r1, r2}
100044a6:	c307      	stmia	r3!, {r0, r1, r2}
100044a8:	0018      	movs	r0, r3
100044aa:	e7f8      	b.n	1000449e <_ZN7Genshin9loadIconsEv+0x2cd2>
100044ac:	4806      	ldr	r0, [pc, #24]	; (100044c8 <_ZN7Genshin9loadIconsEv+0x2cfc>)
100044ae:	f00e fd75 	bl	10012f9c <_ZSt20__throw_length_errorPKc>
100044b2:	f00e fd4b 	bl	10012f4c <_ZSt17__throw_bad_allocv>
100044b6:	2000      	movs	r0, #0
100044b8:	e7e8      	b.n	1000448c <_ZN7Genshin9loadIconsEv+0x2cc0>
100044ba:	46c0      	nop			; (mov r8, r8)
100044bc:	000005b4 	.word	0x000005b4
100044c0:	7ffffff8 	.word	0x7ffffff8
100044c4:	0aaaaaaa 	.word	0x0aaaaaaa
100044c8:	1001c394 	.word	0x1001c394
100044cc:	00000614 	.word	0x00000614
100044d0:	0000061c 	.word	0x0000061c
100044d4:	4ecb      	ldr	r6, [pc, #812]	; (10004804 <_ZN7Genshin9loadIconsEv+0x3038>)
100044d6:	446e      	add	r6, sp
100044d8:	6730      	str	r0, [r6, #112]	; 0x70
100044da:	23a6      	movs	r3, #166	; 0xa6
100044dc:	00db      	lsls	r3, r3, #3
100044de:	446b      	add	r3, sp
100044e0:	2400      	movs	r4, #0
100044e2:	601c      	str	r4, [r3, #0]
100044e4:	605c      	str	r4, [r3, #4]
100044e6:	609c      	str	r4, [r3, #8]
100044e8:	60dc      	str	r4, [r3, #12]
100044ea:	611c      	str	r4, [r3, #16]
100044ec:	615c      	str	r4, [r3, #20]
100044ee:	619c      	str	r4, [r3, #24]
100044f0:	61dc      	str	r4, [r3, #28]
100044f2:	621c      	str	r4, [r3, #32]
100044f4:	625c      	str	r4, [r3, #36]	; 0x24
100044f6:	629c      	str	r4, [r3, #40]	; 0x28
100044f8:	62dc      	str	r4, [r3, #44]	; 0x2c
100044fa:	631c      	str	r4, [r3, #48]	; 0x30
100044fc:	635c      	str	r4, [r3, #52]	; 0x34
100044fe:	639c      	str	r4, [r3, #56]	; 0x38
10004500:	63dc      	str	r4, [r3, #60]	; 0x3c
10004502:	641c      	str	r4, [r3, #64]	; 0x40
10004504:	645c      	str	r4, [r3, #68]	; 0x44
10004506:	649c      	str	r4, [r3, #72]	; 0x48
10004508:	64dc      	str	r4, [r3, #76]	; 0x4c
1000450a:	651c      	str	r4, [r3, #80]	; 0x50
1000450c:	655c      	str	r4, [r3, #84]	; 0x54
1000450e:	659c      	str	r4, [r3, #88]	; 0x58
10004510:	65dc      	str	r4, [r3, #92]	; 0x5c
10004512:	661c      	str	r4, [r3, #96]	; 0x60
10004514:	665c      	str	r4, [r3, #100]	; 0x64
10004516:	669c      	str	r4, [r3, #104]	; 0x68
10004518:	66dc      	str	r4, [r3, #108]	; 0x6c
1000451a:	671c      	str	r4, [r3, #112]	; 0x70
1000451c:	675c      	str	r4, [r3, #116]	; 0x74
1000451e:	679c      	str	r4, [r3, #120]	; 0x78
10004520:	67dc      	str	r4, [r3, #124]	; 0x7c
10004522:	2780      	movs	r7, #128	; 0x80
10004524:	51dc      	str	r4, [r3, r7]
10004526:	21ff      	movs	r1, #255	; 0xff
10004528:	00c9      	lsls	r1, r1, #3
1000452a:	4469      	add	r1, sp
1000452c:	600b      	str	r3, [r1, #0]
1000452e:	230b      	movs	r3, #11
10004530:	604b      	str	r3, [r1, #4]
10004532:	2208      	movs	r2, #8
10004534:	4668      	mov	r0, sp
10004536:	f008 fb63 	bl	1000cc00 <__wrap___aeabi_memcpy>
1000453a:	67b4      	str	r4, [r6, #120]	; 0x78
1000453c:	67f4      	str	r4, [r6, #124]	; 0x7c
1000453e:	51f4      	str	r4, [r6, r7]
10004540:	9c00      	ldr	r4, [sp, #0]
10004542:	9b01      	ldr	r3, [sp, #4]
10004544:	005f      	lsls	r7, r3, #1
10004546:	18ff      	adds	r7, r7, r3
10004548:	00bf      	lsls	r7, r7, #2
1000454a:	19e6      	adds	r6, r4, r7
1000454c:	10ba      	asrs	r2, r7, #2
1000454e:	18bb      	adds	r3, r7, r2
10004550:	0118      	lsls	r0, r3, #4
10004552:	181b      	adds	r3, r3, r0
10004554:	0218      	lsls	r0, r3, #8
10004556:	181b      	adds	r3, r3, r0
10004558:	0418      	lsls	r0, r3, #16
1000455a:	1818      	adds	r0, r3, r0
1000455c:	0040      	lsls	r0, r0, #1
1000455e:	1880      	adds	r0, r0, r2
10004560:	4aa9      	ldr	r2, [pc, #676]	; (10004808 <_ZN7Genshin9loadIconsEv+0x303c>)
10004562:	4297      	cmp	r7, r2
10004564:	d819      	bhi.n	1000459a <_ZN7Genshin9loadIconsEv+0x2dce>
10004566:	2800      	cmp	r0, #0
10004568:	d01c      	beq.n	100045a4 <_ZN7Genshin9loadIconsEv+0x2dd8>
1000456a:	4aa8      	ldr	r2, [pc, #672]	; (1000480c <_ZN7Genshin9loadIconsEv+0x3040>)
1000456c:	4290      	cmp	r0, r2
1000456e:	d817      	bhi.n	100045a0 <_ZN7Genshin9loadIconsEv+0x2dd4>
10004570:	0043      	lsls	r3, r0, #1
10004572:	1818      	adds	r0, r3, r0
10004574:	0080      	lsls	r0, r0, #2
10004576:	f008 fb49 	bl	1000cc0c <_Znwj>
1000457a:	4ba5      	ldr	r3, [pc, #660]	; (10004810 <_ZN7Genshin9loadIconsEv+0x3044>)
1000457c:	446b      	add	r3, sp
1000457e:	6018      	str	r0, [r3, #0]
10004580:	19c7      	adds	r7, r0, r7
10004582:	2380      	movs	r3, #128	; 0x80
10004584:	466a      	mov	r2, sp
10004586:	499f      	ldr	r1, [pc, #636]	; (10004804 <_ZN7Genshin9loadIconsEv+0x3038>)
10004588:	1852      	adds	r2, r2, r1
1000458a:	50d7      	str	r7, [r2, r3]
1000458c:	42a6      	cmp	r6, r4
1000458e:	d00b      	beq.n	100045a8 <_ZN7Genshin9loadIconsEv+0x2ddc>
10004590:	0003      	movs	r3, r0
10004592:	cc07      	ldmia	r4!, {r0, r1, r2}
10004594:	c307      	stmia	r3!, {r0, r1, r2}
10004596:	0018      	movs	r0, r3
10004598:	e7f8      	b.n	1000458c <_ZN7Genshin9loadIconsEv+0x2dc0>
1000459a:	489e      	ldr	r0, [pc, #632]	; (10004814 <_ZN7Genshin9loadIconsEv+0x3048>)
1000459c:	f00e fcfe 	bl	10012f9c <_ZSt20__throw_length_errorPKc>
100045a0:	f00e fcd4 	bl	10012f4c <_ZSt17__throw_bad_allocv>
100045a4:	2000      	movs	r0, #0
100045a6:	e7e8      	b.n	1000457a <_ZN7Genshin9loadIconsEv+0x2dae>
100045a8:	23c6      	movs	r3, #198	; 0xc6
100045aa:	00db      	lsls	r3, r3, #3
100045ac:	446b      	add	r3, sp
100045ae:	6018      	str	r0, [r3, #0]
100045b0:	24f4      	movs	r4, #244	; 0xf4
100045b2:	00e4      	lsls	r4, r4, #3
100045b4:	446c      	add	r4, sp
100045b6:	4f93      	ldr	r7, [pc, #588]	; (10004804 <_ZN7Genshin9loadIconsEv+0x3038>)
100045b8:	446f      	add	r7, sp
100045ba:	6027      	str	r7, [r4, #0]
100045bc:	230b      	movs	r3, #11
100045be:	6063      	str	r3, [r4, #4]
100045c0:	4e95      	ldr	r6, [pc, #596]	; (10004818 <_ZN7Genshin9loadIconsEv+0x304c>)
100045c2:	446e      	add	r6, sp
100045c4:	2380      	movs	r3, #128	; 0x80
100045c6:	011b      	lsls	r3, r3, #4
100045c8:	446b      	add	r3, sp
100045ca:	601e      	str	r6, [r3, #0]
100045cc:	4a93      	ldr	r2, [pc, #588]	; (1000481c <_ZN7Genshin9loadIconsEv+0x3050>)
100045ce:	1fd1      	subs	r1, r2, #7
100045d0:	2300      	movs	r3, #0
100045d2:	2080      	movs	r0, #128	; 0x80
100045d4:	0100      	lsls	r0, r0, #4
100045d6:	4468      	add	r0, sp
100045d8:	f7fb fe98 	bl	1000030c <_ZNSt7__cxx1112basic_stringIcSt11char_traitsIcESaIcEE12_M_constructIPKcEEvT_S8_St20forward_iterator_tag>
100045dc:	2380      	movs	r3, #128	; 0x80
100045de:	011b      	lsls	r3, r3, #4
100045e0:	446b      	add	r3, sp
100045e2:	0019      	movs	r1, r3
100045e4:	0028      	movs	r0, r5
100045e6:	f7fc fcb7 	bl	10000f58 <_ZNSt8__detail9_Map_baseINSt7__cxx1112basic_stringIcSt11char_traitsIcESaIcEEESt4pairIKS6_St6vectorIS9_I5ColorSaISA_EESaISC_EEESaISF_ENS_10_Select1stESt8equal_toIS6_ESt4hashIS6_ENS_18_Mod_range_hashingENS_20_Default_ranged_hashENS_20_Prime_rehash_policyENS_17_Hashtable_traitsILb1ELb0ELb1EEELb1EEixEOS6_>
100045ea:	4680      	mov	r8, r0
100045ec:	2208      	movs	r2, #8
100045ee:	0021      	movs	r1, r4
100045f0:	4668      	mov	r0, sp
100045f2:	f008 fb05 	bl	1000cc00 <__wrap___aeabi_memcpy>
100045f6:	2300      	movs	r3, #0
100045f8:	22c7      	movs	r2, #199	; 0xc7
100045fa:	00d2      	lsls	r2, r2, #3
100045fc:	446a      	add	r2, sp
100045fe:	0039      	movs	r1, r7
10004600:	4640      	mov	r0, r8
10004602:	f7fc ffb1 	bl	10001568 <_ZNSt6vectorIS_I5ColorSaIS0_EESaIS2_EE13_M_assign_auxIPKS2_EEvT_S8_St20forward_iterator_tag>
10004606:	2380      	movs	r3, #128	; 0x80
10004608:	011b      	lsls	r3, r3, #4
1000460a:	446b      	add	r3, sp
1000460c:	6818      	ldr	r0, [r3, #0]
1000460e:	42b0      	cmp	r0, r6
10004610:	d003      	beq.n	1000461a <_ZN7Genshin9loadIconsEv+0x2e4e>
10004612:	6833      	ldr	r3, [r6, #0]
10004614:	1c59      	adds	r1, r3, #1
10004616:	f008 fb05 	bl	1000cc24 <_ZdlPvj>
1000461a:	24c7      	movs	r4, #199	; 0xc7
1000461c:	00e4      	lsls	r4, r4, #3
1000461e:	446c      	add	r4, sp
10004620:	4b78      	ldr	r3, [pc, #480]	; (10004804 <_ZN7Genshin9loadIconsEv+0x3038>)
10004622:	446b      	add	r3, sp
10004624:	429c      	cmp	r4, r3
10004626:	d008      	beq.n	1000463a <_ZN7Genshin9loadIconsEv+0x2e6e>
10004628:	3c0c      	subs	r4, #12
1000462a:	6820      	ldr	r0, [r4, #0]
1000462c:	68a3      	ldr	r3, [r4, #8]
1000462e:	1a19      	subs	r1, r3, r0
10004630:	2800      	cmp	r0, #0
10004632:	d0f5      	beq.n	10004620 <_ZN7Genshin9loadIconsEv+0x2e54>
10004634:	f008 faf6 	bl	1000cc24 <_ZdlPvj>
10004638:	e7f2      	b.n	10004620 <_ZN7Genshin9loadIconsEv+0x2e54>
1000463a:	2400      	movs	r4, #0
1000463c:	9402      	str	r4, [sp, #8]
1000463e:	9403      	str	r4, [sp, #12]
10004640:	9404      	str	r4, [sp, #16]
10004642:	9405      	str	r4, [sp, #20]
10004644:	9406      	str	r4, [sp, #24]
10004646:	9407      	str	r4, [sp, #28]
10004648:	9408      	str	r4, [sp, #32]
1000464a:	9409      	str	r4, [sp, #36]	; 0x24
1000464c:	940a      	str	r4, [sp, #40]	; 0x28
1000464e:	940b      	str	r4, [sp, #44]	; 0x2c
10004650:	940c      	str	r4, [sp, #48]	; 0x30
10004652:	940d      	str	r4, [sp, #52]	; 0x34
10004654:	940e      	str	r4, [sp, #56]	; 0x38
10004656:	940f      	str	r4, [sp, #60]	; 0x3c
10004658:	9410      	str	r4, [sp, #64]	; 0x40
1000465a:	9411      	str	r4, [sp, #68]	; 0x44
1000465c:	9412      	str	r4, [sp, #72]	; 0x48
1000465e:	9413      	str	r4, [sp, #76]	; 0x4c
10004660:	9414      	str	r4, [sp, #80]	; 0x50
10004662:	9415      	str	r4, [sp, #84]	; 0x54
10004664:	9416      	str	r4, [sp, #88]	; 0x58
10004666:	9417      	str	r4, [sp, #92]	; 0x5c
10004668:	9418      	str	r4, [sp, #96]	; 0x60
1000466a:	9419      	str	r4, [sp, #100]	; 0x64
1000466c:	941a      	str	r4, [sp, #104]	; 0x68
1000466e:	941b      	str	r4, [sp, #108]	; 0x6c
10004670:	941c      	str	r4, [sp, #112]	; 0x70
10004672:	941d      	str	r4, [sp, #116]	; 0x74
10004674:	941e      	str	r4, [sp, #120]	; 0x78
10004676:	941f      	str	r4, [sp, #124]	; 0x7c
10004678:	9420      	str	r4, [sp, #128]	; 0x80
1000467a:	9421      	str	r4, [sp, #132]	; 0x84
1000467c:	2380      	movs	r3, #128	; 0x80
1000467e:	466a      	mov	r2, sp
10004680:	2108      	movs	r1, #8
10004682:	1852      	adds	r2, r2, r1
10004684:	50d4      	str	r4, [r2, r3]
10004686:	2182      	movs	r1, #130	; 0x82
10004688:	0109      	lsls	r1, r1, #4
1000468a:	4469      	add	r1, sp
1000468c:	600a      	str	r2, [r1, #0]
1000468e:	230b      	movs	r3, #11
10004690:	604b      	str	r3, [r1, #4]
10004692:	26a6      	movs	r6, #166	; 0xa6
10004694:	00f6      	lsls	r6, r6, #3
10004696:	446e      	add	r6, sp
10004698:	2208      	movs	r2, #8
1000469a:	0030      	movs	r0, r6
1000469c:	f008 fab0 	bl	1000cc00 <__wrap___aeabi_memcpy>
100046a0:	4b58      	ldr	r3, [pc, #352]	; (10004804 <_ZN7Genshin9loadIconsEv+0x3038>)
100046a2:	446b      	add	r3, sp
100046a4:	601c      	str	r4, [r3, #0]
100046a6:	23b7      	movs	r3, #183	; 0xb7
100046a8:	00db      	lsls	r3, r3, #3
100046aa:	446b      	add	r3, sp
100046ac:	601c      	str	r4, [r3, #0]
100046ae:	4b5c      	ldr	r3, [pc, #368]	; (10004820 <_ZN7Genshin9loadIconsEv+0x3054>)
100046b0:	446b      	add	r3, sp
100046b2:	601c      	str	r4, [r3, #0]
100046b4:	6834      	ldr	r4, [r6, #0]
100046b6:	6873      	ldr	r3, [r6, #4]
100046b8:	005f      	lsls	r7, r3, #1
100046ba:	18ff      	adds	r7, r7, r3
100046bc:	00bf      	lsls	r7, r7, #2
100046be:	19e6      	adds	r6, r4, r7
100046c0:	10ba      	asrs	r2, r7, #2
100046c2:	18bb      	adds	r3, r7, r2
100046c4:	0118      	lsls	r0, r3, #4
100046c6:	181b      	adds	r3, r3, r0
100046c8:	0218      	lsls	r0, r3, #8
100046ca:	181b      	adds	r3, r3, r0
100046cc:	0418      	lsls	r0, r3, #16
100046ce:	1818      	adds	r0, r3, r0
100046d0:	0040      	lsls	r0, r0, #1
100046d2:	1880      	adds	r0, r0, r2
100046d4:	4a4c      	ldr	r2, [pc, #304]	; (10004808 <_ZN7Genshin9loadIconsEv+0x303c>)
100046d6:	4297      	cmp	r7, r2
100046d8:	d811      	bhi.n	100046fe <_ZN7Genshin9loadIconsEv+0x2f32>
100046da:	2800      	cmp	r0, #0
100046dc:	d014      	beq.n	10004708 <_ZN7Genshin9loadIconsEv+0x2f3c>
100046de:	4a4b      	ldr	r2, [pc, #300]	; (1000480c <_ZN7Genshin9loadIconsEv+0x3040>)
100046e0:	4290      	cmp	r0, r2
100046e2:	d80f      	bhi.n	10004704 <_ZN7Genshin9loadIconsEv+0x2f38>
100046e4:	0043      	lsls	r3, r0, #1
100046e6:	1818      	adds	r0, r3, r0
100046e8:	0080      	lsls	r0, r0, #2
100046ea:	f008 fa8f 	bl	1000cc0c <_Znwj>
100046ee:	4b45      	ldr	r3, [pc, #276]	; (10004804 <_ZN7Genshin9loadIconsEv+0x3038>)
100046f0:	446b      	add	r3, sp
100046f2:	6018      	str	r0, [r3, #0]
100046f4:	19c7      	adds	r7, r0, r7
100046f6:	4b4a      	ldr	r3, [pc, #296]	; (10004820 <_ZN7Genshin9loadIconsEv+0x3054>)
100046f8:	446b      	add	r3, sp
100046fa:	601f      	str	r7, [r3, #0]
100046fc:	e00a      	b.n	10004714 <_ZN7Genshin9loadIconsEv+0x2f48>
100046fe:	4845      	ldr	r0, [pc, #276]	; (10004814 <_ZN7Genshin9loadIconsEv+0x3048>)
10004700:	f00e fc4c 	bl	10012f9c <_ZSt20__throw_length_errorPKc>
10004704:	f00e fc22 	bl	10012f4c <_ZSt17__throw_bad_allocv>
10004708:	2000      	movs	r0, #0
1000470a:	e7f0      	b.n	100046ee <_ZN7Genshin9loadIconsEv+0x2f22>
1000470c:	0003      	movs	r3, r0
1000470e:	cc07      	ldmia	r4!, {r0, r1, r2}
10004710:	c307      	stmia	r3!, {r0, r1, r2}
10004712:	0018      	movs	r0, r3
10004714:	42a6      	cmp	r6, r4
10004716:	d1f9      	bne.n	1000470c <_ZN7Genshin9loadIconsEv+0x2f40>
10004718:	4e3a      	ldr	r6, [pc, #232]	; (10004804 <_ZN7Genshin9loadIconsEv+0x3038>)
1000471a:	446e      	add	r6, sp
1000471c:	6070      	str	r0, [r6, #4]
1000471e:	2400      	movs	r4, #0
10004720:	9423      	str	r4, [sp, #140]	; 0x8c
10004722:	9424      	str	r4, [sp, #144]	; 0x90
10004724:	9425      	str	r4, [sp, #148]	; 0x94
10004726:	9426      	str	r4, [sp, #152]	; 0x98
10004728:	9427      	str	r4, [sp, #156]	; 0x9c
1000472a:	9428      	str	r4, [sp, #160]	; 0xa0
1000472c:	9429      	str	r4, [sp, #164]	; 0xa4
1000472e:	942a      	str	r4, [sp, #168]	; 0xa8
10004730:	942b      	str	r4, [sp, #172]	; 0xac
10004732:	942c      	str	r4, [sp, #176]	; 0xb0
10004734:	942d      	str	r4, [sp, #180]	; 0xb4
10004736:	942e      	str	r4, [sp, #184]	; 0xb8
10004738:	2313      	movs	r3, #19
1000473a:	932f      	str	r3, [sp, #188]	; 0xbc
1000473c:	3b05      	subs	r3, #5
1000473e:	9330      	str	r3, [sp, #192]	; 0xc0
10004740:	3b0a      	subs	r3, #10
10004742:	9331      	str	r3, [sp, #196]	; 0xc4
10004744:	3371      	adds	r3, #113	; 0x71
10004746:	9332      	str	r3, [sp, #200]	; 0xc8
10004748:	3b21      	subs	r3, #33	; 0x21
1000474a:	9333      	str	r3, [sp, #204]	; 0xcc
1000474c:	3b3e      	subs	r3, #62	; 0x3e
1000474e:	9334      	str	r3, [sp, #208]	; 0xd0
10004750:	3b0b      	subs	r3, #11
10004752:	9335      	str	r3, [sp, #212]	; 0xd4
10004754:	2207      	movs	r2, #7
10004756:	9236      	str	r2, [sp, #216]	; 0xd8
10004758:	3a06      	subs	r2, #6
1000475a:	9237      	str	r2, [sp, #220]	; 0xdc
1000475c:	9438      	str	r4, [sp, #224]	; 0xe0
1000475e:	9439      	str	r4, [sp, #228]	; 0xe4
10004760:	943a      	str	r4, [sp, #232]	; 0xe8
10004762:	943b      	str	r4, [sp, #236]	; 0xec
10004764:	943c      	str	r4, [sp, #240]	; 0xf0
10004766:	943d      	str	r4, [sp, #244]	; 0xf4
10004768:	943e      	str	r4, [sp, #248]	; 0xf8
1000476a:	943f      	str	r4, [sp, #252]	; 0xfc
1000476c:	9440      	str	r4, [sp, #256]	; 0x100
1000476e:	9441      	str	r4, [sp, #260]	; 0x104
10004770:	9442      	str	r4, [sp, #264]	; 0x108
10004772:	327f      	adds	r2, #127	; 0x7f
10004774:	4669      	mov	r1, sp
10004776:	208c      	movs	r0, #140	; 0x8c
10004778:	1809      	adds	r1, r1, r0
1000477a:	508c      	str	r4, [r1, r2]
1000477c:	4929      	ldr	r1, [pc, #164]	; (10004824 <_ZN7Genshin9loadIconsEv+0x3058>)
1000477e:	4469      	add	r1, sp
10004780:	aa23      	add	r2, sp, #140	; 0x8c
10004782:	600a      	str	r2, [r1, #0]
10004784:	604b      	str	r3, [r1, #4]
10004786:	27a6      	movs	r7, #166	; 0xa6
10004788:	00ff      	lsls	r7, r7, #3
1000478a:	446f      	add	r7, sp
1000478c:	2208      	movs	r2, #8
1000478e:	0038      	movs	r0, r7
10004790:	f008 fa36 	bl	1000cc00 <__wrap___aeabi_memcpy>
10004794:	60f4      	str	r4, [r6, #12]
10004796:	6134      	str	r4, [r6, #16]
10004798:	6174      	str	r4, [r6, #20]
1000479a:	683c      	ldr	r4, [r7, #0]
1000479c:	687b      	ldr	r3, [r7, #4]
1000479e:	005f      	lsls	r7, r3, #1
100047a0:	18ff      	adds	r7, r7, r3
100047a2:	00bf      	lsls	r7, r7, #2
100047a4:	19e6      	adds	r6, r4, r7
100047a6:	10ba      	asrs	r2, r7, #2
100047a8:	18bb      	adds	r3, r7, r2
100047aa:	0118      	lsls	r0, r3, #4
100047ac:	181b      	adds	r3, r3, r0
100047ae:	0218      	lsls	r0, r3, #8
100047b0:	181b      	adds	r3, r3, r0
100047b2:	0418      	lsls	r0, r3, #16
100047b4:	1818      	adds	r0, r3, r0
100047b6:	0040      	lsls	r0, r0, #1
100047b8:	1880      	adds	r0, r0, r2
100047ba:	4a13      	ldr	r2, [pc, #76]	; (10004808 <_ZN7Genshin9loadIconsEv+0x303c>)
100047bc:	4297      	cmp	r7, r2
100047be:	d819      	bhi.n	100047f4 <_ZN7Genshin9loadIconsEv+0x3028>
100047c0:	2800      	cmp	r0, #0
100047c2:	d01c      	beq.n	100047fe <_ZN7Genshin9loadIconsEv+0x3032>
100047c4:	4a11      	ldr	r2, [pc, #68]	; (1000480c <_ZN7Genshin9loadIconsEv+0x3040>)
100047c6:	4290      	cmp	r0, r2
100047c8:	d817      	bhi.n	100047fa <_ZN7Genshin9loadIconsEv+0x302e>
100047ca:	0043      	lsls	r3, r0, #1
100047cc:	1818      	adds	r0, r3, r0
100047ce:	0080      	lsls	r0, r0, #2
100047d0:	f008 fa1c 	bl	1000cc0c <_Znwj>
100047d4:	23b8      	movs	r3, #184	; 0xb8
100047d6:	00db      	lsls	r3, r3, #3
100047d8:	446b      	add	r3, sp
100047da:	6018      	str	r0, [r3, #0]
100047dc:	19c7      	adds	r7, r0, r7
100047de:	23b9      	movs	r3, #185	; 0xb9
100047e0:	00db      	lsls	r3, r3, #3
100047e2:	446b      	add	r3, sp
100047e4:	601f      	str	r7, [r3, #0]
100047e6:	42a6      	cmp	r6, r4
100047e8:	d01e      	beq.n	10004828 <_ZN7Genshin9loadIconsEv+0x305c>
100047ea:	0003      	movs	r3, r0
100047ec:	cc07      	ldmia	r4!, {r0, r1, r2}
100047ee:	c307      	stmia	r3!, {r0, r1, r2}
100047f0:	0018      	movs	r0, r3
100047f2:	e7f8      	b.n	100047e6 <_ZN7Genshin9loadIconsEv+0x301a>
100047f4:	4807      	ldr	r0, [pc, #28]	; (10004814 <_ZN7Genshin9loadIconsEv+0x3048>)
100047f6:	f00e fbd1 	bl	10012f9c <_ZSt20__throw_length_errorPKc>
100047fa:	f00e fba7 	bl	10012f4c <_ZSt17__throw_bad_allocv>
100047fe:	2000      	movs	r0, #0
10004800:	e7e8      	b.n	100047d4 <_ZN7Genshin9loadIconsEv+0x3008>
10004802:	46c0      	nop			; (mov r8, r8)
10004804:	000005b4 	.word	0x000005b4
10004808:	7ffffff8 	.word	0x7ffffff8
1000480c:	0aaaaaaa 	.word	0x0aaaaaaa
10004810:	0000062c 	.word	0x0000062c
10004814:	1001c394 	.word	0x1001c394
10004818:	00000808 	.word	0x00000808
1000481c:	1001c36b 	.word	0x1001c36b
10004820:	000005bc 	.word	0x000005bc
10004824:	00000828 	.word	0x00000828
10004828:	4ebe      	ldr	r6, [pc, #760]	; (10004b24 <_ZN7Genshin9loadIconsEv+0x3358>)
1000482a:	446e      	add	r6, sp
1000482c:	6130      	str	r0, [r6, #16]
1000482e:	2400      	movs	r4, #0
10004830:	9444      	str	r4, [sp, #272]	; 0x110
10004832:	9445      	str	r4, [sp, #276]	; 0x114
10004834:	9446      	str	r4, [sp, #280]	; 0x118
10004836:	9447      	str	r4, [sp, #284]	; 0x11c
10004838:	9448      	str	r4, [sp, #288]	; 0x120
1000483a:	9449      	str	r4, [sp, #292]	; 0x124
1000483c:	944a      	str	r4, [sp, #296]	; 0x128
1000483e:	944b      	str	r4, [sp, #300]	; 0x12c
10004840:	944c      	str	r4, [sp, #304]	; 0x130
10004842:	2321      	movs	r3, #33	; 0x21
10004844:	934d      	str	r3, [sp, #308]	; 0x134
10004846:	3b09      	subs	r3, #9
10004848:	934e      	str	r3, [sp, #312]	; 0x138
1000484a:	3b11      	subs	r3, #17
1000484c:	934f      	str	r3, [sp, #316]	; 0x13c
1000484e:	334c      	adds	r3, #76	; 0x4c
10004850:	9350      	str	r3, [sp, #320]	; 0x140
10004852:	3b16      	subs	r3, #22
10004854:	9351      	str	r3, [sp, #324]	; 0x144
10004856:	3b2e      	subs	r3, #46	; 0x2e
10004858:	9352      	str	r3, [sp, #328]	; 0x148
1000485a:	33af      	adds	r3, #175	; 0xaf
1000485c:	9353      	str	r3, [sp, #332]	; 0x14c
1000485e:	3b35      	subs	r3, #53	; 0x35
10004860:	9354      	str	r3, [sp, #336]	; 0x150
10004862:	3b63      	subs	r3, #99	; 0x63
10004864:	9355      	str	r3, [sp, #340]	; 0x154
10004866:	33aa      	adds	r3, #170	; 0xaa
10004868:	9356      	str	r3, [sp, #344]	; 0x158
1000486a:	3b38      	subs	r3, #56	; 0x38
1000486c:	9357      	str	r3, [sp, #348]	; 0x15c
1000486e:	3b6f      	subs	r3, #111	; 0x6f
10004870:	9358      	str	r3, [sp, #352]	; 0x160
10004872:	3b02      	subs	r3, #2
10004874:	9359      	str	r3, [sp, #356]	; 0x164
10004876:	3b0a      	subs	r3, #10
10004878:	935a      	str	r3, [sp, #360]	; 0x168
1000487a:	3b15      	subs	r3, #21
1000487c:	935b      	str	r3, [sp, #364]	; 0x16c
1000487e:	945c      	str	r4, [sp, #368]	; 0x170
10004880:	945d      	str	r4, [sp, #372]	; 0x174
10004882:	945e      	str	r4, [sp, #376]	; 0x178
10004884:	945f      	str	r4, [sp, #380]	; 0x17c
10004886:	9460      	str	r4, [sp, #384]	; 0x180
10004888:	9461      	str	r4, [sp, #388]	; 0x184
1000488a:	9462      	str	r4, [sp, #392]	; 0x188
1000488c:	9463      	str	r4, [sp, #396]	; 0x18c
1000488e:	3378      	adds	r3, #120	; 0x78
10004890:	466a      	mov	r2, sp
10004892:	2188      	movs	r1, #136	; 0x88
10004894:	0049      	lsls	r1, r1, #1
10004896:	1852      	adds	r2, r2, r1
10004898:	50d4      	str	r4, [r2, r3]
1000489a:	2183      	movs	r1, #131	; 0x83
1000489c:	0109      	lsls	r1, r1, #4
1000489e:	4469      	add	r1, sp
100048a0:	600a      	str	r2, [r1, #0]
100048a2:	230b      	movs	r3, #11
100048a4:	604b      	str	r3, [r1, #4]
100048a6:	27a6      	movs	r7, #166	; 0xa6
100048a8:	00ff      	lsls	r7, r7, #3
100048aa:	446f      	add	r7, sp
100048ac:	2208      	movs	r2, #8
100048ae:	0038      	movs	r0, r7
100048b0:	f008 f9a6 	bl	1000cc00 <__wrap___aeabi_memcpy>
100048b4:	61b4      	str	r4, [r6, #24]
100048b6:	61f4      	str	r4, [r6, #28]
100048b8:	6234      	str	r4, [r6, #32]
100048ba:	683c      	ldr	r4, [r7, #0]
100048bc:	687b      	ldr	r3, [r7, #4]
100048be:	005f      	lsls	r7, r3, #1
100048c0:	18ff      	adds	r7, r7, r3
100048c2:	00bf      	lsls	r7, r7, #2
100048c4:	19e6      	adds	r6, r4, r7
100048c6:	10ba      	asrs	r2, r7, #2
100048c8:	18bb      	adds	r3, r7, r2
100048ca:	0118      	lsls	r0, r3, #4
100048cc:	181b      	adds	r3, r3, r0
100048ce:	0218      	lsls	r0, r3, #8
100048d0:	181b      	adds	r3, r3, r0
100048d2:	0418      	lsls	r0, r3, #16
100048d4:	1818      	adds	r0, r3, r0
100048d6:	0040      	lsls	r0, r0, #1
100048d8:	1880      	adds	r0, r0, r2
100048da:	4a93      	ldr	r2, [pc, #588]	; (10004b28 <_ZN7Genshin9loadIconsEv+0x335c>)
100048dc:	4297      	cmp	r7, r2
100048de:	d817      	bhi.n	10004910 <_ZN7Genshin9loadIconsEv+0x3144>
100048e0:	2800      	cmp	r0, #0
100048e2:	d01a      	beq.n	1000491a <_ZN7Genshin9loadIconsEv+0x314e>
100048e4:	4a91      	ldr	r2, [pc, #580]	; (10004b2c <_ZN7Genshin9loadIconsEv+0x3360>)
100048e6:	4290      	cmp	r0, r2
100048e8:	d815      	bhi.n	10004916 <_ZN7Genshin9loadIconsEv+0x314a>
100048ea:	0043      	lsls	r3, r0, #1
100048ec:	1818      	adds	r0, r3, r0
100048ee:	0080      	lsls	r0, r0, #2
100048f0:	f008 f98c 	bl	1000cc0c <_Znwj>
100048f4:	4b8e      	ldr	r3, [pc, #568]	; (10004b30 <_ZN7Genshin9loadIconsEv+0x3364>)
100048f6:	446b      	add	r3, sp
100048f8:	6018      	str	r0, [r3, #0]
100048fa:	19c7      	adds	r7, r0, r7
100048fc:	4b8d      	ldr	r3, [pc, #564]	; (10004b34 <_ZN7Genshin9loadIconsEv+0x3368>)
100048fe:	446b      	add	r3, sp
10004900:	601f      	str	r7, [r3, #0]
10004902:	42a6      	cmp	r6, r4
10004904:	d00b      	beq.n	1000491e <_ZN7Genshin9loadIconsEv+0x3152>
10004906:	0003      	movs	r3, r0
10004908:	cc07      	ldmia	r4!, {r0, r1, r2}
1000490a:	c307      	stmia	r3!, {r0, r1, r2}
1000490c:	0018      	movs	r0, r3
1000490e:	e7f8      	b.n	10004902 <_ZN7Genshin9loadIconsEv+0x3136>
10004910:	4889      	ldr	r0, [pc, #548]	; (10004b38 <_ZN7Genshin9loadIconsEv+0x336c>)
10004912:	f00e fb43 	bl	10012f9c <_ZSt20__throw_length_errorPKc>
10004916:	f00e fb19 	bl	10012f4c <_ZSt17__throw_bad_allocv>
1000491a:	2000      	movs	r0, #0
1000491c:	e7ea      	b.n	100048f4 <_ZN7Genshin9loadIconsEv+0x3128>
1000491e:	4e81      	ldr	r6, [pc, #516]	; (10004b24 <_ZN7Genshin9loadIconsEv+0x3358>)
10004920:	446e      	add	r6, sp
10004922:	61f0      	str	r0, [r6, #28]
10004924:	2400      	movs	r4, #0
10004926:	9465      	str	r4, [sp, #404]	; 0x194
10004928:	9466      	str	r4, [sp, #408]	; 0x198
1000492a:	9467      	str	r4, [sp, #412]	; 0x19c
1000492c:	9468      	str	r4, [sp, #416]	; 0x1a0
1000492e:	9469      	str	r4, [sp, #420]	; 0x1a4
10004930:	946a      	str	r4, [sp, #424]	; 0x1a8
10004932:	233a      	movs	r3, #58	; 0x3a
10004934:	936b      	str	r3, [sp, #428]	; 0x1ac
10004936:	3b10      	subs	r3, #16
10004938:	936c      	str	r3, [sp, #432]	; 0x1b0
1000493a:	3b1e      	subs	r3, #30
1000493c:	936d      	str	r3, [sp, #436]	; 0x1b4
1000493e:	33cf      	adds	r3, #207	; 0xcf
10004940:	936e      	str	r3, [sp, #440]	; 0x1b8
10004942:	3b3c      	subs	r3, #60	; 0x3c
10004944:	936f      	str	r3, [sp, #444]	; 0x1bc
10004946:	3b74      	subs	r3, #116	; 0x74
10004948:	9370      	str	r3, [sp, #448]	; 0x1c0
1000494a:	33b9      	adds	r3, #185	; 0xb9
1000494c:	9371      	str	r3, [sp, #452]	; 0x1c4
1000494e:	3b3e      	subs	r3, #62	; 0x3e
10004950:	9372      	str	r3, [sp, #456]	; 0x1c8
10004952:	3b79      	subs	r3, #121	; 0x79
10004954:	9373      	str	r3, [sp, #460]	; 0x1cc
10004956:	3320      	adds	r3, #32
10004958:	9374      	str	r3, [sp, #464]	; 0x1d0
1000495a:	2237      	movs	r2, #55	; 0x37
1000495c:	9275      	str	r2, [sp, #468]	; 0x1d4
1000495e:	3b3f      	subs	r3, #63	; 0x3f
10004960:	9376      	str	r3, [sp, #472]	; 0x1d8
10004962:	214b      	movs	r1, #75	; 0x4b
10004964:	9177      	str	r1, [sp, #476]	; 0x1dc
10004966:	9278      	str	r2, [sp, #480]	; 0x1e0
10004968:	9379      	str	r3, [sp, #484]	; 0x1e4
1000496a:	33bc      	adds	r3, #188	; 0xbc
1000496c:	937a      	str	r3, [sp, #488]	; 0x1e8
1000496e:	3b37      	subs	r3, #55	; 0x37
10004970:	937b      	str	r3, [sp, #492]	; 0x1ec
10004972:	3b6a      	subs	r3, #106	; 0x6a
10004974:	937c      	str	r3, [sp, #496]	; 0x1f0
10004976:	330d      	adds	r3, #13
10004978:	937d      	str	r3, [sp, #500]	; 0x1f4
1000497a:	3b0f      	subs	r3, #15
1000497c:	937e      	str	r3, [sp, #504]	; 0x1f8
1000497e:	3b1d      	subs	r3, #29
10004980:	937f      	str	r3, [sp, #508]	; 0x1fc
10004982:	9480      	str	r4, [sp, #512]	; 0x200
10004984:	9481      	str	r4, [sp, #516]	; 0x204
10004986:	9482      	str	r4, [sp, #520]	; 0x208
10004988:	9483      	str	r4, [sp, #524]	; 0x20c
1000498a:	9484      	str	r4, [sp, #528]	; 0x210
1000498c:	3376      	adds	r3, #118	; 0x76
1000498e:	466a      	mov	r2, sp
10004990:	314a      	adds	r1, #74	; 0x4a
10004992:	31ff      	adds	r1, #255	; 0xff
10004994:	1852      	adds	r2, r2, r1
10004996:	50d4      	str	r4, [r2, r3]
10004998:	4968      	ldr	r1, [pc, #416]	; (10004b3c <_ZN7Genshin9loadIconsEv+0x3370>)
1000499a:	4469      	add	r1, sp
1000499c:	600a      	str	r2, [r1, #0]
1000499e:	230b      	movs	r3, #11
100049a0:	604b      	str	r3, [r1, #4]
100049a2:	27a6      	movs	r7, #166	; 0xa6
100049a4:	00ff      	lsls	r7, r7, #3
100049a6:	446f      	add	r7, sp
100049a8:	2208      	movs	r2, #8
100049aa:	0038      	movs	r0, r7
100049ac:	f008 f928 	bl	1000cc00 <__wrap___aeabi_memcpy>
100049b0:	6274      	str	r4, [r6, #36]	; 0x24
100049b2:	62b4      	str	r4, [r6, #40]	; 0x28
100049b4:	62f4      	str	r4, [r6, #44]	; 0x2c
100049b6:	683c      	ldr	r4, [r7, #0]
100049b8:	687b      	ldr	r3, [r7, #4]
100049ba:	005f      	lsls	r7, r3, #1
100049bc:	18ff      	adds	r7, r7, r3
100049be:	00bf      	lsls	r7, r7, #2
100049c0:	19e6      	adds	r6, r4, r7
100049c2:	10ba      	asrs	r2, r7, #2
100049c4:	18bb      	adds	r3, r7, r2
100049c6:	0118      	lsls	r0, r3, #4
100049c8:	181b      	adds	r3, r3, r0
100049ca:	0218      	lsls	r0, r3, #8
100049cc:	181b      	adds	r3, r3, r0
100049ce:	0418      	lsls	r0, r3, #16
100049d0:	1818      	adds	r0, r3, r0
100049d2:	0040      	lsls	r0, r0, #1
100049d4:	1880      	adds	r0, r0, r2
100049d6:	4a54      	ldr	r2, [pc, #336]	; (10004b28 <_ZN7Genshin9loadIconsEv+0x335c>)
100049d8:	4297      	cmp	r7, r2
100049da:	d813      	bhi.n	10004a04 <_ZN7Genshin9loadIconsEv+0x3238>
100049dc:	2800      	cmp	r0, #0
100049de:	d016      	beq.n	10004a0e <_ZN7Genshin9loadIconsEv+0x3242>
100049e0:	4a52      	ldr	r2, [pc, #328]	; (10004b2c <_ZN7Genshin9loadIconsEv+0x3360>)
100049e2:	4290      	cmp	r0, r2
100049e4:	d811      	bhi.n	10004a0a <_ZN7Genshin9loadIconsEv+0x323e>
100049e6:	0043      	lsls	r3, r0, #1
100049e8:	1818      	adds	r0, r3, r0
100049ea:	0080      	lsls	r0, r0, #2
100049ec:	f008 f90e 	bl	1000cc0c <_Znwj>
100049f0:	23bb      	movs	r3, #187	; 0xbb
100049f2:	00db      	lsls	r3, r3, #3
100049f4:	446b      	add	r3, sp
100049f6:	6018      	str	r0, [r3, #0]
100049f8:	19c7      	adds	r7, r0, r7
100049fa:	23bc      	movs	r3, #188	; 0xbc
100049fc:	00db      	lsls	r3, r3, #3
100049fe:	446b      	add	r3, sp
10004a00:	601f      	str	r7, [r3, #0]
10004a02:	e00a      	b.n	10004a1a <_ZN7Genshin9loadIconsEv+0x324e>
10004a04:	484c      	ldr	r0, [pc, #304]	; (10004b38 <_ZN7Genshin9loadIconsEv+0x336c>)
10004a06:	f00e fac9 	bl	10012f9c <_ZSt20__throw_length_errorPKc>
10004a0a:	f00e fa9f 	bl	10012f4c <_ZSt17__throw_bad_allocv>
10004a0e:	2000      	movs	r0, #0
10004a10:	e7ee      	b.n	100049f0 <_ZN7Genshin9loadIconsEv+0x3224>
10004a12:	0003      	movs	r3, r0
10004a14:	cc07      	ldmia	r4!, {r0, r1, r2}
10004a16:	c307      	stmia	r3!, {r0, r1, r2}
10004a18:	0018      	movs	r0, r3
10004a1a:	42a6      	cmp	r6, r4
10004a1c:	d1f9      	bne.n	10004a12 <_ZN7Genshin9loadIconsEv+0x3246>
10004a1e:	4e41      	ldr	r6, [pc, #260]	; (10004b24 <_ZN7Genshin9loadIconsEv+0x3358>)
10004a20:	446e      	add	r6, sp
10004a22:	62b0      	str	r0, [r6, #40]	; 0x28
10004a24:	2400      	movs	r4, #0
10004a26:	9486      	str	r4, [sp, #536]	; 0x218
10004a28:	9487      	str	r4, [sp, #540]	; 0x21c
10004a2a:	9488      	str	r4, [sp, #544]	; 0x220
10004a2c:	212a      	movs	r1, #42	; 0x2a
10004a2e:	9189      	str	r1, [sp, #548]	; 0x224
10004a30:	231f      	movs	r3, #31
10004a32:	938a      	str	r3, [sp, #552]	; 0x228
10004a34:	2208      	movs	r2, #8
10004a36:	928b      	str	r2, [sp, #556]	; 0x22c
10004a38:	2092      	movs	r0, #146	; 0x92
10004a3a:	908c      	str	r0, [sp, #560]	; 0x230
10004a3c:	3829      	subs	r0, #41	; 0x29
10004a3e:	908d      	str	r0, [sp, #564]	; 0x234
10004a40:	384c      	subs	r0, #76	; 0x4c
10004a42:	908e      	str	r0, [sp, #568]	; 0x238
10004a44:	3042      	adds	r0, #66	; 0x42
10004a46:	908f      	str	r0, [sp, #572]	; 0x23c
10004a48:	381b      	subs	r0, #27
10004a4a:	9090      	str	r0, [sp, #576]	; 0x240
10004a4c:	3831      	subs	r0, #49	; 0x31
10004a4e:	9091      	str	r0, [sp, #580]	; 0x244
10004a50:	307d      	adds	r0, #125	; 0x7d
10004a52:	9092      	str	r0, [sp, #584]	; 0x248
10004a54:	3828      	subs	r0, #40	; 0x28
10004a56:	9093      	str	r0, [sp, #588]	; 0x24c
10004a58:	384c      	subs	r0, #76	; 0x4c
10004a5a:	9094      	str	r0, [sp, #592]	; 0x250
10004a5c:	3083      	adds	r0, #131	; 0x83
10004a5e:	9095      	str	r0, [sp, #596]	; 0x254
10004a60:	382c      	subs	r0, #44	; 0x2c
10004a62:	9096      	str	r0, [sp, #600]	; 0x258
10004a64:	9397      	str	r3, [sp, #604]	; 0x25c
10004a66:	303d      	adds	r0, #61	; 0x3d
10004a68:	9098      	str	r0, [sp, #608]	; 0x260
10004a6a:	382f      	subs	r0, #47	; 0x2f
10004a6c:	9099      	str	r0, [sp, #612]	; 0x264
10004a6e:	385f      	subs	r0, #95	; 0x5f
10004a70:	909a      	str	r0, [sp, #616]	; 0x268
10004a72:	3016      	adds	r0, #22
10004a74:	909b      	str	r0, [sp, #620]	; 0x26c
10004a76:	3810      	subs	r0, #16
10004a78:	909c      	str	r0, [sp, #624]	; 0x270
10004a7a:	381e      	subs	r0, #30
10004a7c:	909d      	str	r0, [sp, #628]	; 0x274
10004a7e:	3093      	adds	r0, #147	; 0x93
10004a80:	909e      	str	r0, [sp, #632]	; 0x278
10004a82:	382b      	subs	r0, #43	; 0x2b
10004a84:	909f      	str	r0, [sp, #636]	; 0x27c
10004a86:	3852      	subs	r0, #82	; 0x52
10004a88:	90a0      	str	r0, [sp, #640]	; 0x280
10004a8a:	91a1      	str	r1, [sp, #644]	; 0x284
10004a8c:	93a2      	str	r3, [sp, #648]	; 0x288
10004a8e:	92a3      	str	r2, [sp, #652]	; 0x28c
10004a90:	94a4      	str	r4, [sp, #656]	; 0x290
10004a92:	94a5      	str	r4, [sp, #660]	; 0x294
10004a94:	3361      	adds	r3, #97	; 0x61
10004a96:	466a      	mov	r2, sp
10004a98:	31ef      	adds	r1, #239	; 0xef
10004a9a:	31ff      	adds	r1, #255	; 0xff
10004a9c:	1852      	adds	r2, r2, r1
10004a9e:	50d4      	str	r4, [r2, r3]
10004aa0:	2184      	movs	r1, #132	; 0x84
10004aa2:	0109      	lsls	r1, r1, #4
10004aa4:	4469      	add	r1, sp
10004aa6:	600a      	str	r2, [r1, #0]
10004aa8:	230b      	movs	r3, #11
10004aaa:	604b      	str	r3, [r1, #4]
10004aac:	27a6      	movs	r7, #166	; 0xa6
10004aae:	00ff      	lsls	r7, r7, #3
10004ab0:	446f      	add	r7, sp
10004ab2:	2208      	movs	r2, #8
10004ab4:	0038      	movs	r0, r7
10004ab6:	f008 f8a3 	bl	1000cc00 <__wrap___aeabi_memcpy>
10004aba:	6334      	str	r4, [r6, #48]	; 0x30
10004abc:	6374      	str	r4, [r6, #52]	; 0x34
10004abe:	63b4      	str	r4, [r6, #56]	; 0x38
10004ac0:	683c      	ldr	r4, [r7, #0]
10004ac2:	687b      	ldr	r3, [r7, #4]
10004ac4:	005f      	lsls	r7, r3, #1
10004ac6:	18ff      	adds	r7, r7, r3
10004ac8:	00bf      	lsls	r7, r7, #2
10004aca:	19e6      	adds	r6, r4, r7
10004acc:	10ba      	asrs	r2, r7, #2
10004ace:	18bb      	adds	r3, r7, r2
10004ad0:	0118      	lsls	r0, r3, #4
10004ad2:	181b      	adds	r3, r3, r0
10004ad4:	0218      	lsls	r0, r3, #8
10004ad6:	181b      	adds	r3, r3, r0
10004ad8:	0418      	lsls	r0, r3, #16
10004ada:	1818      	adds	r0, r3, r0
10004adc:	0040      	lsls	r0, r0, #1
10004ade:	1880      	adds	r0, r0, r2
10004ae0:	4a11      	ldr	r2, [pc, #68]	; (10004b28 <_ZN7Genshin9loadIconsEv+0x335c>)
10004ae2:	4297      	cmp	r7, r2
10004ae4:	d817      	bhi.n	10004b16 <_ZN7Genshin9loadIconsEv+0x334a>
10004ae6:	2800      	cmp	r0, #0
10004ae8:	d01a      	beq.n	10004b20 <_ZN7Genshin9loadIconsEv+0x3354>
10004aea:	4a10      	ldr	r2, [pc, #64]	; (10004b2c <_ZN7Genshin9loadIconsEv+0x3360>)
10004aec:	4290      	cmp	r0, r2
10004aee:	d815      	bhi.n	10004b1c <_ZN7Genshin9loadIconsEv+0x3350>
10004af0:	0043      	lsls	r3, r0, #1
10004af2:	1818      	adds	r0, r3, r0
10004af4:	0080      	lsls	r0, r0, #2
10004af6:	f008 f889 	bl	1000cc0c <_Znwj>
10004afa:	4b11      	ldr	r3, [pc, #68]	; (10004b40 <_ZN7Genshin9loadIconsEv+0x3374>)
10004afc:	446b      	add	r3, sp
10004afe:	6018      	str	r0, [r3, #0]
10004b00:	19c7      	adds	r7, r0, r7
10004b02:	4b10      	ldr	r3, [pc, #64]	; (10004b44 <_ZN7Genshin9loadIconsEv+0x3378>)
10004b04:	446b      	add	r3, sp
10004b06:	601f      	str	r7, [r3, #0]
10004b08:	42a6      	cmp	r6, r4
10004b0a:	d01d      	beq.n	10004b48 <_ZN7Genshin9loadIconsEv+0x337c>
10004b0c:	0003      	movs	r3, r0
10004b0e:	cc07      	ldmia	r4!, {r0, r1, r2}
10004b10:	c307      	stmia	r3!, {r0, r1, r2}
10004b12:	0018      	movs	r0, r3
10004b14:	e7f8      	b.n	10004b08 <_ZN7Genshin9loadIconsEv+0x333c>
10004b16:	4808      	ldr	r0, [pc, #32]	; (10004b38 <_ZN7Genshin9loadIconsEv+0x336c>)
10004b18:	f00e fa40 	bl	10012f9c <_ZSt20__throw_length_errorPKc>
10004b1c:	f00e fa16 	bl	10012f4c <_ZSt17__throw_bad_allocv>
10004b20:	2000      	movs	r0, #0
10004b22:	e7ea      	b.n	10004afa <_ZN7Genshin9loadIconsEv+0x332e>
10004b24:	000005b4 	.word	0x000005b4
10004b28:	7ffffff8 	.word	0x7ffffff8
10004b2c:	0aaaaaaa 	.word	0x0aaaaaaa
10004b30:	000005cc 	.word	0x000005cc
10004b34:	000005d4 	.word	0x000005d4
10004b38:	1001c394 	.word	0x1001c394
10004b3c:	00000838 	.word	0x00000838
10004b40:	000005e4 	.word	0x000005e4
10004b44:	000005ec 	.word	0x000005ec
10004b48:	4ebf      	ldr	r6, [pc, #764]	; (10004e48 <_ZN7Genshin9loadIconsEv+0x367c>)
10004b4a:	446e      	add	r6, sp
10004b4c:	6370      	str	r0, [r6, #52]	; 0x34
10004b4e:	2400      	movs	r4, #0
10004b50:	94a7      	str	r4, [sp, #668]	; 0x29c
10004b52:	94a8      	str	r4, [sp, #672]	; 0x2a0
10004b54:	94a9      	str	r4, [sp, #676]	; 0x2a4
10004b56:	2380      	movs	r3, #128	; 0x80
10004b58:	4698      	mov	r8, r3
10004b5a:	93aa      	str	r3, [sp, #680]	; 0x2a8
10004b5c:	3b22      	subs	r3, #34	; 0x22
10004b5e:	93ab      	str	r3, [sp, #684]	; 0x2ac
10004b60:	3b45      	subs	r3, #69	; 0x45
10004b62:	93ac      	str	r3, [sp, #688]	; 0x2b0
10004b64:	2007      	movs	r0, #7
10004b66:	90ad      	str	r0, [sp, #692]	; 0x2b4
10004b68:	2104      	movs	r1, #4
10004b6a:	91ae      	str	r1, [sp, #696]	; 0x2b8
10004b6c:	94af      	str	r4, [sp, #700]	; 0x2bc
10004b6e:	33bb      	adds	r3, #187	; 0xbb
10004b70:	93b0      	str	r3, [sp, #704]	; 0x2c0
10004b72:	3b3a      	subs	r3, #58	; 0x3a
10004b74:	93b1      	str	r3, [sp, #708]	; 0x2c4
10004b76:	3b6f      	subs	r3, #111	; 0x6f
10004b78:	93b2      	str	r3, [sp, #712]	; 0x2c8
10004b7a:	273b      	movs	r7, #59	; 0x3b
10004b7c:	97b3      	str	r7, [sp, #716]	; 0x2cc
10004b7e:	93b4      	str	r3, [sp, #720]	; 0x2d0
10004b80:	3b20      	subs	r3, #32
10004b82:	93b5      	str	r3, [sp, #724]	; 0x2d4
10004b84:	97b6      	str	r7, [sp, #728]	; 0x2d8
10004b86:	3f0f      	subs	r7, #15
10004b88:	97b7      	str	r7, [sp, #732]	; 0x2dc
10004b8a:	93b8      	str	r3, [sp, #736]	; 0x2e0
10004b8c:	223d      	movs	r2, #61	; 0x3d
10004b8e:	92b9      	str	r2, [sp, #740]	; 0x2e4
10004b90:	97ba      	str	r7, [sp, #744]	; 0x2e8
10004b92:	93bb      	str	r3, [sp, #748]	; 0x2ec
10004b94:	37a9      	adds	r7, #169	; 0xa9
10004b96:	97bc      	str	r7, [sp, #752]	; 0x2f0
10004b98:	3f3a      	subs	r7, #58	; 0x3a
10004b9a:	97bd      	str	r7, [sp, #756]	; 0x2f4
10004b9c:	3f71      	subs	r7, #113	; 0x71
10004b9e:	97be      	str	r7, [sp, #760]	; 0x2f8
10004ba0:	90bf      	str	r0, [sp, #764]	; 0x2fc
10004ba2:	91c0      	str	r1, [sp, #768]	; 0x300
10004ba4:	94c1      	str	r4, [sp, #772]	; 0x304
10004ba6:	317b      	adds	r1, #123	; 0x7b
10004ba8:	91c2      	str	r1, [sp, #776]	; 0x308
10004baa:	3923      	subs	r1, #35	; 0x23
10004bac:	91c3      	str	r1, [sp, #780]	; 0x30c
10004bae:	3942      	subs	r1, #66	; 0x42
10004bb0:	91c4      	str	r1, [sp, #784]	; 0x310
10004bb2:	94c5      	str	r4, [sp, #788]	; 0x314
10004bb4:	94c6      	str	r4, [sp, #792]	; 0x318
10004bb6:	466a      	mov	r2, sp
10004bb8:	21a7      	movs	r1, #167	; 0xa7
10004bba:	0089      	lsls	r1, r1, #2
10004bbc:	1852      	adds	r2, r2, r1
10004bbe:	4641      	mov	r1, r8
10004bc0:	5054      	str	r4, [r2, r1]
10004bc2:	49a2      	ldr	r1, [pc, #648]	; (10004e4c <_ZN7Genshin9loadIconsEv+0x3680>)
10004bc4:	4469      	add	r1, sp
10004bc6:	600a      	str	r2, [r1, #0]
10004bc8:	604b      	str	r3, [r1, #4]
10004bca:	27a6      	movs	r7, #166	; 0xa6
10004bcc:	00ff      	lsls	r7, r7, #3
10004bce:	446f      	add	r7, sp
10004bd0:	2208      	movs	r2, #8
10004bd2:	0038      	movs	r0, r7
10004bd4:	f008 f814 	bl	1000cc00 <__wrap___aeabi_memcpy>
10004bd8:	63f4      	str	r4, [r6, #60]	; 0x3c
10004bda:	6434      	str	r4, [r6, #64]	; 0x40
10004bdc:	6474      	str	r4, [r6, #68]	; 0x44
10004bde:	683c      	ldr	r4, [r7, #0]
10004be0:	687b      	ldr	r3, [r7, #4]
10004be2:	005f      	lsls	r7, r3, #1
10004be4:	18ff      	adds	r7, r7, r3
10004be6:	00bf      	lsls	r7, r7, #2
10004be8:	19e6      	adds	r6, r4, r7
10004bea:	10ba      	asrs	r2, r7, #2
10004bec:	18bb      	adds	r3, r7, r2
10004bee:	0118      	lsls	r0, r3, #4
10004bf0:	181b      	adds	r3, r3, r0
10004bf2:	0218      	lsls	r0, r3, #8
10004bf4:	181b      	adds	r3, r3, r0
10004bf6:	0418      	lsls	r0, r3, #16
10004bf8:	1818      	adds	r0, r3, r0
10004bfa:	0040      	lsls	r0, r0, #1
10004bfc:	1880      	adds	r0, r0, r2
10004bfe:	4a94      	ldr	r2, [pc, #592]	; (10004e50 <_ZN7Genshin9loadIconsEv+0x3684>)
10004c00:	4297      	cmp	r7, r2
10004c02:	d819      	bhi.n	10004c38 <_ZN7Genshin9loadIconsEv+0x346c>
10004c04:	2800      	cmp	r0, #0
10004c06:	d01c      	beq.n	10004c42 <_ZN7Genshin9loadIconsEv+0x3476>
10004c08:	4a92      	ldr	r2, [pc, #584]	; (10004e54 <_ZN7Genshin9loadIconsEv+0x3688>)
10004c0a:	4290      	cmp	r0, r2
10004c0c:	d817      	bhi.n	10004c3e <_ZN7Genshin9loadIconsEv+0x3472>
10004c0e:	0043      	lsls	r3, r0, #1
10004c10:	1818      	adds	r0, r3, r0
10004c12:	0080      	lsls	r0, r0, #2
10004c14:	f007 fffa 	bl	1000cc0c <_Znwj>
10004c18:	23be      	movs	r3, #190	; 0xbe
10004c1a:	00db      	lsls	r3, r3, #3
10004c1c:	446b      	add	r3, sp
10004c1e:	6018      	str	r0, [r3, #0]
10004c20:	19c7      	adds	r7, r0, r7
10004c22:	23bf      	movs	r3, #191	; 0xbf
10004c24:	00db      	lsls	r3, r3, #3
10004c26:	446b      	add	r3, sp
10004c28:	601f      	str	r7, [r3, #0]
10004c2a:	42a6      	cmp	r6, r4
10004c2c:	d00b      	beq.n	10004c46 <_ZN7Genshin9loadIconsEv+0x347a>
10004c2e:	0003      	movs	r3, r0
10004c30:	cc07      	ldmia	r4!, {r0, r1, r2}
10004c32:	c307      	stmia	r3!, {r0, r1, r2}
10004c34:	0018      	movs	r0, r3
10004c36:	e7f8      	b.n	10004c2a <_ZN7Genshin9loadIconsEv+0x345e>
10004c38:	4887      	ldr	r0, [pc, #540]	; (10004e58 <_ZN7Genshin9loadIconsEv+0x368c>)
10004c3a:	f00e f9af 	bl	10012f9c <_ZSt20__throw_length_errorPKc>
10004c3e:	f00e f985 	bl	10012f4c <_ZSt17__throw_bad_allocv>
10004c42:	2000      	movs	r0, #0
10004c44:	e7e8      	b.n	10004c18 <_ZN7Genshin9loadIconsEv+0x344c>
10004c46:	4e80      	ldr	r6, [pc, #512]	; (10004e48 <_ZN7Genshin9loadIconsEv+0x367c>)
10004c48:	446e      	add	r6, sp
10004c4a:	6430      	str	r0, [r6, #64]	; 0x40
10004c4c:	2400      	movs	r4, #0
10004c4e:	94c8      	str	r4, [sp, #800]	; 0x320
10004c50:	94c9      	str	r4, [sp, #804]	; 0x324
10004c52:	94ca      	str	r4, [sp, #808]	; 0x328
10004c54:	232a      	movs	r3, #42	; 0x2a
10004c56:	93cb      	str	r3, [sp, #812]	; 0x32c
10004c58:	3b0b      	subs	r3, #11
10004c5a:	93cc      	str	r3, [sp, #816]	; 0x330
10004c5c:	2208      	movs	r2, #8
10004c5e:	92cd      	str	r2, [sp, #820]	; 0x334
10004c60:	3296      	adds	r2, #150	; 0x96
10004c62:	92ce      	str	r2, [sp, #824]	; 0x338
10004c64:	3a2a      	subs	r2, #42	; 0x2a
10004c66:	92cf      	str	r2, [sp, #828]	; 0x33c
10004c68:	93d0      	str	r3, [sp, #832]	; 0x340
10004c6a:	3a3b      	subs	r2, #59	; 0x3b
10004c6c:	92d1      	str	r2, [sp, #836]	; 0x344
10004c6e:	3a11      	subs	r2, #17
10004c70:	92d2      	str	r2, [sp, #840]	; 0x348
10004c72:	3a1e      	subs	r2, #30
10004c74:	92d3      	str	r2, [sp, #844]	; 0x34c
10004c76:	32a6      	adds	r2, #166	; 0xa6
10004c78:	92d4      	str	r2, [sp, #848]	; 0x350
10004c7a:	3a2f      	subs	r2, #47	; 0x2f
10004c7c:	92d5      	str	r2, [sp, #852]	; 0x354
10004c7e:	3a5f      	subs	r2, #95	; 0x5f
10004c80:	92d6      	str	r2, [sp, #856]	; 0x358
10004c82:	327d      	adds	r2, #125	; 0x7d
10004c84:	92d7      	str	r2, [sp, #860]	; 0x35c
10004c86:	3a2c      	subs	r2, #44	; 0x2c
10004c88:	92d8      	str	r2, [sp, #864]	; 0x360
10004c8a:	93d9      	str	r3, [sp, #868]	; 0x364
10004c8c:	3220      	adds	r2, #32
10004c8e:	92da      	str	r2, [sp, #872]	; 0x368
10004c90:	3a28      	subs	r2, #40	; 0x28
10004c92:	92db      	str	r2, [sp, #876]	; 0x36c
10004c94:	3a4f      	subs	r2, #79	; 0x4f
10004c96:	92dc      	str	r2, [sp, #880]	; 0x370
10004c98:	3244      	adds	r2, #68	; 0x44
10004c9a:	92dd      	str	r2, [sp, #884]	; 0x374
10004c9c:	3a1b      	subs	r2, #27
10004c9e:	92de      	str	r2, [sp, #888]	; 0x378
10004ca0:	3a33      	subs	r2, #51	; 0x33
10004ca2:	92df      	str	r2, [sp, #892]	; 0x37c
10004ca4:	3280      	adds	r2, #128	; 0x80
10004ca6:	92e0      	str	r2, [sp, #896]	; 0x380
10004ca8:	3a29      	subs	r2, #41	; 0x29
10004caa:	92e1      	str	r2, [sp, #900]	; 0x384
10004cac:	3a4c      	subs	r2, #76	; 0x4c
10004cae:	92e2      	str	r2, [sp, #904]	; 0x388
10004cb0:	320c      	adds	r2, #12
10004cb2:	92e3      	str	r2, [sp, #908]	; 0x38c
10004cb4:	93e4      	str	r3, [sp, #912]	; 0x390
10004cb6:	3b18      	subs	r3, #24
10004cb8:	93e5      	str	r3, [sp, #916]	; 0x394
10004cba:	94e6      	str	r4, [sp, #920]	; 0x398
10004cbc:	94e7      	str	r4, [sp, #924]	; 0x39c
10004cbe:	3379      	adds	r3, #121	; 0x79
10004cc0:	466a      	mov	r2, sp
10004cc2:	21c8      	movs	r1, #200	; 0xc8
10004cc4:	0089      	lsls	r1, r1, #2
10004cc6:	1852      	adds	r2, r2, r1
10004cc8:	50d4      	str	r4, [r2, r3]
10004cca:	2185      	movs	r1, #133	; 0x85
10004ccc:	0109      	lsls	r1, r1, #4
10004cce:	4469      	add	r1, sp
10004cd0:	600a      	str	r2, [r1, #0]
10004cd2:	230b      	movs	r3, #11
10004cd4:	604b      	str	r3, [r1, #4]
10004cd6:	27a6      	movs	r7, #166	; 0xa6
10004cd8:	00ff      	lsls	r7, r7, #3
10004cda:	446f      	add	r7, sp
10004cdc:	2208      	movs	r2, #8
10004cde:	0038      	movs	r0, r7
10004ce0:	f007 ff8e 	bl	1000cc00 <__wrap___aeabi_memcpy>
10004ce4:	64b4      	str	r4, [r6, #72]	; 0x48
10004ce6:	64f4      	str	r4, [r6, #76]	; 0x4c
10004ce8:	6534      	str	r4, [r6, #80]	; 0x50
10004cea:	683c      	ldr	r4, [r7, #0]
10004cec:	687b      	ldr	r3, [r7, #4]
10004cee:	005f      	lsls	r7, r3, #1
10004cf0:	18ff      	adds	r7, r7, r3
10004cf2:	00bf      	lsls	r7, r7, #2
10004cf4:	19e6      	adds	r6, r4, r7
10004cf6:	10ba      	asrs	r2, r7, #2
10004cf8:	18bb      	adds	r3, r7, r2
10004cfa:	0118      	lsls	r0, r3, #4
10004cfc:	181b      	adds	r3, r3, r0
10004cfe:	0218      	lsls	r0, r3, #8
10004d00:	181b      	adds	r3, r3, r0
10004d02:	0418      	lsls	r0, r3, #16
10004d04:	1818      	adds	r0, r3, r0
10004d06:	0040      	lsls	r0, r0, #1
10004d08:	1880      	adds	r0, r0, r2
10004d0a:	4a51      	ldr	r2, [pc, #324]	; (10004e50 <_ZN7Genshin9loadIconsEv+0x3684>)
10004d0c:	4297      	cmp	r7, r2
10004d0e:	d817      	bhi.n	10004d40 <_ZN7Genshin9loadIconsEv+0x3574>
10004d10:	2800      	cmp	r0, #0
10004d12:	d01a      	beq.n	10004d4a <_ZN7Genshin9loadIconsEv+0x357e>
10004d14:	4a4f      	ldr	r2, [pc, #316]	; (10004e54 <_ZN7Genshin9loadIconsEv+0x3688>)
10004d16:	4290      	cmp	r0, r2
10004d18:	d815      	bhi.n	10004d46 <_ZN7Genshin9loadIconsEv+0x357a>
10004d1a:	0043      	lsls	r3, r0, #1
10004d1c:	1818      	adds	r0, r3, r0
10004d1e:	0080      	lsls	r0, r0, #2
10004d20:	f007 ff74 	bl	1000cc0c <_Znwj>
10004d24:	4b4d      	ldr	r3, [pc, #308]	; (10004e5c <_ZN7Genshin9loadIconsEv+0x3690>)
10004d26:	446b      	add	r3, sp
10004d28:	6018      	str	r0, [r3, #0]
10004d2a:	19c7      	adds	r7, r0, r7
10004d2c:	4b4c      	ldr	r3, [pc, #304]	; (10004e60 <_ZN7Genshin9loadIconsEv+0x3694>)
10004d2e:	446b      	add	r3, sp
10004d30:	601f      	str	r7, [r3, #0]
10004d32:	42a6      	cmp	r6, r4
10004d34:	d00b      	beq.n	10004d4e <_ZN7Genshin9loadIconsEv+0x3582>
10004d36:	0003      	movs	r3, r0
10004d38:	cc07      	ldmia	r4!, {r0, r1, r2}
10004d3a:	c307      	stmia	r3!, {r0, r1, r2}
10004d3c:	0018      	movs	r0, r3
10004d3e:	e7f8      	b.n	10004d32 <_ZN7Genshin9loadIconsEv+0x3566>
10004d40:	4845      	ldr	r0, [pc, #276]	; (10004e58 <_ZN7Genshin9loadIconsEv+0x368c>)
10004d42:	f00e f92b 	bl	10012f9c <_ZSt20__throw_length_errorPKc>
10004d46:	f00e f901 	bl	10012f4c <_ZSt17__throw_bad_allocv>
10004d4a:	2000      	movs	r0, #0
10004d4c:	e7ea      	b.n	10004d24 <_ZN7Genshin9loadIconsEv+0x3558>
10004d4e:	4c3e      	ldr	r4, [pc, #248]	; (10004e48 <_ZN7Genshin9loadIconsEv+0x367c>)
10004d50:	446c      	add	r4, sp
10004d52:	64e0      	str	r0, [r4, #76]	; 0x4c
10004d54:	abe9      	add	r3, sp, #932	; 0x3a4
10004d56:	2600      	movs	r6, #0
10004d58:	96e9      	str	r6, [sp, #932]	; 0x3a4
10004d5a:	605e      	str	r6, [r3, #4]
10004d5c:	609e      	str	r6, [r3, #8]
10004d5e:	60de      	str	r6, [r3, #12]
10004d60:	611e      	str	r6, [r3, #16]
10004d62:	615e      	str	r6, [r3, #20]
10004d64:	2138      	movs	r1, #56	; 0x38
10004d66:	6199      	str	r1, [r3, #24]
10004d68:	2228      	movs	r2, #40	; 0x28
10004d6a:	61da      	str	r2, [r3, #28]
10004d6c:	200a      	movs	r0, #10
10004d6e:	4680      	mov	r8, r0
10004d70:	6218      	str	r0, [r3, #32]
10004d72:	27cb      	movs	r7, #203	; 0xcb
10004d74:	625f      	str	r7, [r3, #36]	; 0x24
10004d76:	3f38      	subs	r7, #56	; 0x38
10004d78:	629f      	str	r7, [r3, #40]	; 0x28
10004d7a:	62da      	str	r2, [r3, #44]	; 0x2c
10004d7c:	3f46      	subs	r7, #70	; 0x46
10004d7e:	46bc      	mov	ip, r7
10004d80:	631f      	str	r7, [r3, #48]	; 0x30
10004d82:	6359      	str	r1, [r3, #52]	; 0x34
10004d84:	3f3f      	subs	r7, #63	; 0x3f
10004d86:	639f      	str	r7, [r3, #56]	; 0x38
10004d88:	4660      	mov	r0, ip
10004d8a:	63d8      	str	r0, [r3, #60]	; 0x3c
10004d8c:	3816      	subs	r0, #22
10004d8e:	6418      	str	r0, [r3, #64]	; 0x40
10004d90:	645f      	str	r7, [r3, #68]	; 0x44
10004d92:	37d6      	adds	r7, #214	; 0xd6
10004d94:	649f      	str	r7, [r3, #72]	; 0x48
10004d96:	3f3e      	subs	r7, #62	; 0x3e
10004d98:	64df      	str	r7, [r3, #76]	; 0x4c
10004d9a:	3f79      	subs	r7, #121	; 0x79
10004d9c:	651f      	str	r7, [r3, #80]	; 0x50
10004d9e:	37ae      	adds	r7, #174	; 0xae
10004da0:	655f      	str	r7, [r3, #84]	; 0x54
10004da2:	3f3c      	subs	r7, #60	; 0x3c
10004da4:	659f      	str	r7, [r3, #88]	; 0x58
10004da6:	3f74      	subs	r7, #116	; 0x74
10004da8:	65df      	str	r7, [r3, #92]	; 0x5c
10004daa:	6619      	str	r1, [r3, #96]	; 0x60
10004dac:	665a      	str	r2, [r3, #100]	; 0x64
10004dae:	4642      	mov	r2, r8
10004db0:	669a      	str	r2, [r3, #104]	; 0x68
10004db2:	66de      	str	r6, [r3, #108]	; 0x6c
10004db4:	671e      	str	r6, [r3, #112]	; 0x70
10004db6:	675e      	str	r6, [r3, #116]	; 0x74
10004db8:	679e      	str	r6, [r3, #120]	; 0x78
10004dba:	67de      	str	r6, [r3, #124]	; 0x7c
10004dbc:	3276      	adds	r2, #118	; 0x76
10004dbe:	509e      	str	r6, [r3, r2]
10004dc0:	4928      	ldr	r1, [pc, #160]	; (10004e64 <_ZN7Genshin9loadIconsEv+0x3698>)
10004dc2:	4469      	add	r1, sp
10004dc4:	600b      	str	r3, [r1, #0]
10004dc6:	230b      	movs	r3, #11
10004dc8:	604b      	str	r3, [r1, #4]
10004dca:	27a6      	movs	r7, #166	; 0xa6
10004dcc:	00ff      	lsls	r7, r7, #3
10004dce:	446f      	add	r7, sp
10004dd0:	2208      	movs	r2, #8
10004dd2:	0038      	movs	r0, r7
10004dd4:	f007 ff14 	bl	1000cc00 <__wrap___aeabi_memcpy>
10004dd8:	6566      	str	r6, [r4, #84]	; 0x54
10004dda:	65a6      	str	r6, [r4, #88]	; 0x58
10004ddc:	65e6      	str	r6, [r4, #92]	; 0x5c
10004dde:	683c      	ldr	r4, [r7, #0]
10004de0:	687b      	ldr	r3, [r7, #4]
10004de2:	005f      	lsls	r7, r3, #1
10004de4:	18ff      	adds	r7, r7, r3
10004de6:	00bf      	lsls	r7, r7, #2
10004de8:	19e6      	adds	r6, r4, r7
10004dea:	10ba      	asrs	r2, r7, #2
10004dec:	18bb      	adds	r3, r7, r2
10004dee:	0118      	lsls	r0, r3, #4
10004df0:	181b      	adds	r3, r3, r0
10004df2:	0218      	lsls	r0, r3, #8
10004df4:	181b      	adds	r3, r3, r0
10004df6:	0418      	lsls	r0, r3, #16
10004df8:	1818      	adds	r0, r3, r0
10004dfa:	0040      	lsls	r0, r0, #1
10004dfc:	1880      	adds	r0, r0, r2
10004dfe:	4a14      	ldr	r2, [pc, #80]	; (10004e50 <_ZN7Genshin9loadIconsEv+0x3684>)
10004e00:	4297      	cmp	r7, r2
10004e02:	d819      	bhi.n	10004e38 <_ZN7Genshin9loadIconsEv+0x366c>
10004e04:	2800      	cmp	r0, #0
10004e06:	d01c      	beq.n	10004e42 <_ZN7Genshin9loadIconsEv+0x3676>
10004e08:	4a12      	ldr	r2, [pc, #72]	; (10004e54 <_ZN7Genshin9loadIconsEv+0x3688>)
10004e0a:	4290      	cmp	r0, r2
10004e0c:	d817      	bhi.n	10004e3e <_ZN7Genshin9loadIconsEv+0x3672>
10004e0e:	0043      	lsls	r3, r0, #1
10004e10:	1818      	adds	r0, r3, r0
10004e12:	0080      	lsls	r0, r0, #2
10004e14:	f007 fefa 	bl	1000cc0c <_Znwj>
10004e18:	23c1      	movs	r3, #193	; 0xc1
10004e1a:	00db      	lsls	r3, r3, #3
10004e1c:	446b      	add	r3, sp
10004e1e:	6018      	str	r0, [r3, #0]
10004e20:	19c7      	adds	r7, r0, r7
10004e22:	23c2      	movs	r3, #194	; 0xc2
10004e24:	00db      	lsls	r3, r3, #3
10004e26:	446b      	add	r3, sp
10004e28:	601f      	str	r7, [r3, #0]
10004e2a:	42a6      	cmp	r6, r4
10004e2c:	d01c      	beq.n	10004e68 <_ZN7Genshin9loadIconsEv+0x369c>
10004e2e:	0003      	movs	r3, r0
10004e30:	cc07      	ldmia	r4!, {r0, r1, r2}
10004e32:	c307      	stmia	r3!, {r0, r1, r2}
10004e34:	0018      	movs	r0, r3
10004e36:	e7f8      	b.n	10004e2a <_ZN7Genshin9loadIconsEv+0x365e>
10004e38:	4807      	ldr	r0, [pc, #28]	; (10004e58 <_ZN7Genshin9loadIconsEv+0x368c>)
10004e3a:	f00e f8af 	bl	10012f9c <_ZSt20__throw_length_errorPKc>
10004e3e:	f00e f885 	bl	10012f4c <_ZSt17__throw_bad_allocv>
10004e42:	2000      	movs	r0, #0
10004e44:	e7e8      	b.n	10004e18 <_ZN7Genshin9loadIconsEv+0x364c>
10004e46:	46c0      	nop			; (mov r8, r8)
10004e48:	000005b4 	.word	0x000005b4
10004e4c:	00000848 	.word	0x00000848
10004e50:	7ffffff8 	.word	0x7ffffff8
10004e54:	0aaaaaaa 	.word	0x0aaaaaaa
10004e58:	1001c394 	.word	0x1001c394
10004e5c:	000005fc 	.word	0x000005fc
10004e60:	00000604 	.word	0x00000604
10004e64:	00000858 	.word	0x00000858
10004e68:	4ccd      	ldr	r4, [pc, #820]	; (100051a0 <_ZN7Genshin9loadIconsEv+0x39d4>)
10004e6a:	446c      	add	r4, sp
10004e6c:	65a0      	str	r0, [r4, #88]	; 0x58
10004e6e:	abff      	add	r3, sp, #1020	; 0x3fc
10004e70:	332c      	adds	r3, #44	; 0x2c
10004e72:	2600      	movs	r6, #0
10004e74:	601e      	str	r6, [r3, #0]
10004e76:	605e      	str	r6, [r3, #4]
10004e78:	609e      	str	r6, [r3, #8]
10004e7a:	60de      	str	r6, [r3, #12]
10004e7c:	611e      	str	r6, [r3, #16]
10004e7e:	615e      	str	r6, [r3, #20]
10004e80:	619e      	str	r6, [r3, #24]
10004e82:	61de      	str	r6, [r3, #28]
10004e84:	621e      	str	r6, [r3, #32]
10004e86:	2227      	movs	r2, #39	; 0x27
10004e88:	625a      	str	r2, [r3, #36]	; 0x24
10004e8a:	3a0a      	subs	r2, #10
10004e8c:	629a      	str	r2, [r3, #40]	; 0x28
10004e8e:	3a15      	subs	r2, #21
10004e90:	62da      	str	r2, [r3, #44]	; 0x2c
10004e92:	32c8      	adds	r2, #200	; 0xc8
10004e94:	631a      	str	r2, [r3, #48]	; 0x30
10004e96:	3a38      	subs	r2, #56	; 0x38
10004e98:	635a      	str	r2, [r3, #52]	; 0x34
10004e9a:	3a6f      	subs	r2, #111	; 0x6f
10004e9c:	639a      	str	r2, [r3, #56]	; 0x38
10004e9e:	3296      	adds	r2, #150	; 0x96
10004ea0:	63da      	str	r2, [r3, #60]	; 0x3c
10004ea2:	3a34      	subs	r2, #52	; 0x34
10004ea4:	641a      	str	r2, [r3, #64]	; 0x40
10004ea6:	3a65      	subs	r2, #101	; 0x65
10004ea8:	645a      	str	r2, [r3, #68]	; 0x44
10004eaa:	322d      	adds	r2, #45	; 0x2d
10004eac:	649a      	str	r2, [r3, #72]	; 0x48
10004eae:	3a16      	subs	r2, #22
10004eb0:	64da      	str	r2, [r3, #76]	; 0x4c
10004eb2:	3a2e      	subs	r2, #46	; 0x2e
10004eb4:	651a      	str	r2, [r3, #80]	; 0x50
10004eb6:	3210      	adds	r2, #16
10004eb8:	655a      	str	r2, [r3, #84]	; 0x54
10004eba:	3a08      	subs	r2, #8
10004ebc:	659a      	str	r2, [r3, #88]	; 0x58
10004ebe:	3a12      	subs	r2, #18
10004ec0:	65da      	str	r2, [r3, #92]	; 0x5c
10004ec2:	661e      	str	r6, [r3, #96]	; 0x60
10004ec4:	665e      	str	r6, [r3, #100]	; 0x64
10004ec6:	669e      	str	r6, [r3, #104]	; 0x68
10004ec8:	66de      	str	r6, [r3, #108]	; 0x6c
10004eca:	671e      	str	r6, [r3, #112]	; 0x70
10004ecc:	675e      	str	r6, [r3, #116]	; 0x74
10004ece:	679e      	str	r6, [r3, #120]	; 0x78
10004ed0:	67de      	str	r6, [r3, #124]	; 0x7c
10004ed2:	327b      	adds	r2, #123	; 0x7b
10004ed4:	509e      	str	r6, [r3, r2]
10004ed6:	2186      	movs	r1, #134	; 0x86
10004ed8:	0109      	lsls	r1, r1, #4
10004eda:	4469      	add	r1, sp
10004edc:	600b      	str	r3, [r1, #0]
10004ede:	230b      	movs	r3, #11
10004ee0:	604b      	str	r3, [r1, #4]
10004ee2:	27a6      	movs	r7, #166	; 0xa6
10004ee4:	00ff      	lsls	r7, r7, #3
10004ee6:	446f      	add	r7, sp
10004ee8:	2208      	movs	r2, #8
10004eea:	0038      	movs	r0, r7
10004eec:	f007 fe88 	bl	1000cc00 <__wrap___aeabi_memcpy>
10004ef0:	6626      	str	r6, [r4, #96]	; 0x60
10004ef2:	6666      	str	r6, [r4, #100]	; 0x64
10004ef4:	66a6      	str	r6, [r4, #104]	; 0x68
10004ef6:	683c      	ldr	r4, [r7, #0]
10004ef8:	687b      	ldr	r3, [r7, #4]
10004efa:	005f      	lsls	r7, r3, #1
10004efc:	18ff      	adds	r7, r7, r3
10004efe:	00bf      	lsls	r7, r7, #2
10004f00:	19e6      	adds	r6, r4, r7
10004f02:	10ba      	asrs	r2, r7, #2
10004f04:	18bb      	adds	r3, r7, r2
10004f06:	0118      	lsls	r0, r3, #4
10004f08:	181b      	adds	r3, r3, r0
10004f0a:	0218      	lsls	r0, r3, #8
10004f0c:	181b      	adds	r3, r3, r0
10004f0e:	0418      	lsls	r0, r3, #16
10004f10:	1818      	adds	r0, r3, r0
10004f12:	0040      	lsls	r0, r0, #1
10004f14:	1880      	adds	r0, r0, r2
10004f16:	4aa3      	ldr	r2, [pc, #652]	; (100051a4 <_ZN7Genshin9loadIconsEv+0x39d8>)
10004f18:	4297      	cmp	r7, r2
10004f1a:	d811      	bhi.n	10004f40 <_ZN7Genshin9loadIconsEv+0x3774>
10004f1c:	2800      	cmp	r0, #0
10004f1e:	d014      	beq.n	10004f4a <_ZN7Genshin9loadIconsEv+0x377e>
10004f20:	4aa1      	ldr	r2, [pc, #644]	; (100051a8 <_ZN7Genshin9loadIconsEv+0x39dc>)
10004f22:	4290      	cmp	r0, r2
10004f24:	d80f      	bhi.n	10004f46 <_ZN7Genshin9loadIconsEv+0x377a>
10004f26:	0043      	lsls	r3, r0, #1
10004f28:	1818      	adds	r0, r3, r0
10004f2a:	0080      	lsls	r0, r0, #2
10004f2c:	f007 fe6e 	bl	1000cc0c <_Znwj>
10004f30:	4b9e      	ldr	r3, [pc, #632]	; (100051ac <_ZN7Genshin9loadIconsEv+0x39e0>)
10004f32:	446b      	add	r3, sp
10004f34:	6018      	str	r0, [r3, #0]
10004f36:	19c7      	adds	r7, r0, r7
10004f38:	4b9d      	ldr	r3, [pc, #628]	; (100051b0 <_ZN7Genshin9loadIconsEv+0x39e4>)
10004f3a:	446b      	add	r3, sp
10004f3c:	601f      	str	r7, [r3, #0]
10004f3e:	e00a      	b.n	10004f56 <_ZN7Genshin9loadIconsEv+0x378a>
10004f40:	489c      	ldr	r0, [pc, #624]	; (100051b4 <_ZN7Genshin9loadIconsEv+0x39e8>)
10004f42:	f00e f82b 	bl	10012f9c <_ZSt20__throw_length_errorPKc>
10004f46:	f00e f801 	bl	10012f4c <_ZSt17__throw_bad_allocv>
10004f4a:	2000      	movs	r0, #0
10004f4c:	e7f0      	b.n	10004f30 <_ZN7Genshin9loadIconsEv+0x3764>
10004f4e:	0003      	movs	r3, r0
10004f50:	cc07      	ldmia	r4!, {r0, r1, r2}
10004f52:	c307      	stmia	r3!, {r0, r1, r2}
10004f54:	0018      	movs	r0, r3
10004f56:	42a6      	cmp	r6, r4
10004f58:	d1f9      	bne.n	10004f4e <_ZN7Genshin9loadIconsEv+0x3782>
10004f5a:	4c91      	ldr	r4, [pc, #580]	; (100051a0 <_ZN7Genshin9loadIconsEv+0x39d4>)
10004f5c:	446c      	add	r4, sp
10004f5e:	6660      	str	r0, [r4, #100]	; 0x64
10004f60:	abff      	add	r3, sp, #1020	; 0x3fc
10004f62:	33b0      	adds	r3, #176	; 0xb0
10004f64:	2600      	movs	r6, #0
10004f66:	601e      	str	r6, [r3, #0]
10004f68:	605e      	str	r6, [r3, #4]
10004f6a:	609e      	str	r6, [r3, #8]
10004f6c:	60de      	str	r6, [r3, #12]
10004f6e:	611e      	str	r6, [r3, #16]
10004f70:	615e      	str	r6, [r3, #20]
10004f72:	619e      	str	r6, [r3, #24]
10004f74:	61de      	str	r6, [r3, #28]
10004f76:	621e      	str	r6, [r3, #32]
10004f78:	625e      	str	r6, [r3, #36]	; 0x24
10004f7a:	629e      	str	r6, [r3, #40]	; 0x28
10004f7c:	62de      	str	r6, [r3, #44]	; 0x2c
10004f7e:	220b      	movs	r2, #11
10004f80:	631a      	str	r2, [r3, #48]	; 0x30
10004f82:	2107      	movs	r1, #7
10004f84:	6359      	str	r1, [r3, #52]	; 0x34
10004f86:	3906      	subs	r1, #6
10004f88:	6399      	str	r1, [r3, #56]	; 0x38
10004f8a:	3173      	adds	r1, #115	; 0x73
10004f8c:	63d9      	str	r1, [r3, #60]	; 0x3c
10004f8e:	3920      	subs	r1, #32
10004f90:	6419      	str	r1, [r3, #64]	; 0x40
10004f92:	393d      	subs	r1, #61	; 0x3d
10004f94:	6459      	str	r1, [r3, #68]	; 0x44
10004f96:	3905      	subs	r1, #5
10004f98:	6499      	str	r1, [r3, #72]	; 0x48
10004f9a:	3906      	subs	r1, #6
10004f9c:	64d9      	str	r1, [r3, #76]	; 0x4c
10004f9e:	3908      	subs	r1, #8
10004fa0:	6519      	str	r1, [r3, #80]	; 0x50
10004fa2:	655e      	str	r6, [r3, #84]	; 0x54
10004fa4:	659e      	str	r6, [r3, #88]	; 0x58
10004fa6:	65de      	str	r6, [r3, #92]	; 0x5c
10004fa8:	661e      	str	r6, [r3, #96]	; 0x60
10004faa:	665e      	str	r6, [r3, #100]	; 0x64
10004fac:	669e      	str	r6, [r3, #104]	; 0x68
10004fae:	66de      	str	r6, [r3, #108]	; 0x6c
10004fb0:	671e      	str	r6, [r3, #112]	; 0x70
10004fb2:	675e      	str	r6, [r3, #116]	; 0x74
10004fb4:	679e      	str	r6, [r3, #120]	; 0x78
10004fb6:	67de      	str	r6, [r3, #124]	; 0x7c
10004fb8:	317c      	adds	r1, #124	; 0x7c
10004fba:	505e      	str	r6, [r3, r1]
10004fbc:	497e      	ldr	r1, [pc, #504]	; (100051b8 <_ZN7Genshin9loadIconsEv+0x39ec>)
10004fbe:	4469      	add	r1, sp
10004fc0:	600b      	str	r3, [r1, #0]
10004fc2:	604a      	str	r2, [r1, #4]
10004fc4:	27a6      	movs	r7, #166	; 0xa6
10004fc6:	00ff      	lsls	r7, r7, #3
10004fc8:	446f      	add	r7, sp
10004fca:	3a03      	subs	r2, #3
10004fcc:	0038      	movs	r0, r7
10004fce:	f007 fe17 	bl	1000cc00 <__wrap___aeabi_memcpy>
10004fd2:	66e6      	str	r6, [r4, #108]	; 0x6c
10004fd4:	6726      	str	r6, [r4, #112]	; 0x70
10004fd6:	6766      	str	r6, [r4, #116]	; 0x74
10004fd8:	683c      	ldr	r4, [r7, #0]
10004fda:	687b      	ldr	r3, [r7, #4]
10004fdc:	005f      	lsls	r7, r3, #1
10004fde:	18ff      	adds	r7, r7, r3
10004fe0:	00bf      	lsls	r7, r7, #2
10004fe2:	19e6      	adds	r6, r4, r7
10004fe4:	10ba      	asrs	r2, r7, #2
10004fe6:	18bb      	adds	r3, r7, r2
10004fe8:	0118      	lsls	r0, r3, #4
10004fea:	181b      	adds	r3, r3, r0
10004fec:	0218      	lsls	r0, r3, #8
10004fee:	181b      	adds	r3, r3, r0
10004ff0:	0418      	lsls	r0, r3, #16
10004ff2:	1818      	adds	r0, r3, r0
10004ff4:	0040      	lsls	r0, r0, #1
10004ff6:	1880      	adds	r0, r0, r2
10004ff8:	4a6a      	ldr	r2, [pc, #424]	; (100051a4 <_ZN7Genshin9loadIconsEv+0x39d8>)
10004ffa:	4297      	cmp	r7, r2
10004ffc:	d819      	bhi.n	10005032 <_ZN7Genshin9loadIconsEv+0x3866>
10004ffe:	2800      	cmp	r0, #0
10005000:	d01c      	beq.n	1000503c <_ZN7Genshin9loadIconsEv+0x3870>
10005002:	4a69      	ldr	r2, [pc, #420]	; (100051a8 <_ZN7Genshin9loadIconsEv+0x39dc>)
10005004:	4290      	cmp	r0, r2
10005006:	d817      	bhi.n	10005038 <_ZN7Genshin9loadIconsEv+0x386c>
10005008:	0043      	lsls	r3, r0, #1
1000500a:	1818      	adds	r0, r3, r0
1000500c:	0080      	lsls	r0, r0, #2
1000500e:	f007 fdfd 	bl	1000cc0c <_Znwj>
10005012:	23c4      	movs	r3, #196	; 0xc4
10005014:	00db      	lsls	r3, r3, #3
10005016:	446b      	add	r3, sp
10005018:	6018      	str	r0, [r3, #0]
1000501a:	19c7      	adds	r7, r0, r7
1000501c:	23c5      	movs	r3, #197	; 0xc5
1000501e:	00db      	lsls	r3, r3, #3
10005020:	446b      	add	r3, sp
10005022:	601f      	str	r7, [r3, #0]
10005024:	42a6      	cmp	r6, r4
10005026:	d00b      	beq.n	10005040 <_ZN7Genshin9loadIconsEv+0x3874>
10005028:	0003      	movs	r3, r0
1000502a:	cc07      	ldmia	r4!, {r0, r1, r2}
1000502c:	c307      	stmia	r3!, {r0, r1, r2}
1000502e:	0018      	movs	r0, r3
10005030:	e7f8      	b.n	10005024 <_ZN7Genshin9loadIconsEv+0x3858>
10005032:	4860      	ldr	r0, [pc, #384]	; (100051b4 <_ZN7Genshin9loadIconsEv+0x39e8>)
10005034:	f00d ffb2 	bl	10012f9c <_ZSt20__throw_length_errorPKc>
10005038:	f00d ff88 	bl	10012f4c <_ZSt17__throw_bad_allocv>
1000503c:	2000      	movs	r0, #0
1000503e:	e7e8      	b.n	10005012 <_ZN7Genshin9loadIconsEv+0x3846>
10005040:	4e57      	ldr	r6, [pc, #348]	; (100051a0 <_ZN7Genshin9loadIconsEv+0x39d4>)
10005042:	446e      	add	r6, sp
10005044:	6730      	str	r0, [r6, #112]	; 0x70
10005046:	23a6      	movs	r3, #166	; 0xa6
10005048:	00db      	lsls	r3, r3, #3
1000504a:	446b      	add	r3, sp
1000504c:	2400      	movs	r4, #0
1000504e:	601c      	str	r4, [r3, #0]
10005050:	605c      	str	r4, [r3, #4]
10005052:	609c      	str	r4, [r3, #8]
10005054:	60dc      	str	r4, [r3, #12]
10005056:	611c      	str	r4, [r3, #16]
10005058:	615c      	str	r4, [r3, #20]
1000505a:	619c      	str	r4, [r3, #24]
1000505c:	61dc      	str	r4, [r3, #28]
1000505e:	621c      	str	r4, [r3, #32]
10005060:	625c      	str	r4, [r3, #36]	; 0x24
10005062:	629c      	str	r4, [r3, #40]	; 0x28
10005064:	62dc      	str	r4, [r3, #44]	; 0x2c
10005066:	631c      	str	r4, [r3, #48]	; 0x30
10005068:	635c      	str	r4, [r3, #52]	; 0x34
1000506a:	639c      	str	r4, [r3, #56]	; 0x38
1000506c:	63dc      	str	r4, [r3, #60]	; 0x3c
1000506e:	641c      	str	r4, [r3, #64]	; 0x40
10005070:	645c      	str	r4, [r3, #68]	; 0x44
10005072:	649c      	str	r4, [r3, #72]	; 0x48
10005074:	64dc      	str	r4, [r3, #76]	; 0x4c
10005076:	651c      	str	r4, [r3, #80]	; 0x50
10005078:	655c      	str	r4, [r3, #84]	; 0x54
1000507a:	659c      	str	r4, [r3, #88]	; 0x58
1000507c:	65dc      	str	r4, [r3, #92]	; 0x5c
1000507e:	661c      	str	r4, [r3, #96]	; 0x60
10005080:	665c      	str	r4, [r3, #100]	; 0x64
10005082:	669c      	str	r4, [r3, #104]	; 0x68
10005084:	66dc      	str	r4, [r3, #108]	; 0x6c
10005086:	671c      	str	r4, [r3, #112]	; 0x70
10005088:	675c      	str	r4, [r3, #116]	; 0x74
1000508a:	679c      	str	r4, [r3, #120]	; 0x78
1000508c:	67dc      	str	r4, [r3, #124]	; 0x7c
1000508e:	2780      	movs	r7, #128	; 0x80
10005090:	51dc      	str	r4, [r3, r7]
10005092:	2187      	movs	r1, #135	; 0x87
10005094:	0109      	lsls	r1, r1, #4
10005096:	4469      	add	r1, sp
10005098:	600b      	str	r3, [r1, #0]
1000509a:	230b      	movs	r3, #11
1000509c:	604b      	str	r3, [r1, #4]
1000509e:	2208      	movs	r2, #8
100050a0:	4668      	mov	r0, sp
100050a2:	f007 fdad 	bl	1000cc00 <__wrap___aeabi_memcpy>
100050a6:	67b4      	str	r4, [r6, #120]	; 0x78
100050a8:	67f4      	str	r4, [r6, #124]	; 0x7c
100050aa:	51f4      	str	r4, [r6, r7]
100050ac:	9c00      	ldr	r4, [sp, #0]
100050ae:	9b01      	ldr	r3, [sp, #4]
100050b0:	005f      	lsls	r7, r3, #1
100050b2:	18ff      	adds	r7, r7, r3
100050b4:	00bf      	lsls	r7, r7, #2
100050b6:	19e6      	adds	r6, r4, r7
100050b8:	10ba      	asrs	r2, r7, #2
100050ba:	18bb      	adds	r3, r7, r2
100050bc:	0118      	lsls	r0, r3, #4
100050be:	181b      	adds	r3, r3, r0
100050c0:	0218      	lsls	r0, r3, #8
100050c2:	181b      	adds	r3, r3, r0
100050c4:	0418      	lsls	r0, r3, #16
100050c6:	1818      	adds	r0, r3, r0
100050c8:	0040      	lsls	r0, r0, #1
100050ca:	1880      	adds	r0, r0, r2
100050cc:	4a35      	ldr	r2, [pc, #212]	; (100051a4 <_ZN7Genshin9loadIconsEv+0x39d8>)
100050ce:	4297      	cmp	r7, r2
100050d0:	d819      	bhi.n	10005106 <_ZN7Genshin9loadIconsEv+0x393a>
100050d2:	2800      	cmp	r0, #0
100050d4:	d01c      	beq.n	10005110 <_ZN7Genshin9loadIconsEv+0x3944>
100050d6:	4a34      	ldr	r2, [pc, #208]	; (100051a8 <_ZN7Genshin9loadIconsEv+0x39dc>)
100050d8:	4290      	cmp	r0, r2
100050da:	d817      	bhi.n	1000510c <_ZN7Genshin9loadIconsEv+0x3940>
100050dc:	0043      	lsls	r3, r0, #1
100050de:	1818      	adds	r0, r3, r0
100050e0:	0080      	lsls	r0, r0, #2
100050e2:	f007 fd93 	bl	1000cc0c <_Znwj>
100050e6:	4b35      	ldr	r3, [pc, #212]	; (100051bc <_ZN7Genshin9loadIconsEv+0x39f0>)
100050e8:	446b      	add	r3, sp
100050ea:	6018      	str	r0, [r3, #0]
100050ec:	19c7      	adds	r7, r0, r7
100050ee:	2380      	movs	r3, #128	; 0x80
100050f0:	466a      	mov	r2, sp
100050f2:	492b      	ldr	r1, [pc, #172]	; (100051a0 <_ZN7Genshin9loadIconsEv+0x39d4>)
100050f4:	1852      	adds	r2, r2, r1
100050f6:	50d7      	str	r7, [r2, r3]
100050f8:	42a6      	cmp	r6, r4
100050fa:	d00b      	beq.n	10005114 <_ZN7Genshin9loadIconsEv+0x3948>
100050fc:	0003      	movs	r3, r0
100050fe:	cc07      	ldmia	r4!, {r0, r1, r2}
10005100:	c307      	stmia	r3!, {r0, r1, r2}
10005102:	0018      	movs	r0, r3
10005104:	e7f8      	b.n	100050f8 <_ZN7Genshin9loadIconsEv+0x392c>
10005106:	482b      	ldr	r0, [pc, #172]	; (100051b4 <_ZN7Genshin9loadIconsEv+0x39e8>)
10005108:	f00d ff48 	bl	10012f9c <_ZSt20__throw_length_errorPKc>
1000510c:	f00d ff1e 	bl	10012f4c <_ZSt17__throw_bad_allocv>
10005110:	2000      	movs	r0, #0
10005112:	e7e8      	b.n	100050e6 <_ZN7Genshin9loadIconsEv+0x391a>
10005114:	23c6      	movs	r3, #198	; 0xc6
10005116:	00db      	lsls	r3, r3, #3
10005118:	446b      	add	r3, sp
1000511a:	6018      	str	r0, [r3, #0]
1000511c:	4c28      	ldr	r4, [pc, #160]	; (100051c0 <_ZN7Genshin9loadIconsEv+0x39f4>)
1000511e:	446c      	add	r4, sp
10005120:	4f1f      	ldr	r7, [pc, #124]	; (100051a0 <_ZN7Genshin9loadIconsEv+0x39d4>)
10005122:	446f      	add	r7, sp
10005124:	6027      	str	r7, [r4, #0]
10005126:	230b      	movs	r3, #11
10005128:	6063      	str	r3, [r4, #4]
1000512a:	2688      	movs	r6, #136	; 0x88
1000512c:	0136      	lsls	r6, r6, #4
1000512e:	446e      	add	r6, sp
10005130:	4b24      	ldr	r3, [pc, #144]	; (100051c4 <_ZN7Genshin9loadIconsEv+0x39f8>)
10005132:	446b      	add	r3, sp
10005134:	601e      	str	r6, [r3, #0]
10005136:	4a24      	ldr	r2, [pc, #144]	; (100051c8 <_ZN7Genshin9loadIconsEv+0x39fc>)
10005138:	1ed1      	subs	r1, r2, #3
1000513a:	2300      	movs	r3, #0
1000513c:	4821      	ldr	r0, [pc, #132]	; (100051c4 <_ZN7Genshin9loadIconsEv+0x39f8>)
1000513e:	4468      	add	r0, sp
10005140:	f7fb f8e4 	bl	1000030c <_ZNSt7__cxx1112basic_stringIcSt11char_traitsIcESaIcEE12_M_constructIPKcEEvT_S8_St20forward_iterator_tag>
10005144:	4b1f      	ldr	r3, [pc, #124]	; (100051c4 <_ZN7Genshin9loadIconsEv+0x39f8>)
10005146:	446b      	add	r3, sp
10005148:	0019      	movs	r1, r3
1000514a:	0028      	movs	r0, r5
1000514c:	f7fb ff04 	bl	10000f58 <_ZNSt8__detail9_Map_baseINSt7__cxx1112basic_stringIcSt11char_traitsIcESaIcEEESt4pairIKS6_St6vectorIS9_I5ColorSaISA_EESaISC_EEESaISF_ENS_10_Select1stESt8equal_toIS6_ESt4hashIS6_ENS_18_Mod_range_hashingENS_20_Default_ranged_hashENS_20_Prime_rehash_policyENS_17_Hashtable_traitsILb1ELb0ELb1EEELb1EEixEOS6_>
10005150:	4680      	mov	r8, r0
10005152:	2208      	movs	r2, #8
10005154:	0021      	movs	r1, r4
10005156:	4668      	mov	r0, sp
10005158:	f007 fd52 	bl	1000cc00 <__wrap___aeabi_memcpy>
1000515c:	2300      	movs	r3, #0
1000515e:	22c7      	movs	r2, #199	; 0xc7
10005160:	00d2      	lsls	r2, r2, #3
10005162:	446a      	add	r2, sp
10005164:	0039      	movs	r1, r7
10005166:	4640      	mov	r0, r8
10005168:	f7fc f9fe 	bl	10001568 <_ZNSt6vectorIS_I5ColorSaIS0_EESaIS2_EE13_M_assign_auxIPKS2_EEvT_S8_St20forward_iterator_tag>
1000516c:	4b15      	ldr	r3, [pc, #84]	; (100051c4 <_ZN7Genshin9loadIconsEv+0x39f8>)
1000516e:	446b      	add	r3, sp
10005170:	6818      	ldr	r0, [r3, #0]
10005172:	42b0      	cmp	r0, r6
10005174:	d003      	beq.n	1000517e <_ZN7Genshin9loadIconsEv+0x39b2>
10005176:	6833      	ldr	r3, [r6, #0]
10005178:	1c59      	adds	r1, r3, #1
1000517a:	f007 fd53 	bl	1000cc24 <_ZdlPvj>
1000517e:	24c7      	movs	r4, #199	; 0xc7
10005180:	00e4      	lsls	r4, r4, #3
10005182:	446c      	add	r4, sp
10005184:	4b06      	ldr	r3, [pc, #24]	; (100051a0 <_ZN7Genshin9loadIconsEv+0x39d4>)
10005186:	446b      	add	r3, sp
10005188:	429c      	cmp	r4, r3
1000518a:	d01f      	beq.n	100051cc <_ZN7Genshin9loadIconsEv+0x3a00>
1000518c:	3c0c      	subs	r4, #12
1000518e:	6820      	ldr	r0, [r4, #0]
10005190:	68a3      	ldr	r3, [r4, #8]
10005192:	1a19      	subs	r1, r3, r0
10005194:	2800      	cmp	r0, #0
10005196:	d0f5      	beq.n	10005184 <_ZN7Genshin9loadIconsEv+0x39b8>
10005198:	f007 fd44 	bl	1000cc24 <_ZdlPvj>
1000519c:	e7f2      	b.n	10005184 <_ZN7Genshin9loadIconsEv+0x39b8>
1000519e:	46c0      	nop			; (mov r8, r8)
100051a0:	000005b4 	.word	0x000005b4
100051a4:	7ffffff8 	.word	0x7ffffff8
100051a8:	0aaaaaaa 	.word	0x0aaaaaaa
100051ac:	00000614 	.word	0x00000614
100051b0:	0000061c 	.word	0x0000061c
100051b4:	1001c394 	.word	0x1001c394
100051b8:	00000868 	.word	0x00000868
100051bc:	0000062c 	.word	0x0000062c
100051c0:	00000818 	.word	0x00000818
100051c4:	00000878 	.word	0x00000878
100051c8:	1001c37f 	.word	0x1001c37f
100051cc:	2400      	movs	r4, #0
100051ce:	9402      	str	r4, [sp, #8]
100051d0:	9403      	str	r4, [sp, #12]
100051d2:	9404      	str	r4, [sp, #16]
100051d4:	9405      	str	r4, [sp, #20]
100051d6:	9406      	str	r4, [sp, #24]
100051d8:	9407      	str	r4, [sp, #28]
100051da:	9408      	str	r4, [sp, #32]
100051dc:	9409      	str	r4, [sp, #36]	; 0x24
100051de:	940a      	str	r4, [sp, #40]	; 0x28
100051e0:	940b      	str	r4, [sp, #44]	; 0x2c
100051e2:	940c      	str	r4, [sp, #48]	; 0x30
100051e4:	940d      	str	r4, [sp, #52]	; 0x34
100051e6:	940e      	str	r4, [sp, #56]	; 0x38
100051e8:	940f      	str	r4, [sp, #60]	; 0x3c
100051ea:	9410      	str	r4, [sp, #64]	; 0x40
100051ec:	9411      	str	r4, [sp, #68]	; 0x44
100051ee:	9412      	str	r4, [sp, #72]	; 0x48
100051f0:	9413      	str	r4, [sp, #76]	; 0x4c
100051f2:	9414      	str	r4, [sp, #80]	; 0x50
100051f4:	9415      	str	r4, [sp, #84]	; 0x54
100051f6:	9416      	str	r4, [sp, #88]	; 0x58
100051f8:	9417      	str	r4, [sp, #92]	; 0x5c
100051fa:	9418      	str	r4, [sp, #96]	; 0x60
100051fc:	9419      	str	r4, [sp, #100]	; 0x64
100051fe:	941a      	str	r4, [sp, #104]	; 0x68
10005200:	941b      	str	r4, [sp, #108]	; 0x6c
10005202:	941c      	str	r4, [sp, #112]	; 0x70
10005204:	941d      	str	r4, [sp, #116]	; 0x74
10005206:	941e      	str	r4, [sp, #120]	; 0x78
10005208:	941f      	str	r4, [sp, #124]	; 0x7c
1000520a:	9420      	str	r4, [sp, #128]	; 0x80
1000520c:	9421      	str	r4, [sp, #132]	; 0x84
1000520e:	2380      	movs	r3, #128	; 0x80
10005210:	466a      	mov	r2, sp
10005212:	2108      	movs	r1, #8
10005214:	1852      	adds	r2, r2, r1
10005216:	50d4      	str	r4, [r2, r3]
10005218:	49db      	ldr	r1, [pc, #876]	; (10005588 <_ZN7Genshin9loadIconsEv+0x3dbc>)
1000521a:	4469      	add	r1, sp
1000521c:	600a      	str	r2, [r1, #0]
1000521e:	230b      	movs	r3, #11
10005220:	604b      	str	r3, [r1, #4]
10005222:	26a6      	movs	r6, #166	; 0xa6
10005224:	00f6      	lsls	r6, r6, #3
10005226:	446e      	add	r6, sp
10005228:	2208      	movs	r2, #8
1000522a:	0030      	movs	r0, r6
1000522c:	f007 fce8 	bl	1000cc00 <__wrap___aeabi_memcpy>
10005230:	4bd6      	ldr	r3, [pc, #856]	; (1000558c <_ZN7Genshin9loadIconsEv+0x3dc0>)
10005232:	446b      	add	r3, sp
10005234:	601c      	str	r4, [r3, #0]
10005236:	23b7      	movs	r3, #183	; 0xb7
10005238:	00db      	lsls	r3, r3, #3
1000523a:	446b      	add	r3, sp
1000523c:	601c      	str	r4, [r3, #0]
1000523e:	4bd4      	ldr	r3, [pc, #848]	; (10005590 <_ZN7Genshin9loadIconsEv+0x3dc4>)
10005240:	446b      	add	r3, sp
10005242:	601c      	str	r4, [r3, #0]
10005244:	6834      	ldr	r4, [r6, #0]
10005246:	6873      	ldr	r3, [r6, #4]
10005248:	005f      	lsls	r7, r3, #1
1000524a:	18ff      	adds	r7, r7, r3
1000524c:	00bf      	lsls	r7, r7, #2
1000524e:	19e6      	adds	r6, r4, r7
10005250:	10ba      	asrs	r2, r7, #2
10005252:	18bb      	adds	r3, r7, r2
10005254:	0118      	lsls	r0, r3, #4
10005256:	181b      	adds	r3, r3, r0
10005258:	0218      	lsls	r0, r3, #8
1000525a:	181b      	adds	r3, r3, r0
1000525c:	0418      	lsls	r0, r3, #16
1000525e:	1818      	adds	r0, r3, r0
10005260:	0040      	lsls	r0, r0, #1
10005262:	1880      	adds	r0, r0, r2
10005264:	4acb      	ldr	r2, [pc, #812]	; (10005594 <_ZN7Genshin9loadIconsEv+0x3dc8>)
10005266:	4297      	cmp	r7, r2
10005268:	d817      	bhi.n	1000529a <_ZN7Genshin9loadIconsEv+0x3ace>
1000526a:	2800      	cmp	r0, #0
1000526c:	d01a      	beq.n	100052a4 <_ZN7Genshin9loadIconsEv+0x3ad8>
1000526e:	4aca      	ldr	r2, [pc, #808]	; (10005598 <_ZN7Genshin9loadIconsEv+0x3dcc>)
10005270:	4290      	cmp	r0, r2
10005272:	d815      	bhi.n	100052a0 <_ZN7Genshin9loadIconsEv+0x3ad4>
10005274:	0043      	lsls	r3, r0, #1
10005276:	1818      	adds	r0, r3, r0
10005278:	0080      	lsls	r0, r0, #2
1000527a:	f007 fcc7 	bl	1000cc0c <_Znwj>
1000527e:	4bc3      	ldr	r3, [pc, #780]	; (1000558c <_ZN7Genshin9loadIconsEv+0x3dc0>)
10005280:	446b      	add	r3, sp
10005282:	6018      	str	r0, [r3, #0]
10005284:	19c7      	adds	r7, r0, r7
10005286:	4bc2      	ldr	r3, [pc, #776]	; (10005590 <_ZN7Genshin9loadIconsEv+0x3dc4>)
10005288:	446b      	add	r3, sp
1000528a:	601f      	str	r7, [r3, #0]
1000528c:	42a6      	cmp	r6, r4
1000528e:	d00b      	beq.n	100052a8 <_ZN7Genshin9loadIconsEv+0x3adc>
10005290:	0003      	movs	r3, r0
10005292:	cc07      	ldmia	r4!, {r0, r1, r2}
10005294:	c307      	stmia	r3!, {r0, r1, r2}
10005296:	0018      	movs	r0, r3
10005298:	e7f8      	b.n	1000528c <_ZN7Genshin9loadIconsEv+0x3ac0>
1000529a:	48c0      	ldr	r0, [pc, #768]	; (1000559c <_ZN7Genshin9loadIconsEv+0x3dd0>)
1000529c:	f00d fe7e 	bl	10012f9c <_ZSt20__throw_length_errorPKc>
100052a0:	f00d fe54 	bl	10012f4c <_ZSt17__throw_bad_allocv>
100052a4:	2000      	movs	r0, #0
100052a6:	e7ea      	b.n	1000527e <_ZN7Genshin9loadIconsEv+0x3ab2>
100052a8:	4eb8      	ldr	r6, [pc, #736]	; (1000558c <_ZN7Genshin9loadIconsEv+0x3dc0>)
100052aa:	446e      	add	r6, sp
100052ac:	6070      	str	r0, [r6, #4]
100052ae:	2400      	movs	r4, #0
100052b0:	9423      	str	r4, [sp, #140]	; 0x8c
100052b2:	9424      	str	r4, [sp, #144]	; 0x90
100052b4:	9425      	str	r4, [sp, #148]	; 0x94
100052b6:	9426      	str	r4, [sp, #152]	; 0x98
100052b8:	9427      	str	r4, [sp, #156]	; 0x9c
100052ba:	9428      	str	r4, [sp, #160]	; 0xa0
100052bc:	9429      	str	r4, [sp, #164]	; 0xa4
100052be:	942a      	str	r4, [sp, #168]	; 0xa8
100052c0:	942b      	str	r4, [sp, #172]	; 0xac
100052c2:	2311      	movs	r3, #17
100052c4:	932c      	str	r3, [sp, #176]	; 0xb0
100052c6:	331d      	adds	r3, #29
100052c8:	932d      	str	r3, [sp, #180]	; 0xb4
100052ca:	330d      	adds	r3, #13
100052cc:	932e      	str	r3, [sp, #184]	; 0xb8
100052ce:	2203      	movs	r2, #3
100052d0:	922f      	str	r2, [sp, #188]	; 0xbc
100052d2:	3b35      	subs	r3, #53	; 0x35
100052d4:	9330      	str	r3, [sp, #192]	; 0xc0
100052d6:	3303      	adds	r3, #3
100052d8:	9331      	str	r3, [sp, #196]	; 0xc4
100052da:	2132      	movs	r1, #50	; 0x32
100052dc:	9132      	str	r1, [sp, #200]	; 0xc8
100052de:	3150      	adds	r1, #80	; 0x50
100052e0:	9133      	str	r1, [sp, #204]	; 0xcc
100052e2:	3120      	adds	r1, #32
100052e4:	9134      	str	r1, [sp, #208]	; 0xd0
100052e6:	9235      	str	r2, [sp, #212]	; 0xd4
100052e8:	9336      	str	r3, [sp, #216]	; 0xd8
100052ea:	3302      	adds	r3, #2
100052ec:	9337      	str	r3, [sp, #220]	; 0xdc
100052ee:	9438      	str	r4, [sp, #224]	; 0xe0
100052f0:	9439      	str	r4, [sp, #228]	; 0xe4
100052f2:	943a      	str	r4, [sp, #232]	; 0xe8
100052f4:	943b      	str	r4, [sp, #236]	; 0xec
100052f6:	943c      	str	r4, [sp, #240]	; 0xf0
100052f8:	943d      	str	r4, [sp, #244]	; 0xf4
100052fa:	943e      	str	r4, [sp, #248]	; 0xf8
100052fc:	943f      	str	r4, [sp, #252]	; 0xfc
100052fe:	9440      	str	r4, [sp, #256]	; 0x100
10005300:	9441      	str	r4, [sp, #260]	; 0x104
10005302:	9442      	str	r4, [sp, #264]	; 0x108
10005304:	327d      	adds	r2, #125	; 0x7d
10005306:	4669      	mov	r1, sp
10005308:	208c      	movs	r0, #140	; 0x8c
1000530a:	1809      	adds	r1, r1, r0
1000530c:	508c      	str	r4, [r1, r2]
1000530e:	218a      	movs	r1, #138	; 0x8a
10005310:	0109      	lsls	r1, r1, #4
10005312:	4469      	add	r1, sp
10005314:	aa23      	add	r2, sp, #140	; 0x8c
10005316:	600a      	str	r2, [r1, #0]
10005318:	604b      	str	r3, [r1, #4]
1000531a:	27a6      	movs	r7, #166	; 0xa6
1000531c:	00ff      	lsls	r7, r7, #3
1000531e:	446f      	add	r7, sp
10005320:	2208      	movs	r2, #8
10005322:	0038      	movs	r0, r7
10005324:	f007 fc6c 	bl	1000cc00 <__wrap___aeabi_memcpy>
10005328:	60f4      	str	r4, [r6, #12]
1000532a:	6134      	str	r4, [r6, #16]
1000532c:	6174      	str	r4, [r6, #20]
1000532e:	683c      	ldr	r4, [r7, #0]
10005330:	687b      	ldr	r3, [r7, #4]
10005332:	005f      	lsls	r7, r3, #1
10005334:	18ff      	adds	r7, r7, r3
10005336:	00bf      	lsls	r7, r7, #2
10005338:	19e6      	adds	r6, r4, r7
1000533a:	10ba      	asrs	r2, r7, #2
1000533c:	18bb      	adds	r3, r7, r2
1000533e:	0118      	lsls	r0, r3, #4
10005340:	181b      	adds	r3, r3, r0
10005342:	0218      	lsls	r0, r3, #8
10005344:	181b      	adds	r3, r3, r0
10005346:	0418      	lsls	r0, r3, #16
10005348:	1818      	adds	r0, r3, r0
1000534a:	0040      	lsls	r0, r0, #1
1000534c:	1880      	adds	r0, r0, r2
1000534e:	4a91      	ldr	r2, [pc, #580]	; (10005594 <_ZN7Genshin9loadIconsEv+0x3dc8>)
10005350:	4297      	cmp	r7, r2
10005352:	d819      	bhi.n	10005388 <_ZN7Genshin9loadIconsEv+0x3bbc>
10005354:	2800      	cmp	r0, #0
10005356:	d01c      	beq.n	10005392 <_ZN7Genshin9loadIconsEv+0x3bc6>
10005358:	4a8f      	ldr	r2, [pc, #572]	; (10005598 <_ZN7Genshin9loadIconsEv+0x3dcc>)
1000535a:	4290      	cmp	r0, r2
1000535c:	d817      	bhi.n	1000538e <_ZN7Genshin9loadIconsEv+0x3bc2>
1000535e:	0043      	lsls	r3, r0, #1
10005360:	1818      	adds	r0, r3, r0
10005362:	0080      	lsls	r0, r0, #2
10005364:	f007 fc52 	bl	1000cc0c <_Znwj>
10005368:	23b8      	movs	r3, #184	; 0xb8
1000536a:	00db      	lsls	r3, r3, #3
1000536c:	446b      	add	r3, sp
1000536e:	6018      	str	r0, [r3, #0]
10005370:	19c7      	adds	r7, r0, r7
10005372:	23b9      	movs	r3, #185	; 0xb9
10005374:	00db      	lsls	r3, r3, #3
10005376:	446b      	add	r3, sp
10005378:	601f      	str	r7, [r3, #0]
1000537a:	42a6      	cmp	r6, r4
1000537c:	d00b      	beq.n	10005396 <_ZN7Genshin9loadIconsEv+0x3bca>
1000537e:	0003      	movs	r3, r0
10005380:	cc07      	ldmia	r4!, {r0, r1, r2}
10005382:	c307      	stmia	r3!, {r0, r1, r2}
10005384:	0018      	movs	r0, r3
10005386:	e7f8      	b.n	1000537a <_ZN7Genshin9loadIconsEv+0x3bae>
10005388:	4884      	ldr	r0, [pc, #528]	; (1000559c <_ZN7Genshin9loadIconsEv+0x3dd0>)
1000538a:	f00d fe07 	bl	10012f9c <_ZSt20__throw_length_errorPKc>
1000538e:	f00d fddd 	bl	10012f4c <_ZSt17__throw_bad_allocv>
10005392:	2000      	movs	r0, #0
10005394:	e7e8      	b.n	10005368 <_ZN7Genshin9loadIconsEv+0x3b9c>
10005396:	4e7d      	ldr	r6, [pc, #500]	; (1000558c <_ZN7Genshin9loadIconsEv+0x3dc0>)
10005398:	446e      	add	r6, sp
1000539a:	6130      	str	r0, [r6, #16]
1000539c:	2400      	movs	r4, #0
1000539e:	9444      	str	r4, [sp, #272]	; 0x110
100053a0:	9445      	str	r4, [sp, #276]	; 0x114
100053a2:	9446      	str	r4, [sp, #280]	; 0x118
100053a4:	9447      	str	r4, [sp, #284]	; 0x11c
100053a6:	9448      	str	r4, [sp, #288]	; 0x120
100053a8:	9449      	str	r4, [sp, #292]	; 0x124
100053aa:	2328      	movs	r3, #40	; 0x28
100053ac:	934a      	str	r3, [sp, #296]	; 0x128
100053ae:	333f      	adds	r3, #63	; 0x3f
100053b0:	934b      	str	r3, [sp, #300]	; 0x12c
100053b2:	2280      	movs	r2, #128	; 0x80
100053b4:	924c      	str	r2, [sp, #304]	; 0x130
100053b6:	3b1f      	subs	r3, #31
100053b8:	934d      	str	r3, [sp, #308]	; 0x134
100053ba:	3370      	adds	r3, #112	; 0x70
100053bc:	934e      	str	r3, [sp, #312]	; 0x138
100053be:	332d      	adds	r3, #45	; 0x2d
100053c0:	934f      	str	r3, [sp, #316]	; 0x13c
100053c2:	3bda      	subs	r3, #218	; 0xda
100053c4:	9350      	str	r3, [sp, #320]	; 0x140
100053c6:	211a      	movs	r1, #26
100053c8:	9151      	str	r1, [sp, #324]	; 0x144
100053ca:	3108      	adds	r1, #8
100053cc:	9152      	str	r1, [sp, #328]	; 0x148
100053ce:	3911      	subs	r1, #17
100053d0:	9153      	str	r1, [sp, #332]	; 0x14c
100053d2:	311c      	adds	r1, #28
100053d4:	9154      	str	r1, [sp, #336]	; 0x150
100053d6:	310c      	adds	r1, #12
100053d8:	9155      	str	r1, [sp, #340]	; 0x154
100053da:	9456      	str	r4, [sp, #344]	; 0x158
100053dc:	3938      	subs	r1, #56	; 0x38
100053de:	9157      	str	r1, [sp, #348]	; 0x15c
100053e0:	9158      	str	r1, [sp, #352]	; 0x160
100053e2:	3123      	adds	r1, #35	; 0x23
100053e4:	9159      	str	r1, [sp, #356]	; 0x164
100053e6:	313b      	adds	r1, #59	; 0x3b
100053e8:	915a      	str	r1, [sp, #360]	; 0x168
100053ea:	3117      	adds	r1, #23
100053ec:	915b      	str	r1, [sp, #364]	; 0x16c
100053ee:	945c      	str	r4, [sp, #368]	; 0x170
100053f0:	945d      	str	r4, [sp, #372]	; 0x174
100053f2:	945e      	str	r4, [sp, #376]	; 0x178
100053f4:	945f      	str	r4, [sp, #380]	; 0x17c
100053f6:	9460      	str	r4, [sp, #384]	; 0x180
100053f8:	9461      	str	r4, [sp, #388]	; 0x184
100053fa:	9462      	str	r4, [sp, #392]	; 0x188
100053fc:	9463      	str	r4, [sp, #396]	; 0x18c
100053fe:	4669      	mov	r1, sp
10005400:	2088      	movs	r0, #136	; 0x88
10005402:	0040      	lsls	r0, r0, #1
10005404:	1809      	adds	r1, r1, r0
10005406:	508c      	str	r4, [r1, r2]
10005408:	4965      	ldr	r1, [pc, #404]	; (100055a0 <_ZN7Genshin9loadIconsEv+0x3dd4>)
1000540a:	4469      	add	r1, sp
1000540c:	aa44      	add	r2, sp, #272	; 0x110
1000540e:	600a      	str	r2, [r1, #0]
10005410:	604b      	str	r3, [r1, #4]
10005412:	27a6      	movs	r7, #166	; 0xa6
10005414:	00ff      	lsls	r7, r7, #3
10005416:	446f      	add	r7, sp
10005418:	2208      	movs	r2, #8
1000541a:	0038      	movs	r0, r7
1000541c:	f007 fbf0 	bl	1000cc00 <__wrap___aeabi_memcpy>
10005420:	61b4      	str	r4, [r6, #24]
10005422:	61f4      	str	r4, [r6, #28]
10005424:	6234      	str	r4, [r6, #32]
10005426:	683c      	ldr	r4, [r7, #0]
10005428:	687b      	ldr	r3, [r7, #4]
1000542a:	005f      	lsls	r7, r3, #1
1000542c:	18ff      	adds	r7, r7, r3
1000542e:	00bf      	lsls	r7, r7, #2
10005430:	19e6      	adds	r6, r4, r7
10005432:	10ba      	asrs	r2, r7, #2
10005434:	18bb      	adds	r3, r7, r2
10005436:	0118      	lsls	r0, r3, #4
10005438:	181b      	adds	r3, r3, r0
1000543a:	0218      	lsls	r0, r3, #8
1000543c:	181b      	adds	r3, r3, r0
1000543e:	0418      	lsls	r0, r3, #16
10005440:	1818      	adds	r0, r3, r0
10005442:	0040      	lsls	r0, r0, #1
10005444:	1880      	adds	r0, r0, r2
10005446:	4a53      	ldr	r2, [pc, #332]	; (10005594 <_ZN7Genshin9loadIconsEv+0x3dc8>)
10005448:	4297      	cmp	r7, r2
1000544a:	d817      	bhi.n	1000547c <_ZN7Genshin9loadIconsEv+0x3cb0>
1000544c:	2800      	cmp	r0, #0
1000544e:	d01a      	beq.n	10005486 <_ZN7Genshin9loadIconsEv+0x3cba>
10005450:	4a51      	ldr	r2, [pc, #324]	; (10005598 <_ZN7Genshin9loadIconsEv+0x3dcc>)
10005452:	4290      	cmp	r0, r2
10005454:	d815      	bhi.n	10005482 <_ZN7Genshin9loadIconsEv+0x3cb6>
10005456:	0043      	lsls	r3, r0, #1
10005458:	1818      	adds	r0, r3, r0
1000545a:	0080      	lsls	r0, r0, #2
1000545c:	f007 fbd6 	bl	1000cc0c <_Znwj>
10005460:	4b50      	ldr	r3, [pc, #320]	; (100055a4 <_ZN7Genshin9loadIconsEv+0x3dd8>)
10005462:	446b      	add	r3, sp
10005464:	6018      	str	r0, [r3, #0]
10005466:	19c7      	adds	r7, r0, r7
10005468:	4b4f      	ldr	r3, [pc, #316]	; (100055a8 <_ZN7Genshin9loadIconsEv+0x3ddc>)
1000546a:	446b      	add	r3, sp
1000546c:	601f      	str	r7, [r3, #0]
1000546e:	42a6      	cmp	r6, r4
10005470:	d00b      	beq.n	1000548a <_ZN7Genshin9loadIconsEv+0x3cbe>
10005472:	0003      	movs	r3, r0
10005474:	cc07      	ldmia	r4!, {r0, r1, r2}
10005476:	c307      	stmia	r3!, {r0, r1, r2}
10005478:	0018      	movs	r0, r3
1000547a:	e7f8      	b.n	1000546e <_ZN7Genshin9loadIconsEv+0x3ca2>
1000547c:	4847      	ldr	r0, [pc, #284]	; (1000559c <_ZN7Genshin9loadIconsEv+0x3dd0>)
1000547e:	f00d fd8d 	bl	10012f9c <_ZSt20__throw_length_errorPKc>
10005482:	f00d fd63 	bl	10012f4c <_ZSt17__throw_bad_allocv>
10005486:	2000      	movs	r0, #0
10005488:	e7ea      	b.n	10005460 <_ZN7Genshin9loadIconsEv+0x3c94>
1000548a:	4e40      	ldr	r6, [pc, #256]	; (1000558c <_ZN7Genshin9loadIconsEv+0x3dc0>)
1000548c:	446e      	add	r6, sp
1000548e:	61f0      	str	r0, [r6, #28]
10005490:	2400      	movs	r4, #0
10005492:	9465      	str	r4, [sp, #404]	; 0x194
10005494:	9466      	str	r4, [sp, #408]	; 0x198
10005496:	9467      	str	r4, [sp, #412]	; 0x19c
10005498:	2315      	movs	r3, #21
1000549a:	9368      	str	r3, [sp, #416]	; 0x1a0
1000549c:	331e      	adds	r3, #30
1000549e:	9369      	str	r3, [sp, #420]	; 0x1a4
100054a0:	330d      	adds	r3, #13
100054a2:	936a      	str	r3, [sp, #424]	; 0x1a8
100054a4:	330b      	adds	r3, #11
100054a6:	936b      	str	r3, [sp, #428]	; 0x1ac
100054a8:	3375      	adds	r3, #117	; 0x75
100054aa:	936c      	str	r3, [sp, #432]	; 0x1b0
100054ac:	332f      	adds	r3, #47	; 0x2f
100054ae:	936d      	str	r3, [sp, #436]	; 0x1b4
100054b0:	3bdc      	subs	r3, #220	; 0xdc
100054b2:	936e      	str	r3, [sp, #440]	; 0x1b8
100054b4:	331d      	adds	r3, #29
100054b6:	936f      	str	r3, [sp, #444]	; 0x1bc
100054b8:	330c      	adds	r3, #12
100054ba:	9370      	str	r3, [sp, #448]	; 0x1c0
100054bc:	9471      	str	r4, [sp, #452]	; 0x1c4
100054be:	9472      	str	r4, [sp, #456]	; 0x1c8
100054c0:	9473      	str	r4, [sp, #460]	; 0x1cc
100054c2:	9474      	str	r4, [sp, #464]	; 0x1d0
100054c4:	9475      	str	r4, [sp, #468]	; 0x1d4
100054c6:	9476      	str	r4, [sp, #472]	; 0x1d8
100054c8:	9477      	str	r4, [sp, #476]	; 0x1dc
100054ca:	9478      	str	r4, [sp, #480]	; 0x1e0
100054cc:	9479      	str	r4, [sp, #484]	; 0x1e4
100054ce:	3b3a      	subs	r3, #58	; 0x3a
100054d0:	937a      	str	r3, [sp, #488]	; 0x1e8
100054d2:	3303      	adds	r3, #3
100054d4:	937b      	str	r3, [sp, #492]	; 0x1ec
100054d6:	3301      	adds	r3, #1
100054d8:	937c      	str	r3, [sp, #496]	; 0x1f0
100054da:	3b02      	subs	r3, #2
100054dc:	937d      	str	r3, [sp, #500]	; 0x1f4
100054de:	3304      	adds	r3, #4
100054e0:	937e      	str	r3, [sp, #504]	; 0x1f8
100054e2:	3303      	adds	r3, #3
100054e4:	937f      	str	r3, [sp, #508]	; 0x1fc
100054e6:	9380      	str	r3, [sp, #512]	; 0x200
100054e8:	221d      	movs	r2, #29
100054ea:	9281      	str	r2, [sp, #516]	; 0x204
100054ec:	3208      	adds	r2, #8
100054ee:	9282      	str	r2, [sp, #520]	; 0x208
100054f0:	9483      	str	r4, [sp, #524]	; 0x20c
100054f2:	9484      	str	r4, [sp, #528]	; 0x210
100054f4:	325b      	adds	r2, #91	; 0x5b
100054f6:	4669      	mov	r1, sp
100054f8:	20ca      	movs	r0, #202	; 0xca
100054fa:	0040      	lsls	r0, r0, #1
100054fc:	1809      	adds	r1, r1, r0
100054fe:	508c      	str	r4, [r1, r2]
10005500:	218b      	movs	r1, #139	; 0x8b
10005502:	0109      	lsls	r1, r1, #4
10005504:	4469      	add	r1, sp
10005506:	aa65      	add	r2, sp, #404	; 0x194
10005508:	600a      	str	r2, [r1, #0]
1000550a:	604b      	str	r3, [r1, #4]
1000550c:	27a6      	movs	r7, #166	; 0xa6
1000550e:	00ff      	lsls	r7, r7, #3
10005510:	446f      	add	r7, sp
10005512:	2208      	movs	r2, #8
10005514:	0038      	movs	r0, r7
10005516:	f007 fb73 	bl	1000cc00 <__wrap___aeabi_memcpy>
1000551a:	6274      	str	r4, [r6, #36]	; 0x24
1000551c:	62b4      	str	r4, [r6, #40]	; 0x28
1000551e:	62f4      	str	r4, [r6, #44]	; 0x2c
10005520:	683c      	ldr	r4, [r7, #0]
10005522:	687b      	ldr	r3, [r7, #4]
10005524:	005f      	lsls	r7, r3, #1
10005526:	18ff      	adds	r7, r7, r3
10005528:	00bf      	lsls	r7, r7, #2
1000552a:	19e6      	adds	r6, r4, r7
1000552c:	10ba      	asrs	r2, r7, #2
1000552e:	18bb      	adds	r3, r7, r2
10005530:	0118      	lsls	r0, r3, #4
10005532:	181b      	adds	r3, r3, r0
10005534:	0218      	lsls	r0, r3, #8
10005536:	181b      	adds	r3, r3, r0
10005538:	0418      	lsls	r0, r3, #16
1000553a:	1818      	adds	r0, r3, r0
1000553c:	0040      	lsls	r0, r0, #1
1000553e:	1880      	adds	r0, r0, r2
10005540:	4a14      	ldr	r2, [pc, #80]	; (10005594 <_ZN7Genshin9loadIconsEv+0x3dc8>)
10005542:	4297      	cmp	r7, r2
10005544:	d819      	bhi.n	1000557a <_ZN7Genshin9loadIconsEv+0x3dae>
10005546:	2800      	cmp	r0, #0
10005548:	d01c      	beq.n	10005584 <_ZN7Genshin9loadIconsEv+0x3db8>
1000554a:	4a13      	ldr	r2, [pc, #76]	; (10005598 <_ZN7Genshin9loadIconsEv+0x3dcc>)
1000554c:	4290      	cmp	r0, r2
1000554e:	d817      	bhi.n	10005580 <_ZN7Genshin9loadIconsEv+0x3db4>
10005550:	0043      	lsls	r3, r0, #1
10005552:	1818      	adds	r0, r3, r0
10005554:	0080      	lsls	r0, r0, #2
10005556:	f007 fb59 	bl	1000cc0c <_Znwj>
1000555a:	23bb      	movs	r3, #187	; 0xbb
1000555c:	00db      	lsls	r3, r3, #3
1000555e:	446b      	add	r3, sp
10005560:	6018      	str	r0, [r3, #0]
10005562:	19c7      	adds	r7, r0, r7
10005564:	23bc      	movs	r3, #188	; 0xbc
10005566:	00db      	lsls	r3, r3, #3
10005568:	446b      	add	r3, sp
1000556a:	601f      	str	r7, [r3, #0]
1000556c:	42a6      	cmp	r6, r4
1000556e:	d01d      	beq.n	100055ac <_ZN7Genshin9loadIconsEv+0x3de0>
10005570:	0003      	movs	r3, r0
10005572:	cc07      	ldmia	r4!, {r0, r1, r2}
10005574:	c307      	stmia	r3!, {r0, r1, r2}
10005576:	0018      	movs	r0, r3
10005578:	e7f8      	b.n	1000556c <_ZN7Genshin9loadIconsEv+0x3da0>
1000557a:	4808      	ldr	r0, [pc, #32]	; (1000559c <_ZN7Genshin9loadIconsEv+0x3dd0>)
1000557c:	f00d fd0e 	bl	10012f9c <_ZSt20__throw_length_errorPKc>
10005580:	f00d fce4 	bl	10012f4c <_ZSt17__throw_bad_allocv>
10005584:	2000      	movs	r0, #0
10005586:	e7e8      	b.n	1000555a <_ZN7Genshin9loadIconsEv+0x3d8e>
10005588:	00000898 	.word	0x00000898
1000558c:	000005b4 	.word	0x000005b4
10005590:	000005bc 	.word	0x000005bc
10005594:	7ffffff8 	.word	0x7ffffff8
10005598:	0aaaaaaa 	.word	0x0aaaaaaa
1000559c:	1001c394 	.word	0x1001c394
100055a0:	000008a8 	.word	0x000008a8
100055a4:	000005cc 	.word	0x000005cc
100055a8:	000005d4 	.word	0x000005d4
100055ac:	4ec4      	ldr	r6, [pc, #784]	; (100058c0 <_ZN7Genshin9loadIconsEv+0x40f4>)
100055ae:	446e      	add	r6, sp
100055b0:	62b0      	str	r0, [r6, #40]	; 0x28
100055b2:	2400      	movs	r4, #0
100055b4:	9486      	str	r4, [sp, #536]	; 0x218
100055b6:	9487      	str	r4, [sp, #540]	; 0x21c
100055b8:	9488      	str	r4, [sp, #544]	; 0x220
100055ba:	2330      	movs	r3, #48	; 0x30
100055bc:	9389      	str	r3, [sp, #548]	; 0x224
100055be:	227b      	movs	r2, #123	; 0x7b
100055c0:	928a      	str	r2, [sp, #552]	; 0x228
100055c2:	321e      	adds	r2, #30
100055c4:	928b      	str	r2, [sp, #556]	; 0x22c
100055c6:	2139      	movs	r1, #57	; 0x39
100055c8:	918c      	str	r1, [sp, #560]	; 0x230
100055ca:	315b      	adds	r1, #91	; 0x5b
100055cc:	918d      	str	r1, [sp, #564]	; 0x234
100055ce:	3123      	adds	r1, #35	; 0x23
100055d0:	918e      	str	r1, [sp, #568]	; 0x238
100055d2:	39a7      	subs	r1, #167	; 0xa7
100055d4:	918f      	str	r1, [sp, #572]	; 0x23c
100055d6:	3117      	adds	r1, #23
100055d8:	9190      	str	r1, [sp, #576]	; 0x240
100055da:	310b      	adds	r1, #11
100055dc:	9191      	str	r1, [sp, #580]	; 0x244
100055de:	310a      	adds	r1, #10
100055e0:	9192      	str	r1, [sp, #584]	; 0x248
100055e2:	9293      	str	r2, [sp, #588]	; 0x24c
100055e4:	3225      	adds	r2, #37	; 0x25
100055e6:	9294      	str	r2, [sp, #592]	; 0x250
100055e8:	9495      	str	r4, [sp, #596]	; 0x254
100055ea:	9496      	str	r4, [sp, #600]	; 0x258
100055ec:	9497      	str	r4, [sp, #604]	; 0x25c
100055ee:	3a96      	subs	r2, #150	; 0x96
100055f0:	9298      	str	r2, [sp, #608]	; 0x260
100055f2:	3241      	adds	r2, #65	; 0x41
100055f4:	9299      	str	r2, [sp, #612]	; 0x264
100055f6:	3219      	adds	r2, #25
100055f8:	929a      	str	r2, [sp, #616]	; 0x268
100055fa:	939b      	str	r3, [sp, #620]	; 0x26c
100055fc:	334c      	adds	r3, #76	; 0x4c
100055fe:	939c      	str	r3, [sp, #624]	; 0x270
10005600:	331e      	adds	r3, #30
10005602:	939d      	str	r3, [sp, #628]	; 0x274
10005604:	3b78      	subs	r3, #120	; 0x78
10005606:	939e      	str	r3, [sp, #632]	; 0x278
10005608:	3337      	adds	r3, #55	; 0x37
1000560a:	939f      	str	r3, [sp, #636]	; 0x27c
1000560c:	3316      	adds	r3, #22
1000560e:	93a0      	str	r3, [sp, #640]	; 0x280
10005610:	3b56      	subs	r3, #86	; 0x56
10005612:	93a1      	str	r3, [sp, #644]	; 0x284
10005614:	332a      	adds	r3, #42	; 0x2a
10005616:	93a2      	str	r3, [sp, #648]	; 0x288
10005618:	3312      	adds	r3, #18
1000561a:	93a3      	str	r3, [sp, #652]	; 0x28c
1000561c:	94a4      	str	r4, [sp, #656]	; 0x290
1000561e:	94a5      	str	r4, [sp, #660]	; 0x294
10005620:	332b      	adds	r3, #43	; 0x2b
10005622:	466a      	mov	r2, sp
10005624:	31dd      	adds	r1, #221	; 0xdd
10005626:	31ff      	adds	r1, #255	; 0xff
10005628:	1852      	adds	r2, r2, r1
1000562a:	50d4      	str	r4, [r2, r3]
1000562c:	49a5      	ldr	r1, [pc, #660]	; (100058c4 <_ZN7Genshin9loadIconsEv+0x40f8>)
1000562e:	4469      	add	r1, sp
10005630:	600a      	str	r2, [r1, #0]
10005632:	230b      	movs	r3, #11
10005634:	604b      	str	r3, [r1, #4]
10005636:	27a6      	movs	r7, #166	; 0xa6
10005638:	00ff      	lsls	r7, r7, #3
1000563a:	446f      	add	r7, sp
1000563c:	2208      	movs	r2, #8
1000563e:	0038      	movs	r0, r7
10005640:	f007 fade 	bl	1000cc00 <__wrap___aeabi_memcpy>
10005644:	6334      	str	r4, [r6, #48]	; 0x30
10005646:	6374      	str	r4, [r6, #52]	; 0x34
10005648:	63b4      	str	r4, [r6, #56]	; 0x38
1000564a:	683c      	ldr	r4, [r7, #0]
1000564c:	687b      	ldr	r3, [r7, #4]
1000564e:	005f      	lsls	r7, r3, #1
10005650:	18ff      	adds	r7, r7, r3
10005652:	00bf      	lsls	r7, r7, #2
10005654:	19e6      	adds	r6, r4, r7
10005656:	10ba      	asrs	r2, r7, #2
10005658:	18bb      	adds	r3, r7, r2
1000565a:	0118      	lsls	r0, r3, #4
1000565c:	181b      	adds	r3, r3, r0
1000565e:	0218      	lsls	r0, r3, #8
10005660:	181b      	adds	r3, r3, r0
10005662:	0418      	lsls	r0, r3, #16
10005664:	1818      	adds	r0, r3, r0
10005666:	0040      	lsls	r0, r0, #1
10005668:	1880      	adds	r0, r0, r2
1000566a:	4a97      	ldr	r2, [pc, #604]	; (100058c8 <_ZN7Genshin9loadIconsEv+0x40fc>)
1000566c:	4297      	cmp	r7, r2
1000566e:	d817      	bhi.n	100056a0 <_ZN7Genshin9loadIconsEv+0x3ed4>
10005670:	2800      	cmp	r0, #0
10005672:	d01a      	beq.n	100056aa <_ZN7Genshin9loadIconsEv+0x3ede>
10005674:	4a95      	ldr	r2, [pc, #596]	; (100058cc <_ZN7Genshin9loadIconsEv+0x4100>)
10005676:	4290      	cmp	r0, r2
10005678:	d815      	bhi.n	100056a6 <_ZN7Genshin9loadIconsEv+0x3eda>
1000567a:	0043      	lsls	r3, r0, #1
1000567c:	1818      	adds	r0, r3, r0
1000567e:	0080      	lsls	r0, r0, #2
10005680:	f007 fac4 	bl	1000cc0c <_Znwj>
10005684:	4b92      	ldr	r3, [pc, #584]	; (100058d0 <_ZN7Genshin9loadIconsEv+0x4104>)
10005686:	446b      	add	r3, sp
10005688:	6018      	str	r0, [r3, #0]
1000568a:	19c7      	adds	r7, r0, r7
1000568c:	4b91      	ldr	r3, [pc, #580]	; (100058d4 <_ZN7Genshin9loadIconsEv+0x4108>)
1000568e:	446b      	add	r3, sp
10005690:	601f      	str	r7, [r3, #0]
10005692:	42a6      	cmp	r6, r4
10005694:	d00b      	beq.n	100056ae <_ZN7Genshin9loadIconsEv+0x3ee2>
10005696:	0003      	movs	r3, r0
10005698:	cc07      	ldmia	r4!, {r0, r1, r2}
1000569a:	c307      	stmia	r3!, {r0, r1, r2}
1000569c:	0018      	movs	r0, r3
1000569e:	e7f8      	b.n	10005692 <_ZN7Genshin9loadIconsEv+0x3ec6>
100056a0:	488d      	ldr	r0, [pc, #564]	; (100058d8 <_ZN7Genshin9loadIconsEv+0x410c>)
100056a2:	f00d fc7b 	bl	10012f9c <_ZSt20__throw_length_errorPKc>
100056a6:	f00d fc51 	bl	10012f4c <_ZSt17__throw_bad_allocv>
100056aa:	2000      	movs	r0, #0
100056ac:	e7ea      	b.n	10005684 <_ZN7Genshin9loadIconsEv+0x3eb8>
100056ae:	4e84      	ldr	r6, [pc, #528]	; (100058c0 <_ZN7Genshin9loadIconsEv+0x40f4>)
100056b0:	446e      	add	r6, sp
100056b2:	6370      	str	r0, [r6, #52]	; 0x34
100056b4:	2400      	movs	r4, #0
100056b6:	94a7      	str	r4, [sp, #668]	; 0x29c
100056b8:	94a8      	str	r4, [sp, #672]	; 0x2a0
100056ba:	94a9      	str	r4, [sp, #676]	; 0x2a4
100056bc:	2339      	movs	r3, #57	; 0x39
100056be:	93aa      	str	r3, [sp, #680]	; 0x2a8
100056c0:	335b      	adds	r3, #91	; 0x5b
100056c2:	93ab      	str	r3, [sp, #684]	; 0x2ac
100056c4:	3323      	adds	r3, #35	; 0x23
100056c6:	93ac      	str	r3, [sp, #688]	; 0x2b0
100056c8:	3b89      	subs	r3, #137	; 0x89
100056ca:	93ad      	str	r3, [sp, #692]	; 0x2b4
100056cc:	334a      	adds	r3, #74	; 0x4a
100056ce:	93ae      	str	r3, [sp, #696]	; 0x2b8
100056d0:	331e      	adds	r3, #30
100056d2:	93af      	str	r3, [sp, #700]	; 0x2bc
100056d4:	3b7a      	subs	r3, #122	; 0x7a
100056d6:	93b0      	str	r3, [sp, #704]	; 0x2c0
100056d8:	332e      	adds	r3, #46	; 0x2e
100056da:	93b1      	str	r3, [sp, #708]	; 0x2c4
100056dc:	3312      	adds	r3, #18
100056de:	93b2      	str	r3, [sp, #712]	; 0x2c8
100056e0:	3b1b      	subs	r3, #27
100056e2:	93b3      	str	r3, [sp, #716]	; 0x2cc
100056e4:	3365      	adds	r3, #101	; 0x65
100056e6:	93b4      	str	r3, [sp, #720]	; 0x2d0
100056e8:	3328      	adds	r3, #40	; 0x28
100056ea:	93b5      	str	r3, [sp, #724]	; 0x2d4
